文件：Key.c        编译器版本 HGASM 0202 页次1


   1  0000              ; Generated by holtek-gcc v3.19, Fri Nov 11 18:10:30 2022
   2  0000              ; 
   3  0000              ; Configuration:
   4  0000              ;       with long instruction
   5  0000              ;       Multi-ROM, Multi-RAM
   6  0000              ;       bits_per_rom_unit:16
   7  0000              ;       with mp1
   8  0000              ;       with tbhp, address(0x9)
   9  0000              ;          Use tabrd-const
  10  0000              ;       
  11  0000              ; SFR address of long-instruction arch:
  12  0000              ;    mp0 = -1,1,0
  13  0000              ;    mp1 = 4,3,2
  14  0000              ;    mp2 = 14,13,12
  15  0000              ;    tbp = 9,7,8
  16  0000              ;    acc = 5
  17  0000              ;    pcl = 6
  18  0000              ;    status = 10
  19  0000              ;    bp = 11
  20  0000              ;    intc = 67
  21  0000              ;       
  22  0000              ;       
  23  0000              ; use 'tabrdc' instead of 'tabrd'
  24  0000              ;       
  25  0000              
  26  0000              #pragma translator "holtek-gcc 4.6.4" "3.19" "build 20130711"
  27  0000              ; Rebuild 718
  28  0000              
  29  0000              ir equ [2]
  30  0000              mp equ [3]
  31  0000              sbp equ [4]
  32  0000              acc equ [5]
  33  0000              bp equ [11]
  34  0000              tblp equ [7]
  35  0000              tbhp equ [9]
  36  0000              status equ [10]
  37  0000              c equ [10].0
  38  0000              ac equ [10].1
  39  0000              z equ [10].2
  40  0000              ov equ [10].3
  41  0000              cz equ [10].6
  42  0000              sc equ [10].7
  43  0000              intc equ [67]
  44  0000              
  45  0000              extern ra:byte
  46  0000              extern rb:byte
  47  0000              extern rc:byte
  48  0000              extern rd:byte
  49  0000              extern re:byte
  50  0000              extern rf:byte
  51  0000              extern rg:byte
  52  0000              extern rh:byte
  53  0000              extern _Crom2Prom:near
  54  0000              extern _Crom2PromNext:near
  55  0000              
  56  0000              RAMBANK 0 @BITDATASEC, @BITDATASEC1
  57  0000              @HCCINIT	.section 'data'
  58  0000              @HCCINIT0	.section 'data'
  59  0000              @BITDATASEC	 .section 'data'
文件：Key.ASM      编译器版本 HGASM 0202 页次2

  60  0000              @BITDATASEC1	 .section 'data'
  61  0000              
  62  0000              #pragma debug scope 1 1
  63  0000              	extern __DELAY3:near
  64  0000              	extern __DELAYX3:near
  65  0000              	extern __DELAYX6:near
  66  0000              	extern __DELAYY5:near
  67  0000              	extern __DELAYY3:near
  68  0000              	extern _builtin_holtek_delay_2:byte
  69  0000              ___pa equ [20]
  70  0000              #pragma debug scope 2 1

 128  0000              #line 128 "e:\x-sense_svn\xp02\xp02\src\Key.c"
 128  0000              _KeyGpioValue .section 'code'
 128  0000              _KeyGpioValue proc
 130  0000              #line 130 "e:\x-sense_svn\xp02\xp02\src\Key.c"
 130  0000  3A14        	snz [20].4
 130  0001  2800     R  	jmp _L4
 129  0002              #line 129 "e:\x-sense_svn\xp02\xp02\src\Key.c"
 129  0002  0F80        	mov a,128
 129  0003  0080     E  	mov ra,a
 129  0004  2800     R  	jmp _L2
 129  0005              _L4:
 132  0005              #line 132 "e:\x-sense_svn\xp02\xp02\src\Key.c"
 132  0005  0F81        	mov a,129
 132  0006  0080     E  	mov ra,a
 132  0007              _L2:
 136  0007              #line 136 "e:\x-sense_svn\xp02\xp02\src\Key.c"
 136  0007  3C14        	sz [20].0
 136  0008  2800     R  	jmp _L3
 138  0009              #line 138 "e:\x-sense_svn\xp02\xp02\src\Key.c"
 138  0009  3000     E  	set ra.2
 138  000A              _L3:
 142  000A              #line 142 "e:\x-sense_svn\xp02\xp02\src\Key.c"
 142  000A  0700     E  	mov a,ra
 142  000B  0003        	ret
 142  000C              _KeyGpioValue endp
 142  000C              #line 142 "e:\x-sense_svn\xp02\xp02\src\Key.c"
 142  000C              #pragma debug scope 1 1
 142  000C              public _KeyInit
 142  000C              #pragma debug scope 3 1
  70  000C              #line 70 "e:\x-sense_svn\xp02\xp02\src\Key.c"
  70  0000              _KeyInit .section 'code'
  70  0000              _KeyInit proc
  71  0000              #line 71 "e:\x-sense_svn\xp02\xp02\src\Key.c"
  71  0000  1F00     R  	clr _KeyApiTag[0]
  71  0001  1F00     R  	clr _KeyApiTag[1]
  72  0002              #line 72 "e:\x-sense_svn\xp02\xp02\src\Key.c"
  72  0002  1F00     R  	clr _KeyApiTag[2]
  73  0003              #line 73 "e:\x-sense_svn\xp02\xp02\src\Key.c"
  73  0003  0F80        	mov a,-128
  73  0004  0080     R  	mov _KeyApiTag[7],a
  73  0005  1F00     R  	clr _KeyApiTag[8]
  74  0006              #line 74 "e:\x-sense_svn\xp02\xp02\src\Key.c"
  74  0006  0F80        	mov a,-128
  74  0007  0080     R  	mov _KeyApiTag[5],a
  74  0008  1F00     R  	clr _KeyApiTag[6]
  75  0009              #line 75 "e:\x-sense_svn\xp02\xp02\src\Key.c"
  75  0009  0F80        	mov a,-128
  75  000A  0080     R  	mov _KeyApiTag[9],a
文件：Key.c        编译器版本 HGASM 0202 页次3

  75  000B  1F00     R  	clr _KeyApiTag[10]
  76  000C              #line 76 "e:\x-sense_svn\xp02\xp02\src\Key.c"
  76  000C  1F00     R  	clr _KeyApiTag[3]
  76  000D  1F00     R  	clr _KeyApiTag[4]
  77  000E              #line 77 "e:\x-sense_svn\xp02\xp02\src\Key.c"
  77  000E  1F00     R  	clr _KeyApiTag[11]
  79  000F              #line 79 "e:\x-sense_svn\xp02\xp02\src\Key.c"
  79  000F  1F00     E  	clr _TmrInsertTimer_2[4]
  79  0010  1F00     E  	clr _TmrInsertTimer_2[5]
  79  0011  0F01        	mov a,1
  79  0012  0080     E  	mov _TmrInsertTimer_2[2],a
  79  0013  1F00     E  	clr _TmrInsertTimer_2[3]
  79  0014  1F00     E  	clr _TmrInsertTimer_2[0]
  79  0015  1F00     E  	clr _TmrInsertTimer_2[1]
  79  0016              	fcall _TmrInsertTimer
  80  001D              #line 80 "e:\x-sense_svn\xp02\xp02\src\Key.c"
  80  001D  0FFF        	mov a,255
  80  001E  0680     E  	andm a,_SysAO[26]
  80  001F  0FFF        	mov a,255
  80  0020  0680     E  	andm a,_SysAO[25]
  80  0021  0FFF        	mov a,255
  80  0022  0680     E  	andm a,_SysAO[24]
  80  0023  0FFE        	mov a,254
  80  0024  0680     E  	andm a,_SysAO[23]
  80  0025  0003        	ret
  80  0026              _KeyInit endp
  80  0026              #line 80 "e:\x-sense_svn\xp02\xp02\src\Key.c"
  80  0026              #pragma debug scope 1 1
  80  0026              public _GetKeyApiTag
  80  0026              #pragma debug scope 4 1
  91  0026              #line 91 "e:\x-sense_svn\xp02\xp02\src\Key.c"
  91  0000              _GetKeyApiTag .section 'code'
  91  0000              _GetKeyApiTag proc
  93  0000              #line 93 "e:\x-sense_svn\xp02\xp02\src\Key.c"
  93  0000  0F00     R  	mov a,low offset _KeyApiTag
  93  0001  0080     E  	mov ra,a
  93  0002  0F00     R  	mov a,high offset _KeyApiTag
  93  0003  0080     E  	mov rb,a
  93  0004  0003        	ret
  93  0005              _GetKeyApiTag endp
  93  0005              #line 93 "e:\x-sense_svn\xp02\xp02\src\Key.c"
  93  0005              #pragma debug scope 1 1
  93  0005              public _GetKeyClickFlag
  93  0005              #pragma debug scope 5 1
 103  0005              #line 103 "e:\x-sense_svn\xp02\xp02\src\Key.c"
 103  0000              _GetKeyClickFlag .section 'code'
 103  0000              _GetKeyClickFlag proc
 105  0000              #line 105 "e:\x-sense_svn\xp02\xp02\src\Key.c"
 105  0000  0700     R  	mov a,_KeyApiTag[2]
 105  0001  0003        	ret
 105  0002              _GetKeyClickFlag endp
 105  0002              #line 105 "e:\x-sense_svn\xp02\xp02\src\Key.c"
 105  0002              #pragma debug scope 1 1
 105  0002              public _SetKeyClickFlag
 105  0002              #pragma debug scope 6 1
 115  0002              #line 115 "e:\x-sense_svn\xp02\xp02\src\Key.c"
 115  0000              _SetKeyClickFlag .section 'code'
 115  0000              _SetKeyClickFlag proc
 115  0000  00              local _SetKeyClickFlag_2 db 1 dup(?)	; 0,1
 115  0000  0080     E  	mov ra,a
文件：Key.c        编译器版本 HGASM 0202 页次4

 115  0001              #pragma debug variable 8 6 _SetKeyClickFlag_2+0 "Flag"
 116  0001              #line 116 "e:\x-sense_svn\xp02\xp02\src\Key.c"
 116  0001  0700     E  	mov a,ra
 116  0002  0080     R  	mov _KeyApiTag[2],a
 116  0003  0003        	ret
 116  0004              _SetKeyClickFlag endp
 116  0004              #line 116 "e:\x-sense_svn\xp02\xp02\src\Key.c"
 116  0004              #pragma debug scope 1 1
 116  0004              public _KeyCheck
 116  0004              #pragma debug scope 7 1
 153  0004              #line 153 "e:\x-sense_svn\xp02\xp02\src\Key.c"
 153  0000              _KeyCheck .section 'code'
 153  0000              _KeyCheck proc
 153  0000  0002[           local _KeyCheck_2 db 2 dup(?)	; 0,2
            00
            ]
 153  0002              #pragma debug struct_end
 153  0002              #pragma debug struct_end
 153  0002              #pragma debug pointer 43 42 7
 153  0002              #pragma debug pointer 43 42 7
 153  0002              #pragma debug variable 43 7 _KeyCheck_2+0 "pKeyApi"
 155  0002              #line 155 "e:\x-sense_svn\xp02\xp02\src\Key.c"
 155  0000              	fcall _GetKeyApiTag
 155  0007  0700     E  	mov a,ra
 155  0008  0080     R  	mov _KeyCheck_2[0],a
 155  0009  0700     E  	mov a,rb
 155  000A  0080     R  	mov _KeyCheck_2[1],a
 156  000B              #line 156 "e:\x-sense_svn\xp02\xp02\src\Key.c"
 156  000B              	fcall _GetKeyClickFlag
 156  0012  0080     E  	mov ra,a
 156  0013  1E00     E  	snz ra
 156  0014  2800     R  	jmp _L11
 158  0015              #line 158 "e:\x-sense_svn\xp02\xp02\src\Key.c"
 158  0015  1F00     R  	clr ___flag_3184[0]
 158  0016  2800     R  	jmp _L10
 158  0017              _L11:
 162  0017              #line 162 "e:\x-sense_svn\xp02\xp02\src\Key.c"
 162  0017              	fcall _KeyGpioValue
 162  001E  0080     E  	mov ra,a
 162  001F  0700     E  	mov a,ra
 162  0020  0A80        	sub a,128
 162  0021  390A        	snz z
 162  0022  2800     R  	jmp _L13
 164  0023              #line 164 "e:\x-sense_svn\xp02\xp02\src\Key.c"
 164  0023  0FFF        	mov a,255
 164  0024  0680     E  	andm a,_SysAO[26]
 164  0025  0FFF        	mov a,255
 164  0026  0680     E  	andm a,_SysAO[25]
 164  0027  0FFF        	mov a,255
 164  0028  0680     E  	andm a,_SysAO[24]
 164  0029  0FFE        	mov a,254
 164  002A  0680     E  	andm a,_SysAO[23]
 165  002B              #line 165 "e:\x-sense_svn\xp02\xp02\src\Key.c"
 165  002B  0F01        	mov a,1
 165  002C  0080     R  	mov ___flag_3184[0],a
 166  002D              #line 166 "e:\x-sense_svn\xp02\xp02\src\Key.c"
 166  002D  0F00        	mov a,0
 166  002E              	fcall _SetKeyClickFlag
 167  0035              #line 167 "e:\x-sense_svn\xp02\xp02\src\Key.c"
 167  0035  0700     R  	mov a,_KeyCheck_2[0]
文件：Key.c        编译器版本 HGASM 0202 页次5

 167  0036  0083        	mov mp,a
 167  0037  0700     R  	mov a,_KeyCheck_2[1]
 167  0038  0084        	mov sbp,a
 167  0039  1F02        	clr ir
 167  003A  1483        	inc mp
 167  003B  1F02        	clr ir
 168  003C              #line 168 "e:\x-sense_svn\xp02\xp02\src\Key.c"
 168  003C  0F05        	mov a,5
 168  003D  0300     R  	add a,_KeyCheck_2[0]
 168  003E  0083        	mov mp,a
 168  003F  0F00        	mov a,0
 168  0040  1300     R  	adc a,_KeyCheck_2[1]
 168  0041  0084        	mov sbp,a
 168  0042  0F80        	mov a,128
 168  0043  0082        	mov ir,a
 168  0044  1483        	inc mp
 168  0045  0F00        	mov a,0
 168  0046  0082        	mov ir,a
 170  0047              #line 170 "e:\x-sense_svn\xp02\xp02\src\Key.c"
 170  0047  0700     E  	mov a,_SysAO[0]
 170  0048  0C12        	xor a,18
 170  0049  0500     E  	or a,_SysAO[1]
 170  004A  390A        	snz z
 170  004B  2800     R  	jmp _L10
 172  004C              #line 172 "e:\x-sense_svn\xp02\xp02\src\Key.c"
 172  004C  0F37        	mov a,55
 172  004D  0080     E  	mov _SysteSetSig_2[0],a
 172  004E  1F00     E  	clr _SysteSetSig_2[1]
 172  004F              	fcall _SysteSetSig
 172  0056  2800     R  	jmp _L10
 172  0057              _L13:
 178  0057              #line 178 "e:\x-sense_svn\xp02\xp02\src\Key.c"
 178  0057  0F00        	mov a,0
 178  0058  0580     E  	orm a,_SysAO[26]
 178  0059  0F00        	mov a,0
 178  005A  0580     E  	orm a,_SysAO[25]
 178  005B  0F00        	mov a,0
 178  005C  0580     E  	orm a,_SysAO[24]
 178  005D  0F01        	mov a,1
 178  005E  0580     E  	orm a,_SysAO[23]
 179  005F              #line 179 "e:\x-sense_svn\xp02\xp02\src\Key.c"
 179  005F  1700     R  	sdza ___flag_3184[0]
 179  0060  2800     R  	jmp _L10
 181  0061              #line 181 "e:\x-sense_svn\xp02\xp02\src\Key.c"
 181  0061  0F01        	mov a,1
 181  0062              	fcall _SetKeyClickFlag
 181  0069              _L10:
 181  0069  0003        	ret
 181  006A              _KeyCheck endp
 181  006A              #line 181 "e:\x-sense_svn\xp02\xp02\src\Key.c"
 181  006A              #pragma debug scope 1 1
 181  006A              public _isNewKeyMsg
 181  006A              #pragma debug scope 8 1
 196  006A              #line 196 "e:\x-sense_svn\xp02\xp02\src\Key.c"
 196  0000              _isNewKeyMsg .section 'code'
 196  0000              _isNewKeyMsg proc
 196  0000  0002[           local _isNewKeyMsg_2 db 2 dup(?)	; 0,2
            00
            ]
 198  0002              #line 198 "e:\x-sense_svn\xp02\xp02\src\Key.c"
文件：Key.c        编译器版本 HGASM 0202 页次6

 198  0000              	fcall _GetKeyApiTag
 199  0007              #line 199 "e:\x-sense_svn\xp02\xp02\src\Key.c"
 199  0007  0F07        	mov a,7
 199  0008  0300     E  	add a,ra
 199  0009  0080     E  	mov rd,a
 199  000A  0F00        	mov a,0
 199  000B  1300     E  	adc a,rb
 199  000C  0080     E  	mov re,a
 199  000D  0700     E  	mov a,rd
 199  000E  0083        	mov mp,a
 199  000F  0700     E  	mov a,re
 199  0010  0084        	mov sbp,a
 199  0011              	fcall _Crom2Prom
 199  0018  0080     E  	mov rf,a
 199  0019              	fcall _Crom2PromNext
 199  0020  0080     E  	mov rg,a
 199  0021  0700     E  	mov a,rf
 199  0022  0C80        	xor a,128
 199  0023  0500     E  	or a,rg
 199  0024  3D0A        	sz z
 199  0025  2800     R  	jmp _L19
 199  0026              #line 199 "e:\x-sense_svn\xp02\xp02\src\Key.c"
 199  0026  0F03        	mov a,3
 199  0027  0300     E  	add a,ra
 199  0028  0083        	mov mp,a
 199  0029  0F00        	mov a,0
 199  002A  1300     E  	adc a,rb
 199  002B  0084        	mov sbp,a
 199  002C              	fcall _Crom2Prom
 199  0033  0080     R  	mov _isNewKeyMsg_2[0],a
 199  0034              	fcall _Crom2PromNext
 199  003B  0080     R  	mov _isNewKeyMsg_2[1],a
 199  003C  0700     R  	mov a,_isNewKeyMsg_2[0]
 199  003D  0C02        	xor a,2
 199  003E  0500     R  	or a,_isNewKeyMsg_2[1]
 199  003F  3D0A        	sz z
 199  0040  2800     R  	jmp _L19
 201  0041              #line 201 "e:\x-sense_svn\xp02\xp02\src\Key.c"
 201  0041  0F09        	mov a,9
 201  0042  0300     E  	add a,ra
 201  0043  0083        	mov mp,a
 201  0044  0F00        	mov a,0
 201  0045  1300     E  	adc a,rb
 201  0046  0084        	mov sbp,a
 201  0047  0700     E  	mov a,rf
 201  0048  0082        	mov ir,a
 201  0049  1483        	inc mp
 201  004A  0700     E  	mov a,rg
 201  004B  0082        	mov ir,a
 202  004C              #line 202 "e:\x-sense_svn\xp02\xp02\src\Key.c"
 202  004C  0700     E  	mov a,rd
 202  004D  0083        	mov mp,a
 202  004E  0700     E  	mov a,re
 202  004F  0084        	mov sbp,a
 202  0050  0F80        	mov a,128
 202  0051  0082        	mov ir,a
 202  0052  1483        	inc mp
 202  0053  0F00        	mov a,0
 202  0054  0082        	mov ir,a
 203  0055              #line 203 "e:\x-sense_svn\xp02\xp02\src\Key.c"
文件：Key.c        编译器版本 HGASM 0202 页次7

 203  0055  0F01        	mov a,1
 203  0056  0080     E  	mov ra,a
 203  0057  1F00     E  	clr rb
 203  0058  2800     R  	jmp _L17
 203  0059              _L19:
 197  0059              #line 197 "e:\x-sense_svn\xp02\xp02\src\Key.c"
 197  0059  1F00     E  	clr ra
 197  005A  1F00     E  	clr rb
 197  005B              _L17:
 197  005B  0003        	ret
 197  005C              _isNewKeyMsg endp
 197  005C              #line 197 "e:\x-sense_svn\xp02\xp02\src\Key.c"
 197  005C              #pragma debug scope 1 1
 197  005C              public _KeyGpioScan
 197  005C              #pragma debug scope 9 1
 216  005C              #line 216 "e:\x-sense_svn\xp02\xp02\src\Key.c"
 216  0000              _KeyGpioScan .section 'code'
 216  0000              _KeyGpioScan proc
 216  0000  0005[           local _KeyGpioScan_2 db 5 dup(?)	; 0,5
            00
            ]
 216  0005              #pragma debug struct_end
 216  0005              #pragma debug struct_end
 216  0005              #pragma debug pointer 45 44 9
 216  0005              #pragma debug pointer 45 44 9
 216  0005              #pragma debug variable 45 9 _KeyGpioScan_2+0 "pKeyApi"
 216  0005              #pragma debug variable 8 9 _KeyGpioScan_2+2 "KeyTemp"
 217  0005              #line 217 "e:\x-sense_svn\xp02\xp02\src\Key.c"
 217  0000              	fcall _GetKeyApiTag
 217  0007  0700     E  	mov a,ra
 217  0008  0080     R  	mov _KeyGpioScan_2[0],a
 217  0009  0700     E  	mov a,rb
 217  000A  0080     R  	mov _KeyGpioScan_2[1],a
 218  000B              #line 218 "e:\x-sense_svn\xp02\xp02\src\Key.c"
 218  000B              	fcall _KeyGpioValue
 218  0012  0080     R  	mov _KeyGpioScan_2[2],a
 220  0013              #line 220 "e:\x-sense_svn\xp02\xp02\src\Key.c"
 220  0013              	fcall _GetKeyClickFlag
 220  001A  0080     E  	mov ra,a
 220  001B  1E00     E  	snz ra
 220  001C  2800     R  	jmp _L20
 222  001D              #line 222 "e:\x-sense_svn\xp02\xp02\src\Key.c"
 222  001D  0F05        	mov a,5
 222  001E  0300     R  	add a,_KeyGpioScan_2[0]
 222  001F  0080     E  	mov rb,a
 222  0020  0F00        	mov a,0
 222  0021  1300     R  	adc a,_KeyGpioScan_2[1]
 222  0022  0080     E  	mov rc,a
 222  0023  0700     E  	mov a,rb
 222  0024  0083        	mov mp,a
 222  0025  0700     E  	mov a,rc
 222  0026  0084        	mov sbp,a
 222  0027              	fcall _Crom2Prom
 222  002E  0080     E  	mov rd,a
 222  002F              	fcall _Crom2PromNext
 222  0036  0080     E  	mov re,a
 222  0037  0700     R  	mov a,_KeyGpioScan_2[2]
 222  0038  0080     R  	mov _KeyGpioScan_2[3],a
 222  0039  1F00     R  	clr _KeyGpioScan_2[4]
 224  003A              #line 224 "e:\x-sense_svn\xp02\xp02\src\Key.c"
文件：Key.c        编译器版本 HGASM 0202 页次8

 224  003A  0700     R  	mov a,_KeyGpioScan_2[0]
 224  003B  0083        	mov mp,a
 224  003C  0700     R  	mov a,_KeyGpioScan_2[1]
 224  003D  0084        	mov sbp,a
 222  003E              #line 222 "e:\x-sense_svn\xp02\xp02\src\Key.c"
 222  003E  0700     E  	mov a,rd
 222  003F  0200     R  	sub a,_KeyGpioScan_2[3]
 222  0040  0700     E  	mov a,re
 222  0041  1200     R  	sbc a,_KeyGpioScan_2[4]
 222  0042  3B0A        	snz cz
 222  0043  2800     R  	jmp _L22
 224  0044              #line 224 "e:\x-sense_svn\xp02\xp02\src\Key.c"
 224  0044              	fcall _Crom2Prom
 224  004B  0080     E  	mov rb,a
 224  004C              	fcall _Crom2PromNext
 224  0053  0080     E  	mov rc,a
 224  0054  1480     E  	inc rb
 224  0055  3D0A        	sz z
 224  0056  1480     E  	inc rc
 224  0057  0700     R  	mov a,_KeyGpioScan_2[0]
 224  0058  0083        	mov mp,a
 224  0059  0700     R  	mov a,_KeyGpioScan_2[1]
 224  005A  0084        	mov sbp,a
 224  005B  0700     E  	mov a,rb
 224  005C  0082        	mov ir,a
 224  005D  1483        	inc mp
 224  005E  0700     E  	mov a,rc
 224  005F  0082        	mov ir,a
 225  0060              #line 225 "e:\x-sense_svn\xp02\xp02\src\Key.c"
 225  0060  0F2B        	mov a,43
 225  0061  0200     E  	sub a,rb
 225  0062  0F01        	mov a,1
 225  0063  1200     E  	sbc a,rc
 225  0064  3C0A        	sz c
 225  0065  2800     R  	jmp _L23
 227  0066              #line 227 "e:\x-sense_svn\xp02\xp02\src\Key.c"
 227  0066  0F03        	mov a,3
 227  0067  0300     R  	add a,_KeyGpioScan_2[0]
 227  0068  0083        	mov mp,a
 227  0069  0F00        	mov a,0
 227  006A  1300     R  	adc a,_KeyGpioScan_2[1]
 227  006B  0084        	mov sbp,a
 227  006C  0F01        	mov a,1
 227  006D  0082        	mov ir,a
 227  006E  1483        	inc mp
 227  006F  0F00        	mov a,0
 227  0070  0082        	mov ir,a
 228  0071              #line 228 "e:\x-sense_svn\xp02\xp02\src\Key.c"
 228  0071  0700     R  	mov a,_KeyGpioScan_2[3]
 228  0072  0080     E  	mov rb,a
 228  0073  0700     R  	mov a,_KeyGpioScan_2[4]
 228  0074  0080     E  	mov rc,a
 228  0075  0F7F        	mov a,127  
 228  0076  0680     E  	andm a,rb  
 228  0077  0F00        	mov a,0  
 228  0078  0680     E  	andm a,rc
 228  0079  0F07        	mov a,7
 228  007A  0300     R  	add a,_KeyGpioScan_2[0]
 228  007B  0083        	mov mp,a
 228  007C  0F00        	mov a,0
文件：Key.c        编译器版本 HGASM 0202 页次9

 228  007D  1300     R  	adc a,_KeyGpioScan_2[1]
 228  007E  0084        	mov sbp,a
 228  007F  0700     E  	mov a,rb
 228  0080  0082        	mov ir,a
 228  0081  1483        	inc mp
 228  0082  0700     E  	mov a,rc
 228  0083  0082        	mov ir,a
 228  0084  2800     R  	jmp _L29
 228  0085              _L22:
 234  0085              #line 234 "e:\x-sense_svn\xp02\xp02\src\Key.c"
 234  0085  0700     R  	mov a,_KeyGpioScan_2[2]
 234  0086  0A80        	sub a,128
 234  0087  390A        	snz z
 234  0088  2800     R  	jmp _L24
 236  0089              #line 236 "e:\x-sense_svn\xp02\xp02\src\Key.c"
 236  0089              	fcall _Crom2Prom
 236  0090  0080     E  	mov rf,a
 236  0091              	fcall _Crom2PromNext
 236  0098  0080     E  	mov rg,a
 236  0099  0FFE        	mov a,254
 236  009A  0380     E  	addm a,rf
 236  009B  0FFF        	mov a,255
 236  009C  1380     E  	adcm a,rg
 236  009D  0FC5        	mov a,197
 236  009E  0200     E  	sub a,rf
 236  009F  0F00        	mov a,0
 236  00A0  1200     E  	sbc a,rg
 236  00A1  380A        	snz c
 236  00A2  2800     R  	jmp _L25
 239  00A3              #line 239 "e:\x-sense_svn\xp02\xp02\src\Key.c"
 239  00A3  0F03        	mov a,3
 239  00A4  0300     R  	add a,_KeyGpioScan_2[0]
 239  00A5  0083        	mov mp,a
 239  00A6  0F00        	mov a,0
 239  00A7  1300     R  	adc a,_KeyGpioScan_2[1]
 239  00A8  0084        	mov sbp,a
 239  00A9  0F02        	mov a,2
 239  00AA  0082        	mov ir,a
 239  00AB  1483        	inc mp
 239  00AC  0F00        	mov a,0
 239  00AD  0082        	mov ir,a
 240  00AE              #line 240 "e:\x-sense_svn\xp02\xp02\src\Key.c"
 240  00AE  0F7F        	mov a,127  
 240  00AF  0680     E  	andm a,rd  
 240  00B0  0F00        	mov a,0  
 240  00B1  0680     E  	andm a,re
 240  00B2  0F07        	mov a,7
 240  00B3  0300     R  	add a,_KeyGpioScan_2[0]
 240  00B4  0083        	mov mp,a
 240  00B5  0F00        	mov a,0
 240  00B6  1300     R  	adc a,_KeyGpioScan_2[1]
 240  00B7  0084        	mov sbp,a
 240  00B8  0700     E  	mov a,rd
 240  00B9  0082        	mov ir,a
 240  00BA  1483        	inc mp
 240  00BB  0700     E  	mov a,re
 240  00BC  0082        	mov ir,a
 241  00BD              #line 241 "e:\x-sense_svn\xp02\xp02\src\Key.c"
 241  00BD  0F00        	mov a,0
 241  00BE              	fcall _SetKeyClickFlag
文件：Key.c        编译器版本 HGASM 0202 页次10

 243  00C5              #line 243 "e:\x-sense_svn\xp02\xp02\src\Key.c"
 243  00C5  0F0B        	mov a,11
 243  00C6  0300     R  	add a,_KeyGpioScan_2[0]
 243  00C7  0083        	mov mp,a
 243  00C8  0F00        	mov a,0
 243  00C9  1300     R  	adc a,_KeyGpioScan_2[1]
 243  00CA  0084        	mov sbp,a
 243  00CB              	fcall _Crom2Prom
 243  00D2  0080     R  	mov _KeyGpioScan_2[2],a
 243  00D3  1400     R  	inca _KeyGpioScan_2[2]
 243  00D4  0080     E  	mov ra,a
 243  00D5  0700     E  	mov a,ra
 243  00D6  0082        	mov ir,a
 244  00D7              #line 244 "e:\x-sense_svn\xp02\xp02\src\Key.c"
 244  00D7  1F00     E  	clr _TmrInsertTimer_2[4]
 244  00D8  1F00     E  	clr _TmrInsertTimer_2[5]
 244  00D9  0F64        	mov a,100
 244  00DA  0080     E  	mov _TmrInsertTimer_2[2],a
 244  00DB  1F00     E  	clr _TmrInsertTimer_2[3]
 244  00DC  0F01        	mov a,1
 244  00DD  0080     E  	mov _TmrInsertTimer_2[0],a
 244  00DE  1F00     E  	clr _TmrInsertTimer_2[1]
 244  00DF              	fcall _TmrInsertTimer
 244  00E6  2800     R  	jmp _L23
 244  00E7              _L25:
 248  00E7              #line 248 "e:\x-sense_svn\xp02\xp02\src\Key.c"
 248  00E7  0700     R  	mov a,_KeyGpioScan_2[0]
 248  00E8  0083        	mov mp,a
 248  00E9  0700     R  	mov a,_KeyGpioScan_2[1]
 248  00EA  0084        	mov sbp,a
 248  00EB  1F02        	clr ir
 248  00EC  1483        	inc mp
 248  00ED  1F02        	clr ir
 249  00EE              #line 249 "e:\x-sense_svn\xp02\xp02\src\Key.c"
 249  00EE  0F07        	mov a,7
 249  00EF  0300     R  	add a,_KeyGpioScan_2[0]
 249  00F0  0083        	mov mp,a
 249  00F1  0F00        	mov a,0
 249  00F2  1300     R  	adc a,_KeyGpioScan_2[1]
 249  00F3  0084        	mov sbp,a
 249  00F4  0F80        	mov a,128
 249  00F5  0082        	mov ir,a
 249  00F6  1483        	inc mp
 249  00F7  0F00        	mov a,0
 249  00F8  0082        	mov ir,a
 250  00F9              #line 250 "e:\x-sense_svn\xp02\xp02\src\Key.c"
 250  00F9  0700     E  	mov a,rb
 250  00FA  0083        	mov mp,a
 250  00FB  0700     E  	mov a,rc
 250  00FC  0084        	mov sbp,a
 250  00FD  0F80        	mov a,128
 250  00FE  0082        	mov ir,a
 250  00FF  1483        	inc mp
 250  0100  0F00        	mov a,0
 250  0101  0082        	mov ir,a
 250  0102              _L29:
 251  0102              #line 251 "e:\x-sense_svn\xp02\xp02\src\Key.c"
 251  0102  0F00        	mov a,0
 251  0103              	fcall _SetKeyClickFlag
 251  010A  2800     R  	jmp _L23
文件：Key.c        编译器版本 HGASM 0202 页次11

 251  010B              _L24:
 256  010B              #line 256 "e:\x-sense_svn\xp02\xp02\src\Key.c"
 256  010B  1F02        	clr ir
 256  010C  1483        	inc mp
 256  010D  1F02        	clr ir
 257  010E              #line 257 "e:\x-sense_svn\xp02\xp02\src\Key.c"
 257  010E  0F07        	mov a,7
 257  010F  0300     R  	add a,_KeyGpioScan_2[0]
 257  0110  0083        	mov mp,a
 257  0111  0F00        	mov a,0
 257  0112  1300     R  	adc a,_KeyGpioScan_2[1]
 257  0113  0084        	mov sbp,a
 257  0114  0F80        	mov a,128
 257  0115  0082        	mov ir,a
 257  0116  1483        	inc mp
 257  0117  0F00        	mov a,0
 257  0118  0082        	mov ir,a
 257  0119              _L23:
 261  0119              #line 261 "e:\x-sense_svn\xp02\xp02\src\Key.c"
 261  0119  0F05        	mov a,5
 261  011A  0300     R  	add a,_KeyGpioScan_2[0]
 261  011B  0083        	mov mp,a
 261  011C  0F00        	mov a,0
 261  011D  1300     R  	adc a,_KeyGpioScan_2[1]
 261  011E  0084        	mov sbp,a
 261  011F  0700     R  	mov a,_KeyGpioScan_2[3]
 261  0120  0082        	mov ir,a
 261  0121  1483        	inc mp
 261  0122  0700     R  	mov a,_KeyGpioScan_2[4]
 261  0123  0082        	mov ir,a
 261  0124              _L20:
 261  0124  0003        	ret
 261  0125              _KeyGpioScan endp
 261  0125              #line 261 "e:\x-sense_svn\xp02\xp02\src\Key.c"
 261  0125              #pragma debug scope 1 1
 261  0125              public _PollingDoubleClickScan
 261  0125              #pragma debug scope 10 1
 273  0125              #line 273 "e:\x-sense_svn\xp02\xp02\src\Key.c"
 273  0000              _PollingDoubleClickScan .section 'code'
 273  0000              _PollingDoubleClickScan proc
 274  0000              #line 274 "e:\x-sense_svn\xp02\xp02\src\Key.c"
 274  0000              	fcall _GetKeyApiTag
 275  0007              #line 275 "e:\x-sense_svn\xp02\xp02\src\Key.c"
 275  0007  0F0B        	mov a,11
 275  0008  0300     E  	add a,ra
 275  0009  0083        	mov mp,a
 275  000A  0F00        	mov a,0
 275  000B  1300     E  	adc a,rb
 275  000C  0084        	mov sbp,a
 275  000D              	fcall _Crom2Prom
 275  0014  0080     E  	mov rd,a
 275  0015  0F02        	mov a,2
 275  0016  0300     E  	add a,rd
 275  0017  0080     E  	mov rf,a
 275  0018  0F00        	mov a,0
 275  0019  1F00     E  	clr rg
 275  001A  1380     E  	adcm a,rg
 275  001B  0F03        	mov a,3
 275  001C  0300     E  	add a,ra
 275  001D  0083        	mov mp,a
文件：Key.c        编译器版本 HGASM 0202 页次12

 275  001E  0F00        	mov a,0
 275  001F  1300     E  	adc a,rb
 275  0020  0084        	mov sbp,a
 275  0021  0700     E  	mov a,rf
 275  0022  0082        	mov ir,a
 275  0023  1483        	inc mp
 275  0024  0700     E  	mov a,rg
 275  0025  0082        	mov ir,a
 275  0026  0003        	ret
 275  0027              _PollingDoubleClickScan endp
 275  0027              #line 275 "e:\x-sense_svn\xp02\xp02\src\Key.c"
 275  0027              #pragma debug scope 1 1
 275  0027              public _PollingKeyScan
 275  0027              #pragma debug scope 11 1
 286  0027              #line 286 "e:\x-sense_svn\xp02\xp02\src\Key.c"
 286  0000              _PollingKeyScan .section 'code'
 286  0000              _PollingKeyScan proc
 287  0000              #line 287 "e:\x-sense_svn\xp02\xp02\src\Key.c"
 287  0000              	fcall _GetKeyClickFlag
 287  0007  0080     E  	mov ra,a
 287  0008  1E00     E  	snz ra
 287  0009  2800     R  	jmp _L31
 289  000A              #line 289 "e:\x-sense_svn\xp02\xp02\src\Key.c"
 289  000A              	fcall _KeyGpioScan
 289  0011              _L31:
 289  0011  0003        	ret
 289  0012              _PollingKeyScan endp
 289  0012              #line 289 "e:\x-sense_svn\xp02\xp02\src\Key.c"
 289  0012              #pragma debug scope 1 1
 289  0012              ___pc equ [27]
 289  0012              public _Key1Handle
 289  0012              #pragma debug scope 12 1
 301  0012              #line 301 "e:\x-sense_svn\xp02\xp02\src\Key.c"
 301  0000              _Key1Handle .section 'code'
 301  0000              _Key1Handle proc
 301  0000              public _Key1Handle_2
 301  0000  0002[           local _Key1Handle_2 db 2 dup(?)	; 2,0
            00
            ]
 301  0002              #pragma debug variable 12 12 _Key1Handle_2+0 "KeyType"
 302  0002              #line 302 "e:\x-sense_svn\xp02\xp02\src\Key.c"
 302  0000  0700     R  	mov a,_Key1Handle_2[0]
 302  0001  0C01        	xor a,1
 302  0002  0500     R  	or a,_Key1Handle_2[1]
 302  0003  3D0A        	sz z
 302  0004  2800     R  	jmp _L38
 302  0005              #line 302 "e:\x-sense_svn\xp02\xp02\src\Key.c"
 302  0005  0700     R  	mov a,_Key1Handle_2[0]
 302  0006  0C03        	xor a,3
 302  0007  0500     R  	or a,_Key1Handle_2[1]
 302  0008  3D0A        	sz z
 302  0009  2800     R  	jmp _L39
 302  000A  0700     R  	mov a,_Key1Handle_2[0]
 302  000B  0C04        	xor a,4
 302  000C  0500     R  	or a,_Key1Handle_2[1]
 302  000D  3D0A        	sz z
 302  000E  2800     R  	jmp _L40
 302  000F  0700     R  	mov a,_Key1Handle_2[0]
 302  0010  0C05        	xor a,5
 302  0011  0500     R  	or a,_Key1Handle_2[1]
文件：Key.c        编译器版本 HGASM 0202 页次13

 302  0012  3D0A        	sz z
 302  0013  2800     R  	jmp _L41
 302  0014  0700     R  	mov a,_Key1Handle_2[0]
 302  0015  0C06        	xor a,6
 302  0016  0500     R  	or a,_Key1Handle_2[1]
 302  0017  390A        	snz z
 302  0018  2800     R  	jmp _L36
 327  0019              #line 327 "e:\x-sense_svn\xp02\xp02\src\Key.c"
 327  0019  0F09        	mov a,9
 327  001A  0080     E  	mov _SysteSetSig_2[0],a
 327  001B  1F00     E  	clr _SysteSetSig_2[1]
 327  001C  2800     R  	jmp _L48
 327  001D              _L39:
 306  001D              #line 306 "e:\x-sense_svn\xp02\xp02\src\Key.c"
 306  001D  0700     E  	mov a,_SysAO[0]
 306  001E  0080     E  	mov rb,a
 306  001F  0700     E  	mov a,_SysAO[1]
 306  0020  0080     E  	mov rc,a
 306  0021  0700     E  	mov a,rb
 306  0022  0C02        	xor a,2
 306  0023  0500     E  	or a,rc
 306  0024  3D0A        	sz z
 306  0025  2800     R  	jmp _L43
 306  0026  0700     E  	mov a,rb
 306  0027  0C07        	xor a,7
 306  0028  0500     E  	or a,rc
 306  0029  390A        	snz z
 306  002A  2800     R  	jmp _L44
 306  002B              _L43:
 308  002B              #line 308 "e:\x-sense_svn\xp02\xp02\src\Key.c"
 308  002B  3514        	clr [20].2
 309  002C              #line 309 "e:\x-sense_svn\xp02\xp02\src\Key.c"
 309  002C  3294        	set [20].5
 309  002D  361B        	clr [27].4
 311  002E              #line 311 "e:\x-sense_svn\xp02\xp02\src\Key.c"
 311  002E  3294        	set [20].5
 311  002F              _L44:
 315  002F              #line 315 "e:\x-sense_svn\xp02\xp02\src\Key.c"
 315  002F  0F06        	mov a,6
 315  0030  0080     E  	mov _SysteSetSig_2[0],a
 315  0031  1F00     E  	clr _SysteSetSig_2[1]
 315  0032  2800     R  	jmp _L48
 315  0033              _L40:
 319  0033              #line 319 "e:\x-sense_svn\xp02\xp02\src\Key.c"
 319  0033  0F07        	mov a,7
 319  0034  0080     E  	mov _SysteSetSig_2[0],a
 319  0035  1F00     E  	clr _SysteSetSig_2[1]
 319  0036  2800     R  	jmp _L48
 319  0037              _L41:
 323  0037              #line 323 "e:\x-sense_svn\xp02\xp02\src\Key.c"
 323  0037  0F08        	mov a,8
 323  0038  0080     E  	mov _SysteSetSig_2[0],a
 323  0039  1F00     E  	clr _SysteSetSig_2[1]
 323  003A  2800     R  	jmp _L48
 323  003B              _L38:
 331  003B              #line 331 "e:\x-sense_svn\xp02\xp02\src\Key.c"
 331  003B  0F0A        	mov a,10
 331  003C  0080     E  	mov _SysteSetSig_2[0],a
 331  003D  1F00     E  	clr _SysteSetSig_2[1]
 331  003E              _L48:
文件：Key.c        编译器版本 HGASM 0202 页次14

 331  003E              	fcall _SysteSetSig
 331  0045              _L36:
 331  0045  0003        	ret
 331  0046              _Key1Handle endp
 331  0046              #line 331 "e:\x-sense_svn\xp02\xp02\src\Key.c"
 331  0046              #pragma debug scope 1 1
 331  0046              public _Key3Handle
 331  0046              #pragma debug scope 13 1
 349  0046              #line 349 "e:\x-sense_svn\xp02\xp02\src\Key.c"
 349  0000              _Key3Handle .section 'code'
 349  0000              _Key3Handle proc
 349  0000              public _Key3Handle_2
 349  0000  0002[           local _Key3Handle_2 db 2 dup(?)	; 2,0
            00
            ]
 349  0002              #pragma debug variable 12 13 _Key3Handle_2+0 "KeyType"
 350  0002              #line 350 "e:\x-sense_svn\xp02\xp02\src\Key.c"
 350  0000  0700     R  	mov a,_Key3Handle_2[0]
 350  0001  0C01        	xor a,1
 350  0002  0500     R  	or a,_Key3Handle_2[1]
 350  0003  3D0A        	sz z
 350  0004  2800     R  	jmp _L51
 350  0005              #line 350 "e:\x-sense_svn\xp02\xp02\src\Key.c"
 350  0005  0700     R  	mov a,_Key3Handle_2[0]
 350  0006  0C03        	xor a,3
 350  0007  0500     R  	or a,_Key3Handle_2[1]
 350  0008  3D0A        	sz z
 350  0009  2800     R  	jmp _L52
 350  000A  0700     R  	mov a,_Key3Handle_2[0]
 350  000B  0C04        	xor a,4
 350  000C  0500     R  	or a,_Key3Handle_2[1]
 350  000D  390A        	snz z
 350  000E  2800     R  	jmp _L49
 357  000F              #line 357 "e:\x-sense_svn\xp02\xp02\src\Key.c"
 357  000F  0F0C        	mov a,12
 357  0010  0080     E  	mov _SysteSetSig_2[0],a
 357  0011  1F00     E  	clr _SysteSetSig_2[1]
 357  0012  2800     R  	jmp _L54
 357  0013              _L52:
 353  0013              #line 353 "e:\x-sense_svn\xp02\xp02\src\Key.c"
 353  0013  0F0B        	mov a,11
 353  0014  0080     E  	mov _SysteSetSig_2[0],a
 353  0015  1F00     E  	clr _SysteSetSig_2[1]
 353  0016  2800     R  	jmp _L54
 353  0017              _L51:
 367  0017              #line 367 "e:\x-sense_svn\xp02\xp02\src\Key.c"
 367  0017  0F0F        	mov a,15
 367  0018  0080     E  	mov _SysteSetSig_2[0],a
 367  0019  1F00     E  	clr _SysteSetSig_2[1]
 367  001A              _L54:
 367  001A              	fcall _SysteSetSig
 367  0021              _L49:
 367  0021  0003        	ret
 367  0022              _Key3Handle endp
 367  0022              #line 367 "e:\x-sense_svn\xp02\xp02\src\Key.c"
 367  0022              #pragma debug scope 1 1
 367  0000              @crom	.section 'crom'
 367  0000              _LC0:
 367  0000              	db 06bh,065h,079h,020h,031h,02ch,020h,025h,064h,0ah
 367  0005              	db 00h
文件：Key.c        编译器版本 HGASM 0202 页次15

 367  0006              @crom	.section 'crom'
 367  0006              _LC1:
 367  0006              	db 06bh,065h,079h,020h,033h,02ch,020h,025h,064h,0ah
 367  000B              	db 00h
 367  000B              public _KeyHandleMsg
 367  000B              #pragma debug scope 14 1
 382  000B              #line 382 "e:\x-sense_svn\xp02\xp02\src\Key.c"
 382  0000              _KeyHandleMsg .section 'code'
 382  0000              _KeyHandleMsg proc
 382  0000  0004[           local _KeyHandleMsg_2 db 4 dup(?)	; 0,4
            00
            ]
 382  0004              #pragma debug struct_end
 382  0004              #pragma debug struct_end
 382  0004              #pragma debug pointer 47 46 14
 382  0004              #pragma debug pointer 47 46 14
 382  0004              #pragma debug variable 47 14 _KeyHandleMsg_2+0 "pKeyApi"
 383  0004              #line 383 "e:\x-sense_svn\xp02\xp02\src\Key.c"
 383  0000              	fcall _GetKeyApiTag
 383  0007  0700     E  	mov a,ra
 383  0008  0080     R  	mov _KeyHandleMsg_2[0],a
 383  0009  0700     E  	mov a,rb
 383  000A  0080     R  	mov _KeyHandleMsg_2[1],a
 385  000B              #line 385 "e:\x-sense_svn\xp02\xp02\src\Key.c"
 385  000B              	fcall _KeyCheck
 386  0012              #line 386 "e:\x-sense_svn\xp02\xp02\src\Key.c"
 386  0012              	fcall _isNewKeyMsg
 386  0019  0700     E  	mov a,ra
 386  001A  0C01        	xor a,1
 386  001B  0500     E  	or a,rb
 386  001C  390A        	snz z
 386  001D  2800     R  	jmp _L55
 388  001E              #line 388 "e:\x-sense_svn\xp02\xp02\src\Key.c"
 388  001E  0F09        	mov a,9
 388  001F  0300     R  	add a,_KeyHandleMsg_2[0]
 388  0020  0080     E  	mov rb,a
 388  0021  0F00        	mov a,0
 388  0022  1300     R  	adc a,_KeyHandleMsg_2[1]
 388  0023  0080     E  	mov rc,a
 388  0024  0700     E  	mov a,rb
 388  0025  0083        	mov mp,a
 388  0026  0700     E  	mov a,rc
 388  0027  0084        	mov sbp,a
 388  0028              	fcall _Crom2Prom
 388  002F  0080     E  	mov rd,a
 388  0030              	fcall _Crom2PromNext
 388  0037  0080     E  	mov re,a
 388  0038  0700     E  	mov a,rd
 388  0039  0C01        	xor a,1
 388  003A  0500     E  	or a,re
 388  003B  3D0A        	sz z
 388  003C  2800     R  	jmp _L58
 388  003D  0700     E  	mov a,rb
 388  003E  0083        	mov mp,a
 388  003F  0700     E  	mov a,rc
 388  0040  0084        	mov sbp,a
 388  0041              	fcall _Crom2Prom
 388  0048  0080     E  	mov rb,a
 388  0049              	fcall _Crom2PromNext
 388  0050  0080     E  	mov rc,a
文件：Key.c        编译器版本 HGASM 0202 页次16

 388  0051  0700     E  	mov a,rb
 388  0052  0C04        	xor a,4
 388  0053  0500     E  	or a,rc
 388  0054  390A        	snz z
 388  0055  2800     R  	jmp _L57
 399  0056              #line 399 "e:\x-sense_svn\xp02\xp02\src\Key.c"
 399  0056  0F03        	mov a,3
 399  0057  0300     R  	add a,_KeyHandleMsg_2[0]
 399  0058  0080     R  	mov _KeyHandleMsg_2[2],a
 399  0059  0F00        	mov a,0
 399  005A  1300     R  	adc a,_KeyHandleMsg_2[1]
 399  005B  0080     R  	mov _KeyHandleMsg_2[3],a
 399  005C  0700     R  	mov a,_KeyHandleMsg_2[2]
 399  005D  0083        	mov mp,a
 399  005E  0700     R  	mov a,_KeyHandleMsg_2[3]
 399  005F  0084        	mov sbp,a
 399  0060              	fcall _Crom2Prom
 399  0067  0080     E  	mov _printf_2[2],a
 399  0068              	fcall _Crom2PromNext
 399  006F  0080     E  	mov _printf_2[3],a
 399  0070  0F00     R  	mov a,low offset _LC1
 399  0071  0080     E  	mov _printf_2[0],a
 399  0072  0F00     R  	mov a,high offset _LC1
 399  0073  0080     E  	mov _printf_2[1],a
 399  0074              	fcall _printf
 400  007B              #line 400 "e:\x-sense_svn\xp02\xp02\src\Key.c"
 400  007B  0700     R  	mov a,_KeyHandleMsg_2[2]
 400  007C  0083        	mov mp,a
 400  007D  0700     R  	mov a,_KeyHandleMsg_2[3]
 400  007E  0084        	mov sbp,a
 400  007F              	fcall _Crom2Prom
 400  0086  0080     R  	mov _Key3Handle_2[0],a
 400  0087              	fcall _Crom2PromNext
 400  008E  0080     R  	mov _Key3Handle_2[1],a
 400  008F              	fcall _Key3Handle
 402  0096              #line 402 "e:\x-sense_svn\xp02\xp02\src\Key.c"
 402  0096  2800     R  	jmp _L57
 402  0097              _L58:
 392  0097              #line 392 "e:\x-sense_svn\xp02\xp02\src\Key.c"
 392  0097  0F03        	mov a,3
 392  0098  0300     R  	add a,_KeyHandleMsg_2[0]
 392  0099  0080     R  	mov _KeyHandleMsg_2[2],a
 392  009A  0F00        	mov a,0
 392  009B  1300     R  	adc a,_KeyHandleMsg_2[1]
 392  009C  0080     R  	mov _KeyHandleMsg_2[3],a
 392  009D  0700     R  	mov a,_KeyHandleMsg_2[2]
 392  009E  0083        	mov mp,a
 392  009F  0700     R  	mov a,_KeyHandleMsg_2[3]
 392  00A0  0084        	mov sbp,a
 392  00A1              	fcall _Crom2Prom
 392  00A8  0080     E  	mov _printf_2[2],a
 392  00A9              	fcall _Crom2PromNext
 392  00B0  0080     E  	mov _printf_2[3],a
 392  00B1  0F00     R  	mov a,low offset _LC0
 392  00B2  0080     E  	mov _printf_2[0],a
 392  00B3  0F00     R  	mov a,high offset _LC0
 392  00B4  0080     E  	mov _printf_2[1],a
 392  00B5              	fcall _printf
 393  00BC              #line 393 "e:\x-sense_svn\xp02\xp02\src\Key.c"
 393  00BC  0700     R  	mov a,_KeyHandleMsg_2[2]
文件：Key.c        编译器版本 HGASM 0202 页次17

 393  00BD  0083        	mov mp,a
 393  00BE  0700     R  	mov a,_KeyHandleMsg_2[3]
 393  00BF  0084        	mov sbp,a
 393  00C0              	fcall _Crom2Prom
 393  00C7  0080     R  	mov _Key1Handle_2[0],a
 393  00C8              	fcall _Crom2PromNext
 393  00CF  0080     R  	mov _Key1Handle_2[1],a
 393  00D0              	fcall _Key1Handle
 393  00D7              _L57:
 408  00D7              #line 408 "e:\x-sense_svn\xp02\xp02\src\Key.c"
 408  00D7  0F0B        	mov a,11
 408  00D8  0300     R  	add a,_KeyHandleMsg_2[0]
 408  00D9  0083        	mov mp,a
 408  00DA  0F00        	mov a,0
 408  00DB  1300     R  	adc a,_KeyHandleMsg_2[1]
 408  00DC  0084        	mov sbp,a
 408  00DD  0F00        	mov a,0
 408  00DE  0082        	mov ir,a
 409  00DF              #line 409 "e:\x-sense_svn\xp02\xp02\src\Key.c"
 409  00DF  0F03        	mov a,3
 409  00E0  0300     R  	add a,_KeyHandleMsg_2[0]
 409  00E1  0083        	mov mp,a
 409  00E2  0F00        	mov a,0
 409  00E3  1300     R  	adc a,_KeyHandleMsg_2[1]
 409  00E4  0084        	mov sbp,a
 409  00E5  1F02        	clr ir
 409  00E6  1483        	inc mp
 409  00E7  1F02        	clr ir
 410  00E8              #line 410 "e:\x-sense_svn\xp02\xp02\src\Key.c"
 410  00E8  0F09        	mov a,9
 410  00E9  0300     R  	add a,_KeyHandleMsg_2[0]
 410  00EA  0083        	mov mp,a
 410  00EB  0F00        	mov a,0
 410  00EC  1300     R  	adc a,_KeyHandleMsg_2[1]
 410  00ED  0084        	mov sbp,a
 410  00EE  0F80        	mov a,128
 410  00EF  0082        	mov ir,a
 410  00F0  1483        	inc mp
 410  00F1  0F00        	mov a,0
 410  00F2  0082        	mov ir,a
 411  00F3              #line 411 "e:\x-sense_svn\xp02\xp02\src\Key.c"
 411  00F3  0F01        	mov a,1
 411  00F4  0080     E  	mov _TmrDeleteTimer_2[0],a
 411  00F5  1F00     E  	clr _TmrDeleteTimer_2[1]
 411  00F6              	fcall _TmrDeleteTimer
 411  00FD              _L55:
 411  00FD  0003        	ret
 411  00FE              _KeyHandleMsg endp
 411  00FE              #line 411 "e:\x-sense_svn\xp02\xp02\src\Key.c"
 411  00FE              #pragma debug scope 1 1
 411  0000              @HCCINIT	.section 'data'
 154  0000              #line 154 "e:\x-sense_svn\xp02\xp02\src\Key.c"
 154  0000              @HCCINIT___flag_3184 .section 'data'
 154  0000              ___flag_3184 label byte
 154  0000              #pragma debug variable 8 7 ___flag_3184 "flag"
 154  0000              	db 0
 154  0000              @ROMDATA_BASE .section inpage 'code'
 154  0000              	db 0
 154  0001              @HCCINIT___flag_3184 .section 'data'
  58  0001              #line 58 "e:\x-sense_svn\xp02\xp02\src\Key.c"
文件：Key.c        编译器版本 HGASM 0202 页次18

  58  0000              @HCCINIT_KeyApiTag .section 'data'
  58  0000              _KeyApiTag label byte
  58  0000              #pragma debug struct_end
  58  0000              #pragma debug struct_end
  58  0000              #pragma debug variable 48 1 _KeyApiTag "KeyApiTag"
  58  0000              	db 0
  58  0001              @ROMDATA_BASE .section inpage 'code'
  58  0001              	db 0
  58  0001              @HCCINIT_KeyApiTag .section 'data'
  58  0001              	db 0
  58  0001              @ROMDATA_BASE .section inpage 'code'
  58  0001              	db 0
  58  0002              @HCCINIT_KeyApiTag .section 'data'
  58  0002              	db 0
  58  0002              @ROMDATA_BASE .section inpage 'code'
  58  0002              	db 0
  58  0003              @HCCINIT_KeyApiTag .section 'data'
  58  0003              	db 0
  58  0002              @ROMDATA_BASE .section inpage 'code'
  58  0002              	db 0
  58  0004              @HCCINIT_KeyApiTag .section 'data'
  58  0004              	db 0
  58  0003              @ROMDATA_BASE .section inpage 'code'
  58  0003              	db 0
  58  0005              @HCCINIT_KeyApiTag .section 'data'
  58  0005              	db 0
  58  0003              @ROMDATA_BASE .section inpage 'code'
  58  0003              	db 0
  58  0006              @HCCINIT_KeyApiTag .section 'data'
  58  0006              	db 0
  58  0004              @ROMDATA_BASE .section inpage 'code'
  58  0004              	db 0
  58  0007              @HCCINIT_KeyApiTag .section 'data'
  58  0007              	db 0
  58  0004              @ROMDATA_BASE .section inpage 'code'
  58  0004              	db 0
  58  0008              @HCCINIT_KeyApiTag .section 'data'
  58  0008              	db 0
  58  0005              @ROMDATA_BASE .section inpage 'code'
  58  0005              	db 0
  58  0009              @HCCINIT_KeyApiTag .section 'data'
  58  0009              	db 0
  58  0005              @ROMDATA_BASE .section inpage 'code'
  58  0005              	db 0
  58  000A              @HCCINIT_KeyApiTag .section 'data'
  58  000A              	db 0
  58  0006              @ROMDATA_BASE .section inpage 'code'
  58  0006              	db 0
  58  000B              @HCCINIT_KeyApiTag .section 'data'
  58  000B              	db 0
  58  0006              @ROMDATA_BASE .section inpage 'code'
  58  0006              	db 0
  58  000C              @HCCINIT_KeyApiTag .section 'data'
  58  000C              #pragma debug struct_end
  58  000C              #pragma debug struct_end
  58  000C              #pragma debug union_end
  58  000C              #pragma debug union_end
  58  000C              #pragma debug variable 50 1 ___pa "__pa" 1
  58  000C              #pragma debug struct_end
  58  000C              #pragma debug struct_end
文件：Key.c        编译器版本 HGASM 0202 页次19

  58  000C              #pragma debug union_end
  58  000C              #pragma debug union_end
  58  000C              #pragma debug variable 52 1 ___pc "__pc" 1
  58  000C              
  58  000C              ; output external variables
  58  000C              extern _SysAO:byte
  58  000C              extern _TmrInsertTimer_2:byte
  58  000C              extern _TmrInsertTimer:near
  58  000C              extern _SysteSetSig_2:byte
  58  000C              extern _SysteSetSig:near
  58  000C              extern _printf_2:byte
  58  000C              extern _printf:near
  58  000C              extern _TmrDeleteTimer_2:byte
  58  000C              extern _TmrDeleteTimer:near
  58  000C              
  58  000C              ; 
  58  000C              ; Generated by holtek-gcc v3.19, Fri Nov 11 18:10:30 2022
  58  000C              ; Rebuild 718
  58  000C              ; end of file


        0 Errors, 0