文件：usart.c      编译器版本 HGASM 0202 页次1


   1  0000              ; Generated by holtek-gcc v3.19, Fri Nov 11 18:10:33 2022
   2  0000              ; 
   3  0000              ; Configuration:
   4  0000              ;       with long instruction
   5  0000              ;       Multi-ROM, Multi-RAM
   6  0000              ;       bits_per_rom_unit:16
   7  0000              ;       with mp1
   8  0000              ;       with tbhp, address(0x9)
   9  0000              ;          Use tabrd-const
  10  0000              ;       
  11  0000              ; SFR address of long-instruction arch:
  12  0000              ;    mp0 = -1,1,0
  13  0000              ;    mp1 = 4,3,2
  14  0000              ;    mp2 = 14,13,12
  15  0000              ;    tbp = 9,7,8
  16  0000              ;    acc = 5
  17  0000              ;    pcl = 6
  18  0000              ;    status = 10
  19  0000              ;    bp = 11
  20  0000              ;    intc = 67
  21  0000              ;       
  22  0000              ;       
  23  0000              ; use 'tabrdc' instead of 'tabrd'
  24  0000              ;       
  25  0000              
  26  0000              #pragma translator "holtek-gcc 4.6.4" "3.19" "build 20130711"
  27  0000              ; Rebuild 718
  28  0000              
  29  0000              ir equ [2]
  30  0000              mp equ [3]
  31  0000              sbp equ [4]
  32  0000              acc equ [5]
  33  0000              bp equ [11]
  34  0000              tblp equ [7]
  35  0000              tbhp equ [9]
  36  0000              status equ [10]
  37  0000              c equ [10].0
  38  0000              ac equ [10].1
  39  0000              z equ [10].2
  40  0000              ov equ [10].3
  41  0000              cz equ [10].6
  42  0000              sc equ [10].7
  43  0000              intc equ [67]
  44  0000              
  45  0000              extern ra:byte
  46  0000              extern rb:byte
  47  0000              extern rc:byte
  48  0000              extern rd:byte
  49  0000              extern re:byte
  50  0000              extern rf:byte
  51  0000              extern rg:byte
  52  0000              extern rh:byte
  53  0000              extern _Crom2Prom:near
  54  0000              extern _Crom2PromNext:near
  55  0000              
  56  0000              RAMBANK 0 @BITDATASEC, @BITDATASEC1
  57  0000              @HCCINIT	.section 'data'
  58  0000              @HCCINIT0	.section 'data'
  59  0000              @BITDATASEC	 .section 'data'
文件：usart.ASM    编译器版本 HGASM 0202 页次2

  60  0000              @BITDATASEC1	 .section 'data'
  61  0000              
  62  0000              #pragma debug scope 1 1
  63  0000              	extern __DELAY3:near
  64  0000              	extern __DELAYX3:near
  65  0000              	extern __DELAYX6:near
  66  0000              	extern __DELAYY5:near
  67  0000              	extern __DELAYY3:near
  68  0000              	extern _builtin_holtek_delay_2:byte
  69  0000              #pragma debug scope 2 1

  21  0000              #line 21 "e:\x-sense_svn\xp02\xp02\src\usart.c"
  21  0000              _sky_itoa .section 'code'
  21  0000              _sky_itoa proc
  21  0000  001F[           local _sky_itoa_2 db 31 dup(?)	; 6,25
            00
            ]
  21  001F              #pragma debug variable 11 2 _sky_itoa_2+0 "value"
  21  001F              #pragma debug pointer 42 7 2
  21  001F              #pragma debug pointer 42 7 2
  21  001F              #pragma debug variable 42 2 _sky_itoa_2+2 "str"
  21  001F              #pragma debug variable 12 2 _sky_itoa_2+4 "radix"
  21  001F              #pragma debug array 43 7 17 2
  21  001F              #pragma debug array 43 7 17 2
  21  001F              #pragma debug variable 43 2 _sky_itoa_2+6 "list"
  22  001F              #line 22 "e:\x-sense_svn\xp02\xp02\src\usart.c"
  22  0000  0F30        	mov a,48
  22  0001  0080     R  	mov _sky_itoa_2[6],a
  22  0002  0F31        	mov a,49
  22  0003  0080     R  	mov _sky_itoa_2[7],a
  22  0004  0F32        	mov a,50
  22  0005  0080     R  	mov _sky_itoa_2[8],a
  22  0006  0F33        	mov a,51
  22  0007  0080     R  	mov _sky_itoa_2[9],a
  22  0008  0F34        	mov a,52
  22  0009  0080     R  	mov _sky_itoa_2[10],a
  22  000A  0F35        	mov a,53
  22  000B  0080     R  	mov _sky_itoa_2[11],a
  22  000C  0F36        	mov a,54
  22  000D  0080     R  	mov _sky_itoa_2[12],a
  22  000E  0F37        	mov a,55
  22  000F  0080     R  	mov _sky_itoa_2[13],a
  22  0010  0F38        	mov a,56
  22  0011  0080     R  	mov _sky_itoa_2[14],a
  22  0012  0F39        	mov a,57
  22  0013  0080     R  	mov _sky_itoa_2[15],a
  22  0014  0F41        	mov a,65
  22  0015  0080     R  	mov _sky_itoa_2[16],a
  22  0016  0F42        	mov a,66
  22  0017  0080     R  	mov _sky_itoa_2[17],a
  22  0018  0F43        	mov a,67
  22  0019  0080     R  	mov _sky_itoa_2[18],a
  22  001A  0F44        	mov a,68
  22  001B  0080     R  	mov _sky_itoa_2[19],a
  22  001C  0F45        	mov a,69
  22  001D  0080     R  	mov _sky_itoa_2[20],a
  22  001E  0F46        	mov a,70
  22  001F  0080     R  	mov _sky_itoa_2[21],a
  22  0020  1F00     R  	clr _sky_itoa_2[22]
  28  0021              #line 28 "e:\x-sense_svn\xp02\xp02\src\usart.c"
文件：usart.c      编译器版本 HGASM 0202 页次3

  28  0021  0700     R  	mov a,_sky_itoa_2[2]
  28  0022  0500     R  	or a,_sky_itoa_2[3]
  28  0023  3D0A        	sz z
  28  0024  2800     R  	jmp _L11
  33  0025              #line 33 "e:\x-sense_svn\xp02\xp02\src\usart.c"
  33  0025  0700     R  	mov a,_sky_itoa_2[4]
  33  0026  0C02        	xor a,2
  33  0027  0500     R  	or a,_sky_itoa_2[5]
  33  0028  3D0A        	sz z
  33  0029  2800     R  	jmp _L3
  33  002A  0700     R  	mov a,_sky_itoa_2[4]
  33  002B  0C08        	xor a,8
  33  002C  0500     R  	or a,_sky_itoa_2[5]
  33  002D  3D0A        	sz z
  33  002E  2800     R  	jmp _L3
  33  002F  0700     R  	mov a,_sky_itoa_2[4]
  33  0030  0C0A        	xor a,10
  33  0031  0500     R  	or a,_sky_itoa_2[5]
  33  0032  3D0A        	sz z
  33  0033  2800     R  	jmp _L4
  33  0034  0700     R  	mov a,_sky_itoa_2[4]
  33  0035  0C10        	xor a,16
  33  0036  0500     R  	or a,_sky_itoa_2[5]
  33  0037  3D0A        	sz z
  33  0038  2800     R  	jmp _L3
  33  0039  2800     R  	jmp _L11
  33  003A              _L4:
  38  003A              #line 38 "e:\x-sense_svn\xp02\xp02\src\usart.c"
  38  003A  3800     R  	snz _sky_itoa_2[1].7
  38  003B  2800     R  	jmp _L3
  41  003C              #line 41 "e:\x-sense_svn\xp02\xp02\src\usart.c"
  41  003C  0F00        	mov a,0
  41  003D  0200     R  	sub a,_sky_itoa_2[0]
  41  003E  0080     E  	mov ra,a
  41  003F  0F00        	mov a,0
  41  0040  1200     R  	sbc a,_sky_itoa_2[1]
  41  0041  0080     E  	mov rb,a
  41  0042  0700     E  	mov a,ra
  41  0043  0080     E  	mov rd,a
  41  0044  0700     E  	mov a,rb
  41  0045  0080     E  	mov re,a
  43  0046              #line 43 "e:\x-sense_svn\xp02\xp02\src\usart.c"
  43  0046  0700     R  	mov a,_sky_itoa_2[2]
  43  0047  0083        	mov mp,a
  43  0048  0700     R  	mov a,_sky_itoa_2[3]
  43  0049  0084        	mov sbp,a
  43  004A  0F2D        	mov a,45
  43  004B  0082        	mov ir,a
  43  004C  0F01        	mov a,1
  43  004D  0080     E  	mov rf,a
  43  004E  1F00     E  	clr rg
  44  004F              #line 44 "e:\x-sense_svn\xp02\xp02\src\usart.c"
  44  004F  2800     R  	jmp _L5
  44  0050              _L3:
  48  0050              #line 48 "e:\x-sense_svn\xp02\xp02\src\usart.c"
  48  0050  0700     R  	mov a,_sky_itoa_2[0]
  48  0051  0080     E  	mov rd,a
  48  0052  0700     R  	mov a,_sky_itoa_2[1]
  48  0053  0080     E  	mov re,a
  26  0054              #line 26 "e:\x-sense_svn\xp02\xp02\src\usart.c"
文件：usart.c      编译器版本 HGASM 0202 页次4

  26  0054  1F00     E  	clr rf
  26  0055  1F00     E  	clr rg
  26  0056              _L5:
  26  0056  0700     E  	mov a,rf
  26  0057  0080     R  	mov _sky_itoa_2[29],a
  26  0058  0700     E  	mov a,rg
  26  0059  0080     R  	mov _sky_itoa_2[30],a
  55  005A              #line 55 "e:\x-sense_svn\xp02\xp02\src\usart.c"
  55  005A  0F00     R  	mov a,low offset _sky_itoa_2
  55  005B  0080     E  	mov ra,a
  55  005C  0F00     R  	mov a,high offset _sky_itoa_2
  55  005D  0080     E  	mov rb,a
  55  005E  0F06        	mov a,6
  55  005F  0300     E  	add a,ra
  55  0060  0080     R  	mov _sky_itoa_2[27],a
  55  0061  0F00        	mov a,0
  55  0062  1300     E  	adc a,rb
  55  0063  0080     R  	mov _sky_itoa_2[28],a
  55  0064              _L7:
  55  0064  1480     R  	inc _sky_itoa_2[29]
  55  0065  3D0A        	sz z
  55  0066  1480     R  	inc _sky_itoa_2[30]
  55  0067  0700     R  	mov a,_sky_itoa_2[29]
  55  0068  0300     R  	add a,_sky_itoa_2[2]
  55  0069  0080     E  	mov rb,a
  55  006A  0700     R  	mov a,_sky_itoa_2[30]
  55  006B  1300     R  	adc a,_sky_itoa_2[3]
  55  006C  0080     E  	mov rc,a
  55  006D  1F00     E  	clr _builtin_holtek_udivmodhi4_2[6]
  55  006E  0700     E  	mov a,rd  
  55  006F  0080     E  	mov _builtin_holtek_udivmodhi4_2[0],a  
  55  0070  0700     E  	mov a,re  
  55  0071  0080     E  	mov _builtin_holtek_udivmodhi4_2[1],a
  55  0072  0700     R  	mov a,_sky_itoa_2[4]  
  55  0073  0080     E  	mov _builtin_holtek_udivmodhi4_2[2],a  
  55  0074  0700     R  	mov a,_sky_itoa_2[5]  
  55  0075  0080     E  	mov _builtin_holtek_udivmodhi4_2[3],a
  55  0076              	fcall _builtin_holtek_udivmodhi4
  55  007D  0700     E  	mov a,_builtin_holtek_udivmodhi4_2[4]  
  55  007E  0080     R  	mov _sky_itoa_2[25],a  
  55  007F  0700     E  	mov a,_builtin_holtek_udivmodhi4_2[5]  
  55  0080  0080     R  	mov _sky_itoa_2[26],a
  55  0081  0700     R  	mov a,_sky_itoa_2[25]
  55  0082  0300     R  	add a,_sky_itoa_2[27]
  55  0083  0083        	mov mp,a
  55  0084  0700     R  	mov a,_sky_itoa_2[26]
  55  0085  1300     R  	adc a,_sky_itoa_2[28]
  55  0086  0084        	mov sbp,a
  55  0087              	fcall _Crom2Prom
  55  008E  0080     E  	mov ra,a
  55  008F  0FFF        	mov a,255
  55  0090  0300     E  	add a,rb
  55  0091  0083        	mov mp,a
  55  0092  0FFF        	mov a,255
  55  0093  1300     E  	adc a,rc
  55  0094  0084        	mov sbp,a
  55  0095  0700     E  	mov a,ra
  55  0096  0082        	mov ir,a
  56  0097              #line 56 "e:\x-sense_svn\xp02\xp02\src\usart.c"
  56  0097  1F00     E  	clr _builtin_holtek_udivmodhi4_2[6]
文件：usart.c      编译器版本 HGASM 0202 页次5

  56  0098  0700     E  	mov a,rd  
  56  0099  0080     E  	mov _builtin_holtek_udivmodhi4_2[0],a  
  56  009A  0700     E  	mov a,re  
  56  009B  0080     E  	mov _builtin_holtek_udivmodhi4_2[1],a
  56  009C  0700     R  	mov a,_sky_itoa_2[4]  
  56  009D  0080     E  	mov _builtin_holtek_udivmodhi4_2[2],a  
  56  009E  0700     R  	mov a,_sky_itoa_2[5]  
  56  009F  0080     E  	mov _builtin_holtek_udivmodhi4_2[3],a
  56  00A0              	fcall _builtin_holtek_udivmodhi4
  56  00A7  0700     E  	mov a,_builtin_holtek_udivmodhi4_2[0]  
  56  00A8  0080     E  	mov rd,a  
  56  00A9  0700     E  	mov a,_builtin_holtek_udivmodhi4_2[1]  
  56  00AA  0080     E  	mov re,a
  57  00AB              #line 57 "e:\x-sense_svn\xp02\xp02\src\usart.c"
  57  00AB  0700     E  	mov a,rd
  57  00AC  0500     E  	or a,re
  57  00AD  390A        	snz z
  57  00AE  2800     R  	jmp _L7
  59  00AF              #line 59 "e:\x-sense_svn\xp02\xp02\src\usart.c"
  59  00AF  0700     R  	mov a,_sky_itoa_2[29]
  59  00B0  0300     R  	add a,_sky_itoa_2[2]
  59  00B1  0080     R  	mov _sky_itoa_2[25],a
  59  00B2  0700     R  	mov a,_sky_itoa_2[30]
  59  00B3  1300     R  	adc a,_sky_itoa_2[3]
  59  00B4  0080     R  	mov _sky_itoa_2[26],a
  59  00B5  0700     R  	mov a,_sky_itoa_2[25]
  59  00B6  0083        	mov mp,a
  59  00B7  0700     R  	mov a,_sky_itoa_2[26]
  59  00B8  0084        	mov sbp,a
  59  00B9  0F00        	mov a,0
  59  00BA  0082        	mov ir,a
  63  00BB              #line 63 "e:\x-sense_svn\xp02\xp02\src\usart.c"
  63  00BB  0700     E  	mov a,rf
  63  00BC  0300     R  	add a,_sky_itoa_2[29]
  63  00BD  0080     E  	mov rb,a
  63  00BE  0700     E  	mov a,rg
  63  00BF  1300     R  	adc a,_sky_itoa_2[30]
  63  00C0  0080     E  	mov rc,a
  63  00C1  0700     E  	mov a,rb
  63  00C2  0080     E  	mov rd,a
  63  00C3  0700     E  	mov a,rc
  63  00C4  0080     E  	mov re,a
  63  00C5  1A80     E  	rlc re
  63  00C6  1F00     E  	clr rd
  63  00C7  1A80     E  	rlc rd
  63  00C8  1F00     E  	clr re
  63  00C9  0700     E  	mov a,rd
  63  00CA  0300     E  	add a,rb
  63  00CB  0080     R  	mov _sky_itoa_2[29],a
  63  00CC  0700     E  	mov a,re
  63  00CD  1300     E  	adc a,rc
  63  00CE  0080     R  	mov _sky_itoa_2[30],a
  63  00CF  1A00     R  	rlca _sky_itoa_2[30]
  63  00D0  1B80     R  	rrc _sky_itoa_2[30]
  63  00D1  1B80     R  	rrc _sky_itoa_2[29]
  63  00D2  1F00     E  	clr rd
  63  00D3  1F00     E  	clr re
  63  00D4              _L8:
  63  00D4  1480     E  	inc rd
  63  00D5  3D0A        	sz z
文件：usart.c      编译器版本 HGASM 0202 页次6

  63  00D6  1480     E  	inc re
  63  00D7  0700     E  	mov a,rf
  63  00D8  0200     R  	sub a,_sky_itoa_2[29]
  63  00D9  0700     E  	mov a,rg
  63  00DA  1200     R  	sbc a,_sky_itoa_2[30]
  63  00DB  3B8A        	snz sc
  63  00DC  2800     R  	jmp _L13
  63  00DD  0700     E  	mov a,rf
  63  00DE  0300     R  	add a,_sky_itoa_2[2]
  63  00DF  0080     R  	mov _sky_itoa_2[27],a
  63  00E0  0700     E  	mov a,rg
  63  00E1  1300     R  	adc a,_sky_itoa_2[3]
  63  00E2  0080     R  	mov _sky_itoa_2[28],a
  65  00E3              #line 65 "e:\x-sense_svn\xp02\xp02\src\usart.c"
  65  00E3  0700     R  	mov a,_sky_itoa_2[27]
  65  00E4  0083        	mov mp,a
  65  00E5  0700     R  	mov a,_sky_itoa_2[28]
  65  00E6  0084        	mov sbp,a
  65  00E7              	fcall _Crom2Prom
  65  00EE  0080     E  	mov rh,a
  65  00EF  0700     R  	mov a,_sky_itoa_2[25]
  65  00F0  0200     E  	sub a,rd
  65  00F1  0080     E  	mov ra,a
  65  00F2  0700     R  	mov a,_sky_itoa_2[26]
  65  00F3  1200     E  	sbc a,re
  65  00F4  0080     E  	mov rb,a
  65  00F5  0700     E  	mov a,ra
  65  00F6  0080     R  	mov _sky_itoa_2[23],a
  65  00F7  0700     E  	mov a,rb
  65  00F8  0080     R  	mov _sky_itoa_2[24],a
  66  00F9              #line 66 "e:\x-sense_svn\xp02\xp02\src\usart.c"
  66  00F9  0700     E  	mov a,ra
  66  00FA  0083        	mov mp,a
  66  00FB  0700     E  	mov a,rb
  66  00FC  0084        	mov sbp,a
  66  00FD              	fcall _Crom2Prom
  66  0104  0080     E  	mov ra,a
  66  0105  0700     R  	mov a,_sky_itoa_2[27]
  66  0106  0083        	mov mp,a
  66  0107  0700     R  	mov a,_sky_itoa_2[28]
  66  0108  0084        	mov sbp,a
  66  0109  0700     E  	mov a,ra
  66  010A  0082        	mov ir,a
  67  010B              #line 67 "e:\x-sense_svn\xp02\xp02\src\usart.c"
  67  010B  0700     R  	mov a,_sky_itoa_2[23]
  67  010C  0083        	mov mp,a
  67  010D  0700     R  	mov a,_sky_itoa_2[24]
  67  010E  0084        	mov sbp,a
  67  010F  0700     E  	mov a,rh
  67  0110  0082        	mov ir,a
  63  0111              #line 63 "e:\x-sense_svn\xp02\xp02\src\usart.c"
  63  0111  1480     E  	inc rf
  63  0112  3D0A        	sz z
  63  0113  1480     E  	inc rg
  63  0114  2800     R  	jmp _L8
  63  0115              _L13:
  63  0115  0700     R  	mov a,_sky_itoa_2[2]
  63  0116  0080     E  	mov ra,a
  63  0117  0700     R  	mov a,_sky_itoa_2[3]
  63  0118  0080     E  	mov rb,a
文件：usart.c      编译器版本 HGASM 0202 页次7

  63  0119  2800     R  	jmp _L2
  63  011A              _L11:
  30  011A              #line 30 "e:\x-sense_svn\xp02\xp02\src\usart.c"
  30  011A  1F00     E  	clr ra
  30  011B  1F00     E  	clr rb
  30  011C              _L2:
  30  011C  0003        	ret
  30  011D              _sky_itoa endp
  30  011D              #line 30 "e:\x-sense_svn\xp02\xp02\src\usart.c"
  30  011D              #pragma debug scope 1 1
  30  011D              ___txr_rxr0 equ [93]
  30  011D              ___u0sr equ [89]
  30  011D              public _printf
  30  011D              #pragma debug scope 3 1
  81  011D              #line 81 "e:\x-sense_svn\xp02\xp02\src\usart.c"
  81  0000              _printf .section 'code'
  81  0000              _printf proc
  81  0000              public _printf_2
  81  0000  0016[           local _printf_2 db 22 dup(?)	; 2,20
            00
            ]
  81  0016              #pragma debug pointer 44 7 3
  81  0016              #pragma debug pointer 44 7 3
  81  0016              #pragma debug variable 44 3 _printf_2+0 "Data"
  81  0016              #pragma debug array 45 7 16 3
  81  0016              #pragma debug array 45 7 16 3
  81  0016              #pragma debug variable 45 3 _printf_2+2 "buf"
  87  0016              #line 87 "e:\x-sense_svn\xp02\xp02\src\usart.c"
  87  0000  0F00     R  	mov a,low offset _printf_2
  87  0001  0080     E  	mov rb,a
  87  0002  0F00     R  	mov a,high offset _printf_2
  87  0003  0080     E  	mov rc,a
  87  0004  0F02        	mov a,2
  87  0005  0380     E  	addm a,rb
  87  0006  0F00        	mov a,0
  87  0007  1380     E  	adcm a,rc
  88  0008              #line 88 "e:\x-sense_svn\xp02\xp02\src\usart.c"
  88  0008  2800     R  	jmp _L15
  88  0009              _L44:
  90  0009              #line 90 "e:\x-sense_svn\xp02\xp02\src\usart.c"
  90  0009  0700     R  	mov a,_printf_2[18]
  90  000A  0A5C        	sub a,92
  90  000B  390A        	snz z
  90  000C  2800     R  	jmp _L16
  92  000D              #line 92 "e:\x-sense_svn\xp02\xp02\src\usart.c"
  92  000D  0F01        	mov a,1
  92  000E  0300     R  	add a,_printf_2[20]
  92  000F  0080     R  	mov _printf_2[0],a
  92  0010  0F00        	mov a,0
  92  0011  1300     R  	adc a,_printf_2[21]
  92  0012  0080     R  	mov _printf_2[1],a
  92  0013  0700     R  	mov a,_printf_2[0]
  92  0014  0083        	mov mp,a
  92  0015  0700     R  	mov a,_printf_2[1]
  92  0016  0084        	mov sbp,a
  92  0017              	fcall _Crom2Prom
  92  001E  0080     R  	mov _printf_2[18],a
  92  001F  0700     R  	mov a,_printf_2[18]
  92  0020  0A6E        	sub a,110
  92  0021  3D0A        	sz z
文件：usart.c      编译器版本 HGASM 0202 页次8

  92  0022  2800     R  	jmp _L18
  92  0023  0700     R  	mov a,_printf_2[18]
  92  0024  0A72        	sub a,114
  92  0025  390A        	snz z
  92  0026  2800     R  	jmp _L46
  96  0027              #line 96 "e:\x-sense_svn\xp02\xp02\src\usart.c"
  96  0027  0F0D        	mov a,13
  96  0028  00DD        	mov [93],a
  96  0029              _L21:
  96  0029  38D9        	snz [89].1
  96  002A  2800     R  	jmp _L21
  96  002B  2800     R  	jmp _L46
  96  002C              _L18:
 102  002C              #line 102 "e:\x-sense_svn\xp02\xp02\src\usart.c"
 102  002C  0F0A        	mov a,10
 102  002D  00DD        	mov [93],a
 102  002E              _L24:
 102  002E  38D9        	snz [89].1
 102  002F  2800     R  	jmp _L24
 102  0030  2800     R  	jmp _L46
 102  0031              _L16:
 112  0031              #line 112 "e:\x-sense_svn\xp02\xp02\src\usart.c"
 112  0031  0700     R  	mov a,_printf_2[18]
 112  0032  0A25        	sub a,37
 112  0033  390A        	snz z
 112  0034  2800     R  	jmp _L25
 114  0035              #line 114 "e:\x-sense_svn\xp02\xp02\src\usart.c"
 114  0035  0F01        	mov a,1
 114  0036  0300     R  	add a,_printf_2[20]
 114  0037  0080     R  	mov _printf_2[0],a
 114  0038  0F00        	mov a,0
 114  0039  1300     R  	adc a,_printf_2[21]
 114  003A  0080     R  	mov _printf_2[1],a
 114  003B  0700     R  	mov a,_printf_2[0]
 114  003C  0083        	mov mp,a
 114  003D  0700     R  	mov a,_printf_2[1]
 114  003E  0084        	mov sbp,a
 114  003F              	fcall _Crom2Prom
 114  0046  0080     R  	mov _printf_2[18],a
 114  0047  0700     R  	mov a,_printf_2[18]
 114  0048  0A64        	sub a,100
 114  0049  3D0A        	sz z
 114  004A  2800     R  	jmp _L27
 114  004B  0A0F        	sub a,(115)-(100)
 114  004C  3D0A        	sz z
 114  004D  2800     R  	jmp _L28
 114  004E  0700     R  	mov a,_printf_2[18]
 114  004F  0A78        	sub a,120
 114  0050  390A        	snz z
 114  0051  2800     R  	jmp _L46
 136  0052              #line 136 "e:\x-sense_svn\xp02\xp02\src\usart.c"
 136  0052  0F02        	mov a,2
 136  0053  0300     E  	add a,rb
 136  0054  0080     R  	mov _printf_2[18],a
 136  0055  0F00        	mov a,0
 136  0056  1300     E  	adc a,rc
 136  0057  0080     R  	mov _printf_2[19],a
 137  0058              #line 137 "e:\x-sense_svn\xp02\xp02\src\usart.c"
 137  0058  0F10        	mov a,16
 137  0059  0080     R  	mov _sky_itoa_2[4],a
文件：usart.c      编译器版本 HGASM 0202 页次9

 137  005A  1F00     R  	clr _sky_itoa_2[5]
 137  005B  0F00     R  	mov a,low offset _printf_2
 137  005C  0080     E  	mov rd,a
 137  005D  0F00     R  	mov a,high offset _printf_2
 137  005E  0080     E  	mov re,a
 137  005F  0F02        	mov a,2
 137  0060  0300     E  	add a,rd
 137  0061  0080     R  	mov _sky_itoa_2[2],a
 137  0062  0F00        	mov a,0
 137  0063  1300     E  	adc a,re
 137  0064  0080     R  	mov _sky_itoa_2[3],a
 137  0065  0700     E  	mov a,rb
 137  0066  0083        	mov mp,a
 137  0067  0700     E  	mov a,rc
 137  0068  0084        	mov sbp,a
 137  0069              	fcall _Crom2Prom
 137  0070  0080     R  	mov _sky_itoa_2[0],a
 137  0071              	fcall _Crom2PromNext
 137  0078  0080     R  	mov _sky_itoa_2[1],a
 137  0079              	fcall _sky_itoa
 138  0080              #line 138 "e:\x-sense_svn\xp02\xp02\src\usart.c"
 138  0080  0F00     R  	mov a,low offset _printf_2
 138  0081  0080     E  	mov rb,a
 138  0082  0F00     R  	mov a,high offset _printf_2
 138  0083  0080     E  	mov rc,a
 138  0084  0F02        	mov a,2
 138  0085  0380     E  	addm a,rb
 138  0086  0F00        	mov a,0
 138  0087  1380     E  	adcm a,rc
 138  0088  2800     R  	jmp _L38
 138  0089              _L28:
 117  0089              #line 117 "e:\x-sense_svn\xp02\xp02\src\usart.c"
 117  0089  0F02        	mov a,2
 117  008A  0300     E  	add a,rb
 117  008B  0080     E  	mov rd,a
 117  008C  0F00        	mov a,0
 117  008D  1300     E  	adc a,rc
 117  008E  0080     E  	mov re,a
 117  008F  0700     E  	mov a,rb
 117  0090  0083        	mov mp,a
 117  0091  0700     E  	mov a,rc
 117  0092  0084        	mov sbp,a
 117  0093              	fcall _Crom2Prom
 117  009A  0080     E  	mov rb,a
 117  009B              	fcall _Crom2PromNext
 117  00A2  0080     E  	mov rc,a
 117  00A3              _L30:
 118  00A3              #line 118 "e:\x-sense_svn\xp02\xp02\src\usart.c"
 118  00A3  0700     E  	mov a,rb
 118  00A4  0083        	mov mp,a
 118  00A5  0700     E  	mov a,rc
 118  00A6  0084        	mov sbp,a
 118  00A7              	fcall _Crom2Prom
 118  00AE  0080     E  	mov ra,a
 118  00AF  1E00     E  	snz ra
 118  00B0  2800     R  	jmp _L49
 120  00B1              #line 120 "e:\x-sense_svn\xp02\xp02\src\usart.c"
 120  00B1  0700     E  	mov a,ra
 120  00B2  00DD        	mov [93],a
 120  00B3              _L32:
文件：usart.c      编译器版本 HGASM 0202 页次10

 120  00B3  38D9        	snz [89].1
 120  00B4  2800     R  	jmp _L32
 118  00B5              #line 118 "e:\x-sense_svn\xp02\xp02\src\usart.c"
 118  00B5  1480     E  	inc rb
 118  00B6  3D0A        	sz z
 118  00B7  1480     E  	inc rc
 118  00B8  2800     R  	jmp _L30
 118  00B9              _L49:
 122  00B9              #line 122 "e:\x-sense_svn\xp02\xp02\src\usart.c"
 122  00B9  0F02        	mov a,2
 122  00BA  0300     R  	add a,_printf_2[20]
 122  00BB  0080     R  	mov _printf_2[0],a
 122  00BC  0F00        	mov a,0
 122  00BD  1300     R  	adc a,_printf_2[21]
 122  00BE  0080     R  	mov _printf_2[1],a
 117  00BF              #line 117 "e:\x-sense_svn\xp02\xp02\src\usart.c"
 117  00BF  0700     E  	mov a,rd
 117  00C0  0080     E  	mov rb,a
 117  00C1  0700     E  	mov a,re
 117  00C2  0080     E  	mov rc,a
 123  00C3              #line 123 "e:\x-sense_svn\xp02\xp02\src\usart.c"
 123  00C3  2800     R  	jmp _L15
 123  00C4              _L27:
 126  00C4              #line 126 "e:\x-sense_svn\xp02\xp02\src\usart.c"
 126  00C4  0F02        	mov a,2
 126  00C5  0300     E  	add a,rb
 126  00C6  0080     R  	mov _printf_2[18],a
 126  00C7  0F00        	mov a,0
 126  00C8  1300     E  	adc a,rc
 126  00C9  0080     R  	mov _printf_2[19],a
 127  00CA              #line 127 "e:\x-sense_svn\xp02\xp02\src\usart.c"
 127  00CA  0F0A        	mov a,10
 127  00CB  0080     R  	mov _sky_itoa_2[4],a
 127  00CC  1F00     R  	clr _sky_itoa_2[5]
 127  00CD  0F00     R  	mov a,low offset _printf_2
 127  00CE  0080     E  	mov rd,a
 127  00CF  0F00     R  	mov a,high offset _printf_2
 127  00D0  0080     E  	mov re,a
 127  00D1  0F02        	mov a,2
 127  00D2  0300     E  	add a,rd
 127  00D3  0080     R  	mov _sky_itoa_2[2],a
 127  00D4  0F00        	mov a,0
 127  00D5  1300     E  	adc a,re
 127  00D6  0080     R  	mov _sky_itoa_2[3],a
 127  00D7  0700     E  	mov a,rb
 127  00D8  0083        	mov mp,a
 127  00D9  0700     E  	mov a,rc
 127  00DA  0084        	mov sbp,a
 127  00DB              	fcall _Crom2Prom
 127  00E2  0080     R  	mov _sky_itoa_2[0],a
 127  00E3              	fcall _Crom2PromNext
 127  00EA  0080     R  	mov _sky_itoa_2[1],a
 127  00EB              	fcall _sky_itoa
 128  00F2              #line 128 "e:\x-sense_svn\xp02\xp02\src\usart.c"
 128  00F2  0F00     R  	mov a,low offset _printf_2
 128  00F3  0080     E  	mov rb,a
 128  00F4  0F00     R  	mov a,high offset _printf_2
 128  00F5  0080     E  	mov rc,a
 128  00F6  0F02        	mov a,2
 128  00F7  0380     E  	addm a,rb
文件：usart.c      编译器版本 HGASM 0202 页次11

 128  00F8  0F00        	mov a,0
 128  00F9  1380     E  	adcm a,rc
 128  00FA              _L34:
 128  00FA  0700     E  	mov a,rb
 128  00FB  0083        	mov mp,a
 128  00FC  0700     E  	mov a,rc
 128  00FD  0084        	mov sbp,a
 128  00FE              	fcall _Crom2Prom
 128  0105  0080     E  	mov ra,a
 128  0106  1E00     E  	snz ra
 128  0107  2800     R  	jmp _L48
 129  0108              #line 129 "e:\x-sense_svn\xp02\xp02\src\usart.c"
 129  0108  0700     E  	mov a,ra
 129  0109  00DD        	mov [93],a
 129  010A              _L36:
 129  010A  38D9        	snz [89].1
 129  010B  2800     R  	jmp _L36
 128  010C              #line 128 "e:\x-sense_svn\xp02\xp02\src\usart.c"
 128  010C  1480     E  	inc rb
 128  010D  3D0A        	sz z
 128  010E  1480     E  	inc rc
 128  010F  2800     R  	jmp _L34
 128  0110              _L40:
 140  0110              #line 140 "e:\x-sense_svn\xp02\xp02\src\usart.c"
 140  0110  38D9        	snz [89].1
 140  0111  2800     R  	jmp _L40
 138  0112              #line 138 "e:\x-sense_svn\xp02\xp02\src\usart.c"
 138  0112  1480     E  	inc rb
 138  0113  3D0A        	sz z
 138  0114  1480     E  	inc rc
 138  0115              _L38:
 138  0115  0700     E  	mov a,rb
 138  0116  0083        	mov mp,a
 138  0117  0700     E  	mov a,rc
 138  0118  0084        	mov sbp,a
 138  0119              	fcall _Crom2Prom
 138  0120  0080     E  	mov ra,a
 138  0121  1E00     E  	snz ra
 138  0122  2800     R  	jmp _L48
 140  0123              #line 140 "e:\x-sense_svn\xp02\xp02\src\usart.c"
 140  0123  0700     E  	mov a,ra
 140  0124  00DD        	mov [93],a
 140  0125  2800     R  	jmp _L40
 140  0126              _L48:
 142  0126              #line 142 "e:\x-sense_svn\xp02\xp02\src\usart.c"
 142  0126  0F02        	mov a,2
 142  0127  0300     R  	add a,_printf_2[20]
 142  0128  0080     R  	mov _printf_2[0],a
 142  0129  0F00        	mov a,0
 142  012A  1300     R  	adc a,_printf_2[21]
 142  012B  0080     R  	mov _printf_2[1],a
 136  012C              #line 136 "e:\x-sense_svn\xp02\xp02\src\usart.c"
 136  012C  0700     R  	mov a,_printf_2[18]
 136  012D  0080     E  	mov rb,a
 136  012E  0700     R  	mov a,_printf_2[19]
 136  012F  0080     E  	mov rc,a
 143  0130              #line 143 "e:\x-sense_svn\xp02\xp02\src\usart.c"
 143  0130  2800     R  	jmp _L15
 143  0131              _L46:
 160  0131              #line 160 "e:\x-sense_svn\xp02\xp02\src\usart.c"
文件：usart.c      编译器版本 HGASM 0202 页次12

 160  0131  0F02        	mov a,2
 160  0132  0300     R  	add a,_printf_2[20]
 160  0133  0080     R  	mov _printf_2[0],a
 160  0134  0F00        	mov a,0
 160  0135  1300     R  	adc a,_printf_2[21]
 160  0136  0080     R  	mov _printf_2[1],a
 161  0137              #line 161 "e:\x-sense_svn\xp02\xp02\src\usart.c"
 161  0137  2800     R  	jmp _L15
 161  0138              _L25:
 168  0138              #line 168 "e:\x-sense_svn\xp02\xp02\src\usart.c"
 168  0138  0700     R  	mov a,_printf_2[18]
 168  0139  00DD        	mov [93],a
 168  013A              _L43:
 168  013A  38D9        	snz [89].1
 168  013B  2800     R  	jmp _L43
 169  013C              #line 169 "e:\x-sense_svn\xp02\xp02\src\usart.c"
 169  013C  0F01        	mov a,1
 169  013D  0300     R  	add a,_printf_2[20]
 169  013E  0080     R  	mov _printf_2[0],a
 169  013F  0F00        	mov a,0
 169  0140  1300     R  	adc a,_printf_2[21]
 169  0141  0080     R  	mov _printf_2[1],a
 169  0142              _L15:
  88  0142              #line 88 "e:\x-sense_svn\xp02\xp02\src\usart.c"
  88  0142  0700     R  	mov a,_printf_2[0]
  88  0143  0080     R  	mov _printf_2[20],a
  88  0144  0700     R  	mov a,_printf_2[1]
  88  0145  0080     R  	mov _printf_2[21],a
  88  0146  0700     R  	mov a,_printf_2[20]
  88  0147  0083        	mov mp,a
  88  0148  0700     R  	mov a,_printf_2[21]
  88  0149  0084        	mov sbp,a
  88  014A              	fcall _Crom2Prom
  88  0151  0080     R  	mov _printf_2[18],a
  88  0152  1080     R  	sz _printf_2[18]
  88  0153  2800     R  	jmp _L44
  88  0154  0003        	ret
  88  0155              _printf endp
  88  0155              #line 88 "e:\x-sense_svn\xp02\xp02\src\usart.c"
  88  0155              #pragma debug scope 1 1
  88  0155              ___intc3 equ [70]
  88  0155              ___mfi3 equ [74]
  88  0155              ___u0cr1 equ [90]
  88  0155              ___brg0 equ [94]
  88  0155              ___u0cr2 equ [91]
  88  0155              public _UsartCfg
  88  0155              #pragma debug scope 4 1
 188  0155              #line 188 "e:\x-sense_svn\xp02\xp02\src\usart.c"
 188  0000              _UsartCfg .section 'code'
 188  0000              _UsartCfg proc
 190  0000              #line 190 "e:\x-sense_svn\xp02\xp02\src\usart.c"
 190  0000  3046        	set [70].0
 191  0001              #line 191 "e:\x-sense_svn\xp02\xp02\src\usart.c"
 191  0001  314A        	set [74].2
 192  0002              #line 192 "e:\x-sense_svn\xp02\xp02\src\usart.c"
 192  0002  33DA        	set [90].7
 193  0003              #line 193 "e:\x-sense_svn\xp02\xp02\src\usart.c"
 193  0003  0F19        	mov a,25
 193  0004  00DE        	mov [94],a
 211  0005              #line 211 "e:\x-sense_svn\xp02\xp02\src\usart.c"
文件：usart.c      编译器版本 HGASM 0202 页次13

 211  0005  0FEC        	mov a,236
 211  0006  05DB        	orm a,[91]
 221  0007              #line 221 "e:\x-sense_svn\xp02\xp02\src\usart.c"
 221  0007  35DB        	clr [91].3
 221  0008  0003        	ret
 221  0009              _UsartCfg endp
 221  0009              #line 221 "e:\x-sense_svn\xp02\xp02\src\usart.c"
 221  0009              #pragma debug scope 1 1
 221  0009              #pragma debug struct_end
 221  0009              #pragma debug struct_end
 221  0009              #pragma debug union_end
 221  0009              #pragma debug union_end
 221  0009              #pragma debug variable 47 1 ___intc3 "__intc3" 1
 221  0009              #pragma debug struct_end
 221  0009              #pragma debug struct_end
 221  0009              #pragma debug union_end
 221  0009              #pragma debug union_end
 221  0009              #pragma debug variable 49 1 ___mfi3 "__mfi3" 1
 221  0009              #pragma debug struct_end
 221  0009              #pragma debug struct_end
 221  0009              #pragma debug union_end
 221  0009              #pragma debug union_end
 221  0009              #pragma debug variable 51 1 ___u0sr "__u0sr" 1
 221  0009              #pragma debug struct_end
 221  0009              #pragma debug struct_end
 221  0009              #pragma debug union_end
 221  0009              #pragma debug union_end
 221  0009              #pragma debug variable 53 1 ___u0cr1 "__u0cr1" 1
 221  0009              #pragma debug struct_end
 221  0009              #pragma debug struct_end
 221  0009              #pragma debug union_end
 221  0009              #pragma debug union_end
 221  0009              #pragma debug variable 55 1 ___u0cr2 "__u0cr2" 1
 221  0009              #pragma debug variable 8 1 ___txr_rxr0 "__txr_rxr0" 1
 221  0009              #pragma debug variable 8 1 ___brg0 "__brg0" 1
 221  0009              extern _builtin_holtek_udivmodhi4_2:byte
 221  0009              extern _builtin_holtek_udivmodhi4:near
 221  0009              
 221  0009              ; 
 221  0009              ; Generated by holtek-gcc v3.19, Fri Nov 11 18:10:33 2022
 221  0009              ; Rebuild 718
 221  0009              ; end of file


        0 Errors, 0