文件：Co.c         编译器版本 HGASM 0202 页次1


   1  0000              ; Generated by holtek-gcc v3.19, Tue Mar 15 11:05:43 2022
   2  0000              ; 
   3  0000              ; Configuration:
   4  0000              ;       with long instruction
   5  0000              ;       Multi-ROM, Multi-RAM
   6  0000              ;       bits_per_rom_unit:16
   7  0000              ;       with mp1
   8  0000              ;       with tbhp, address(0x9)
   9  0000              ;          Use tabrd-const
  10  0000              ;       
  11  0000              ; SFR address of long-instruction arch:
  12  0000              ;    mp0 = -1,1,0
  13  0000              ;    mp1 = 4,3,2
  14  0000              ;    mp2 = 14,13,12
  15  0000              ;    tbp = 9,7,8
  16  0000              ;    acc = 5
  17  0000              ;    pcl = 6
  18  0000              ;    status = 10
  19  0000              ;    bp = 11
  20  0000              ;    intc = 67
  21  0000              ;       
  22  0000              ;       
  23  0000              ; use 'tabrdc' instead of 'tabrd'
  24  0000              ;       
  25  0000              
  26  0000              #pragma translator "holtek-gcc 4.6.4" "3.19" "build 20130711"
  27  0000              ; Rebuild 718
  28  0000              
  29  0000              ir equ [2]
  30  0000              mp equ [3]
  31  0000              sbp equ [4]
  32  0000              acc equ [5]
  33  0000              bp equ [11]
  34  0000              tblp equ [7]
  35  0000              tbhp equ [9]
  36  0000              status equ [10]
  37  0000              c equ [10].0
  38  0000              ac equ [10].1
  39  0000              z equ [10].2
  40  0000              ov equ [10].3
  41  0000              cz equ [10].6
  42  0000              sc equ [10].7
  43  0000              intc equ [67]
  44  0000              
  45  0000              extern ra:byte
  46  0000              extern rb:byte
  47  0000              extern rc:byte
  48  0000              extern rd:byte
  49  0000              extern re:byte
  50  0000              extern rf:byte
  51  0000              extern rg:byte
  52  0000              extern rh:byte
  53  0000              extern _Crom2Prom:near
  54  0000              extern _Crom2PromNext:near
  55  0000              
  56  0000              RAMBANK 0 @BITDATASEC, @BITDATASEC1
  57  0000              @HCCINIT	.section 'data'
  58  0000              @HCCINIT0	.section 'data'
  59  0000              @BITDATASEC	 .section 'data'
文件：Co.ASM       编译器版本 HGASM 0202 页次2

  60  0000              @BITDATASEC1	 .section 'data'
  61  0000              
  62  0000              #pragma debug scope 1 1
  63  0000              	extern __DELAY3:near
  64  0000              	extern __DELAYX3:near
  65  0000              	extern __DELAYX6:near
  66  0000              	extern __DELAYY5:near
  67  0000              	extern __DELAYY3:near
  68  0000              	extern _builtin_holtek_delay_2:byte
  69  0000              #pragma debug scope 2 1

 321  0000              #line 321 "e:\x-sense\xp02\htba45f5260-xp0456\src\Co.c"
 321  0000              _CoGetPpm .section 'code'
 321  0000              _CoGetPpm proc
 321  0000  0007[           local _CoGetPpm_2 db 7 dup(?)	; 3,4
            00
            ]
 321  0007              #pragma debug variable 10 2 _CoGetPpm_2+0 "CoSample"
 321  0007              #pragma debug variable 7 2 _CoGetPpm_2+2 "temp"
 328  0007              #line 328 "e:\x-sense\xp02\htba45f5260-xp0456\src\Co.c"
 328  0000  0700     R  	mov a,_CoGetPpm_2[2]
 328  0001  0080     E  	mov rb,a
 328  0002  1F00     E  	clr rc
 328  0003  3F85        	sz acc.7
 328  0004  1F80     E  	set rc
 328  0005  340A        	clr c
 328  0006  1A80     E  	rlc rb
 328  0007  1A80     E  	rlc rc
 328  0008  0F00     R  	mov a,low offset _co_temp_offset_rate
 328  0009  0300     E  	add a,rb
 328  000A  0083        	mov mp,a
 328  000B  0F00     R  	mov a,high offset _co_temp_offset_rate
 328  000C  1300     E  	adc a,rc
 328  000D  0084        	mov sbp,a
 328  000E              	fcall _Crom2Prom
 328  0015  0080     E  	mov rd,a
 328  0016              	fcall _Crom2PromNext
 328  001D  0080     E  	mov re,a
 328  001E  0700     R  	mov a,_COAO[7]
 328  001F  0080     E  	mov _builtin_holtek_mulsi3_2[0],a
 328  0020  0700     R  	mov a,_COAO[8]
 328  0021  0080     E  	mov _builtin_holtek_mulsi3_2[1],a
 328  0022  1F00     E  	clr _builtin_holtek_mulsi3_2[2]
 328  0023  1F00     E  	clr _builtin_holtek_mulsi3_2[3]
 328  0024  0700     E  	mov a,rd
 328  0025  0080     E  	mov _builtin_holtek_mulsi3_2[4],a
 328  0026  0700     E  	mov a,re
 328  0027  0080     E  	mov _builtin_holtek_mulsi3_2[5],a
 328  0028  1F00     E  	clr _builtin_holtek_mulsi3_2[6]
 328  0029  1F00     E  	clr _builtin_holtek_mulsi3_2[7]
 328  002A              	fcall _builtin_holtek_mulsi3
 328  0031  0700     E  	mov a,_builtin_holtek_mulsi3_2[8]
 328  0032  0080     E  	mov rd,a
 328  0033  0700     E  	mov a,_builtin_holtek_mulsi3_2[9]
 328  0034  0080     E  	mov re,a
 328  0035  0700     E  	mov a,_builtin_holtek_mulsi3_2[10]
 328  0036  0080     E  	mov rf,a
 328  0037  0700     E  	mov a,_builtin_holtek_mulsi3_2[11]
 328  0038  0080     E  	mov rg,a
 328  0039  1F00     E  	clr _builtin_holtek_udivmodsi4_2[12]
文件：Co.c         编译器版本 HGASM 0202 页次3

 328  003A  0700     E  	mov a,rd  
 328  003B  0080     E  	mov _builtin_holtek_udivmodsi4_2[0],a  
 328  003C  0700     E  	mov a,re  
 328  003D  0080     E  	mov _builtin_holtek_udivmodsi4_2[1],a
 328  003E  0700     E  	mov a,rf  
 328  003F  0080     E  	mov _builtin_holtek_udivmodsi4_2[2],a  
 328  0040  0700     E  	mov a,rg  
 328  0041  0080     E  	mov _builtin_holtek_udivmodsi4_2[3],a
 328  0042  0FE8        	mov a,232  
 328  0043  0080     E  	mov _builtin_holtek_udivmodsi4_2[4],a  
 328  0044  0F03        	mov a,3  
 328  0045  0080     E  	mov _builtin_holtek_udivmodsi4_2[5],a
 328  0046  1F00     E  	clr _builtin_holtek_udivmodsi4_2[6]
 328  0047  1F00     E  	clr _builtin_holtek_udivmodsi4_2[7]
 328  0048              	fcall _builtin_holtek_udivmodsi4
 328  004F  0700     E  	mov a,_builtin_holtek_udivmodsi4_2[0]  
 328  0050  0080     E  	mov rd,a  
 328  0051  0700     E  	mov a,_builtin_holtek_udivmodsi4_2[1]  
 328  0052  0080     E  	mov re,a
 328  0053  0700     E  	mov a,_builtin_holtek_udivmodsi4_2[2]  
 328  0054  0080     E  	mov rf,a  
 328  0055  0700     E  	mov a,_builtin_holtek_udivmodsi4_2[3]  
 328  0056  0080     E  	mov rg,a
 329  0057              #line 329 "e:\x-sense\xp02\htba45f5260-xp0456\src\Co.c"
 329  0057  0700     R  	mov a,_COAO[5]
 329  0058  0080     R  	mov _CoGetPpm_2[3],a
 329  0059  0700     R  	mov a,_COAO[6]
 329  005A  0080     R  	mov _CoGetPpm_2[4],a
 329  005B  0F00     R  	mov a,low offset _co_temp_slope_rate
 329  005C  0300     E  	add a,rb
 329  005D  0083        	mov mp,a
 329  005E  0F00     R  	mov a,high offset _co_temp_slope_rate
 329  005F  1300     E  	adc a,rc
 329  0060  0084        	mov sbp,a
 329  0061              	fcall _Crom2Prom
 329  0068  0080     R  	mov _CoGetPpm_2[5],a
 329  0069              	fcall _Crom2PromNext
 329  0070  0080     R  	mov _CoGetPpm_2[6],a
 331  0071              #line 331 "e:\x-sense\xp02\htba45f5260-xp0456\src\Co.c"
 331  0071  0700     R  	mov a,_CoGetPpm_2[0]
 331  0072  0200     E  	sub a,rd
 331  0073  0700     R  	mov a,_CoGetPpm_2[1]
 331  0074  1200     E  	sbc a,re
 331  0075  380A        	snz c
 331  0076  2800     R  	jmp _L3
 333  0077              #line 333 "e:\x-sense\xp02\htba45f5260-xp0456\src\Co.c"
 333  0077  0700     R  	mov a,_CoGetPpm_2[0]
 333  0078  0280     E  	subm a,rd
 333  0079  0700     R  	mov a,_CoGetPpm_2[1]
 333  007A  1280     E  	sbcm a,re
 333  007B  340A        	clr c
 333  007C  1A00     E  	rlca rd
 333  007D  0080     E  	mov rf,a
 333  007E  1A00     E  	rlca re
 333  007F  0080     E  	mov rg,a
 333  0080  340A        	clr c
 333  0081  1A80     E  	rlc rf
 333  0082  1A80     E  	rlc rg
 333  0083  0700     E  	mov a,rf
 333  0084  0300     E  	add a,rd
文件：Co.c         编译器版本 HGASM 0202 页次4

 333  0085  0080     E  	mov rb,a
 333  0086  0700     E  	mov a,rg
 333  0087  1300     E  	adc a,re
 333  0088  0080     E  	mov rc,a
 333  0089  340A        	clr c
 333  008A  1A80     E  	rlc rb
 333  008B  1A80     E  	rlc rc
 329  008C              #line 329 "e:\x-sense\xp02\htba45f5260-xp0456\src\Co.c"
 329  008C  0700     R  	mov a,_CoGetPpm_2[3]
 329  008D  0080     E  	mov _builtin_holtek_mulsi3_2[0],a
 329  008E  0700     R  	mov a,_CoGetPpm_2[4]
 329  008F  0080     E  	mov _builtin_holtek_mulsi3_2[1],a
 329  0090  1F00     E  	clr _builtin_holtek_mulsi3_2[2]
 329  0091  1F00     E  	clr _builtin_holtek_mulsi3_2[3]
 329  0092  0700     R  	mov a,_CoGetPpm_2[5]
 329  0093  0080     E  	mov _builtin_holtek_mulsi3_2[4],a
 329  0094  0700     R  	mov a,_CoGetPpm_2[6]
 329  0095  0080     E  	mov _builtin_holtek_mulsi3_2[5],a
 329  0096  1F00     E  	clr _builtin_holtek_mulsi3_2[6]
 329  0097  1F00     E  	clr _builtin_holtek_mulsi3_2[7]
 329  0098              	fcall _builtin_holtek_mulsi3
 329  009F  0700     E  	mov a,_builtin_holtek_mulsi3_2[8]
 329  00A0  0080     E  	mov rd,a
 329  00A1  0700     E  	mov a,_builtin_holtek_mulsi3_2[9]
 329  00A2  0080     E  	mov re,a
 329  00A3  0700     E  	mov a,_builtin_holtek_mulsi3_2[10]
 329  00A4  0080     E  	mov rf,a
 329  00A5  0700     E  	mov a,_builtin_holtek_mulsi3_2[11]
 329  00A6  0080     E  	mov rg,a
 329  00A7  1F00     E  	clr _builtin_holtek_udivmodsi4_2[12]
 329  00A8  0700     E  	mov a,rd  
 329  00A9  0080     E  	mov _builtin_holtek_udivmodsi4_2[0],a  
 329  00AA  0700     E  	mov a,re  
 329  00AB  0080     E  	mov _builtin_holtek_udivmodsi4_2[1],a
 329  00AC  0700     E  	mov a,rf  
 329  00AD  0080     E  	mov _builtin_holtek_udivmodsi4_2[2],a  
 329  00AE  0700     E  	mov a,rg  
 329  00AF  0080     E  	mov _builtin_holtek_udivmodsi4_2[3],a
 329  00B0  0FE8        	mov a,232  
 329  00B1  0080     E  	mov _builtin_holtek_udivmodsi4_2[4],a  
 329  00B2  0F03        	mov a,3  
 329  00B3  0080     E  	mov _builtin_holtek_udivmodsi4_2[5],a
 329  00B4  1F00     E  	clr _builtin_holtek_udivmodsi4_2[6]
 329  00B5  1F00     E  	clr _builtin_holtek_udivmodsi4_2[7]
 329  00B6              	fcall _builtin_holtek_udivmodsi4
 329  00BD  0700     E  	mov a,_builtin_holtek_udivmodsi4_2[0]  
 329  00BE  0080     E  	mov rd,a  
 329  00BF  0700     E  	mov a,_builtin_holtek_udivmodsi4_2[1]  
 329  00C0  0080     E  	mov re,a
 329  00C1  0700     E  	mov a,_builtin_holtek_udivmodsi4_2[2]  
 329  00C2  0080     E  	mov rf,a  
 329  00C3  0700     E  	mov a,_builtin_holtek_udivmodsi4_2[3]  
 329  00C4  0080     E  	mov rg,a
 333  00C5              #line 333 "e:\x-sense\xp02\htba45f5260-xp0456\src\Co.c"
 333  00C5  1F00     E  	clr _builtin_holtek_udivmodhi4_2[6]
 333  00C6  0700     E  	mov a,rb  
 333  00C7  0080     E  	mov _builtin_holtek_udivmodhi4_2[0],a  
 333  00C8  0700     E  	mov a,rc  
 333  00C9  0080     E  	mov _builtin_holtek_udivmodhi4_2[1],a
 333  00CA  0700     E  	mov a,rd  
文件：Co.c         编译器版本 HGASM 0202 页次5

 333  00CB  0080     E  	mov _builtin_holtek_udivmodhi4_2[2],a  
 333  00CC  0700     E  	mov a,re  
 333  00CD  0080     E  	mov _builtin_holtek_udivmodhi4_2[3],a
 333  00CE              	fcall _builtin_holtek_udivmodhi4
 333  00D5  0700     E  	mov a,_builtin_holtek_udivmodhi4_2[0]  
 333  00D6  0080     E  	mov ra,a  
 333  00D7  0700     E  	mov a,_builtin_holtek_udivmodhi4_2[1]  
 333  00D8  0080     E  	mov rb,a
 333  00D9  2800     R  	jmp _L2
 333  00DA              _L3:
 340  00DA              #line 340 "e:\x-sense\xp02\htba45f5260-xp0456\src\Co.c"
 340  00DA  1F00     E  	clr ra
 340  00DB  1F00     E  	clr rb
 340  00DC              _L2:
 340  00DC  0003        	ret
 340  00DD              _CoGetPpm endp
 340  00DD              #line 340 "e:\x-sense\xp02\htba45f5260-xp0456\src\Co.c"
 340  00DD              #pragma debug scope 1 1
 340  00DD              public _InitCO_Data
 340  00DD              #pragma debug scope 3 1
 182  00DD              #line 182 "e:\x-sense\xp02\htba45f5260-xp0456\src\Co.c"
 182  0000              _InitCO_Data .section 'code'
 182  0000              _InitCO_Data proc
 183  0000              #line 183 "e:\x-sense\xp02\htba45f5260-xp0456\src\Co.c"
 183  0000  1F00     R  	clr _COAO[0]
 184  0001              #line 184 "e:\x-sense\xp02\htba45f5260-xp0456\src\Co.c"
 184  0001  1F00     R  	clr _COAO[1]
 185  0002              #line 185 "e:\x-sense\xp02\htba45f5260-xp0456\src\Co.c"
 185  0002  1F00     R  	clr _COAO[2]
 185  0003  1F00     R  	clr _COAO[3]
 186  0004              #line 186 "e:\x-sense\xp02\htba45f5260-xp0456\src\Co.c"
 186  0004  1F00     R  	clr _COAO[4]
 187  0005              #line 187 "e:\x-sense\xp02\htba45f5260-xp0456\src\Co.c"
 187  0005  1F00     R  	clr _COAO[5]
 187  0006  1F00     R  	clr _COAO[6]
 188  0007              #line 188 "e:\x-sense\xp02\htba45f5260-xp0456\src\Co.c"
 188  0007  1F00     R  	clr _COAO[7]
 188  0008  1F00     R  	clr _COAO[8]
 189  0009              #line 189 "e:\x-sense\xp02\htba45f5260-xp0456\src\Co.c"
 189  0009  1F00     R  	clr _COAO[9]
 190  000A              #line 190 "e:\x-sense\xp02\htba45f5260-xp0456\src\Co.c"
 190  000A  1F00     R  	clr _COAO[10]
 192  000B              #line 192 "e:\x-sense\xp02\htba45f5260-xp0456\src\Co.c"
 192  000B  1F00     R  	clr _COAO[11]
 193  000C              #line 193 "e:\x-sense\xp02\htba45f5260-xp0456\src\Co.c"
 193  000C  1F00     R  	clr _COAO[12]
 194  000D              #line 194 "e:\x-sense\xp02\htba45f5260-xp0456\src\Co.c"
 194  000D  1F00     R  	clr _COAO[23]
 194  000E  1F00     R  	clr _COAO[24]
 195  000F              #line 195 "e:\x-sense\xp02\htba45f5260-xp0456\src\Co.c"
 195  000F  1F00     R  	clr _COAO[25]
 195  0010  1F00     R  	clr _COAO[26]
 196  0011              #line 196 "e:\x-sense\xp02\htba45f5260-xp0456\src\Co.c"
 196  0011  1F00     R  	clr _COAO[27]
 197  0012              #line 197 "e:\x-sense\xp02\htba45f5260-xp0456\src\Co.c"
 197  0012  1F00     R  	clr _COAO[28]
 197  0013  0003        	ret
 197  0014              _InitCO_Data endp
 197  0014              #line 197 "e:\x-sense\xp02\htba45f5260-xp0456\src\Co.c"
 197  0014              #pragma debug scope 1 1
文件：Co.c         编译器版本 HGASM 0202 页次6

 197  0014              public _CoAlarmCheck
 197  0014              #pragma debug scope 4 1
 527  0014              #line 527 "e:\x-sense\xp02\htba45f5260-xp0456\src\Co.c"
 527  0000              _CoAlarmCheck .section 'code'
 527  0000              _CoAlarmCheck proc
 527  0000  0003[           local _CoAlarmCheck_2 db 3 dup(?)	; 0,3
            00
            ]
 527  0003              #pragma debug variable 10 4 _CoAlarmCheck_2+1 "CoSample"
 527  0003              #pragma debug variable 8 4 _CoAlarmCheck_2+0 "TempValue"
 536  0003              #line 536 "e:\x-sense\xp02\htba45f5260-xp0456\src\Co.c"
 536  0000  1F00     E  	clr _GetAdcSample_2[2]
 536  0001  1F00     E  	clr _GetAdcSample_2[3]
 536  0002  0F02        	mov a,2
 536  0003  0080     E  	mov _GetAdcSample_2[0],a
 536  0004  1F00     E  	clr _GetAdcSample_2[1]
 536  0005              	fcall _GetAdcSample
 536  000C  0700     E  	mov a,ra
 536  000D  0080     R  	mov _CoAlarmCheck_2[1],a
 536  000E  0700     E  	mov a,rb
 536  000F  0080     R  	mov _CoAlarmCheck_2[2],a
 537  0010              #line 537 "e:\x-sense\xp02\htba45f5260-xp0456\src\Co.c"
 537  0010              	fcall _GetSmokeTemp
 537  0017  0080     R  	mov _CoAlarmCheck_2[0],a
 539  0018              #line 539 "e:\x-sense\xp02\htba45f5260-xp0456\src\Co.c"
 539  0018  0080     R  	mov _CoGetPpm_2[2],a
 539  0019  0700     R  	mov a,_CoAlarmCheck_2[1]
 539  001A  0080     R  	mov _CoGetPpm_2[0],a
 539  001B  0700     R  	mov a,_CoAlarmCheck_2[2]
 539  001C  0080     R  	mov _CoGetPpm_2[1],a
 539  001D              	fcall _CoGetPpm
 539  0024  0700     E  	mov a,rb
 539  0025  0080     E  	mov rc,a
 539  0026  0700     E  	mov a,ra
 539  0027  0080     E  	mov rb,a
 539  0028              #pragma debug scope 5 4
 539  0028              ;begin block, line: 539.-1
 539  0028              #pragma debug scope 6 5
 539  0028              ;begin block, line: 539.-1
 212  0028              #line 212 "e:\x-sense\xp02\htba45f5260-xp0456\src\Co.c"
 212  0028  0F09        	mov a,9
 212  0029  0200     R  	sub a,_CoAlarmCheck_2[0]
 212  002A  380A        	snz c
 212  002B  2800     R  	jmp _L7
 214  002C              #line 214 "e:\x-sense\xp02\htba45f5260-xp0456\src\Co.c"
 214  002C  0700     E  	mov a,rb  
 214  002D  0080     E  	mov _builtin_holtek_mulhi3_2[0],a  
 214  002E  0700     E  	mov a,rc  
 214  002F  0080     E  	mov _builtin_holtek_mulhi3_2[1],a
 214  0030  0F1E        	mov a,30  
 214  0031  0080     E  	mov _builtin_holtek_mulhi3_2[2],a  
 214  0032  1F00     E  	clr _builtin_holtek_mulhi3_2[3]
 214  0033              	fcall _builtin_holtek_mulhi3
 214  003A  0700     E  	mov a,_builtin_holtek_mulhi3_2[4]  
 214  003B  0080     E  	mov rd,a  
 214  003C  0700     E  	mov a,_builtin_holtek_mulhi3_2[5]  
 214  003D  0080     E  	mov re,a
 214  003E  2800     R  	jmp _L42
 214  003F              _L7:
 216  003F              #line 216 "e:\x-sense\xp02\htba45f5260-xp0456\src\Co.c"
文件：Co.c         编译器版本 HGASM 0202 页次7

 216  003F  0F13        	mov a,19
 216  0040  0200     R  	sub a,_CoAlarmCheck_2[0]
 216  0041  380A        	snz c
 216  0042  2800     R  	jmp _L9
 218  0043              #line 218 "e:\x-sense\xp02\htba45f5260-xp0456\src\Co.c"
 218  0043  0700     E  	mov a,rb  
 218  0044  0080     E  	mov _builtin_holtek_mulhi3_2[0],a  
 218  0045  0700     E  	mov a,rc  
 218  0046  0080     E  	mov _builtin_holtek_mulhi3_2[1],a
 218  0047  0F14        	mov a,20  
 218  0048  0080     E  	mov _builtin_holtek_mulhi3_2[2],a  
 218  0049  1F00     E  	clr _builtin_holtek_mulhi3_2[3]
 218  004A              	fcall _builtin_holtek_mulhi3
 218  0051  0700     E  	mov a,_builtin_holtek_mulhi3_2[4]  
 218  0052  0080     E  	mov rd,a  
 218  0053  0700     E  	mov a,_builtin_holtek_mulhi3_2[5]  
 218  0054  0080     E  	mov re,a
 218  0055              _L42:
 218  0055  1F00     E  	clr _builtin_holtek_udivmodhi4_2[6]
 218  0056  0700     E  	mov a,rd  
 218  0057  0080     E  	mov _builtin_holtek_udivmodhi4_2[0],a  
 218  0058  0700     E  	mov a,re  
 218  0059  0080     E  	mov _builtin_holtek_udivmodhi4_2[1],a
 218  005A  0F64        	mov a,100  
 218  005B  0080     E  	mov _builtin_holtek_udivmodhi4_2[2],a  
 218  005C  1F00     E  	clr _builtin_holtek_udivmodhi4_2[3]
 218  005D              	fcall _builtin_holtek_udivmodhi4
 218  0064  0700     E  	mov a,_builtin_holtek_udivmodhi4_2[0]  
 218  0065  0080     E  	mov rd,a  
 218  0066  0700     E  	mov a,_builtin_holtek_udivmodhi4_2[1]  
 218  0067  0080     E  	mov re,a
 218  0068  0700     E  	mov a,rd
 218  0069  0380     E  	addm a,rb
 218  006A  0700     E  	mov a,re
 218  006B  1380     E  	adcm a,rc
 218  006C  2800     R  	jmp _L8
 218  006D              _L9:
 220  006D              #line 220 "e:\x-sense\xp02\htba45f5260-xp0456\src\Co.c"
 220  006D  0F1D        	mov a,29
 220  006E  0200     R  	sub a,_CoAlarmCheck_2[0]
 220  006F  380A        	snz c
 220  0070  2800     R  	jmp _L10
 222  0071              #line 222 "e:\x-sense\xp02\htba45f5260-xp0456\src\Co.c"
 222  0071  340A        	clr c
 222  0072  1A00     E  	rlca rb
 222  0073  0080     E  	mov rd,a
 222  0074  1A00     E  	rlca rc
 222  0075  0080     E  	mov re,a
 222  0076  340A        	clr c
 222  0077  1A80     E  	rlc rd
 222  0078  1A80     E  	rlc re
 222  0079  0700     E  	mov a,rb
 222  007A  0380     E  	addm a,rd
 222  007B  0700     E  	mov a,rc
 222  007C  1380     E  	adcm a,re
 222  007D  340A        	clr c
 222  007E  1A80     E  	rlc rd
 222  007F  1A80     E  	rlc re
 222  0080  2800     R  	jmp _L42
 222  0081              _L10:
文件：Co.c         编译器版本 HGASM 0202 页次8

 224  0081              #line 224 "e:\x-sense\xp02\htba45f5260-xp0456\src\Co.c"
 224  0081  0F36        	mov a,54
 224  0082  0200     R  	sub a,_CoAlarmCheck_2[0]
 224  0083  3C0A        	sz c
 224  0084  2800     R  	jmp _L8
 228  0085              #line 228 "e:\x-sense\xp02\htba45f5260-xp0456\src\Co.c"
 228  0085  0F40        	mov a,64
 228  0086  0200     R  	sub a,_CoAlarmCheck_2[0]
 228  0087  380A        	snz c
 228  0088  2800     R  	jmp _L11
 230  0089              #line 230 "e:\x-sense\xp02\htba45f5260-xp0456\src\Co.c"
 230  0089  340A        	clr c
 230  008A  1A00     E  	rlca rb
 230  008B  0080     E  	mov rd,a
 230  008C  1A00     E  	rlca rc
 230  008D  0080     E  	mov re,a
 230  008E  340A        	clr c
 230  008F  1A80     E  	rlc rd
 230  0090  1A80     E  	rlc re
 230  0091  0700     E  	mov a,rb
 230  0092  0380     E  	addm a,rd
 230  0093  0700     E  	mov a,rc
 230  0094  1380     E  	adcm a,re
 230  0095  340A        	clr c
 230  0096  1A80     E  	rlc rd
 230  0097  1A80     E  	rlc re
 230  0098  2800     R  	jmp _L43
 230  0099              _L11:
 232  0099              #line 232 "e:\x-sense\xp02\htba45f5260-xp0456\src\Co.c"
 232  0099  0F4F        	mov a,79
 232  009A  0200     R  	sub a,_CoAlarmCheck_2[0]
 232  009B  380A        	snz c
 232  009C  2800     R  	jmp _L12
 234  009D              #line 234 "e:\x-sense\xp02\htba45f5260-xp0456\src\Co.c"
 234  009D  340A        	clr c
 234  009E  1A00     E  	rlca rb
 234  009F  0080     E  	mov rd,a
 234  00A0  1A00     E  	rlca rc
 234  00A1  0080     E  	mov re,a
 234  00A2  0700     E  	mov a,rb
 234  00A3  0380     E  	addm a,rd
 234  00A4  0700     E  	mov a,rc
 234  00A5  1380     E  	adcm a,re
 234  00A6  340A        	clr c
 234  00A7  1A00     E  	rlca rd
 234  00A8  0080     E  	mov rf,a
 234  00A9  1A00     E  	rlca re
 234  00AA  0080     E  	mov rg,a
 234  00AB  340A        	clr c
 234  00AC  1A80     E  	rlc rf
 234  00AD  1A80     E  	rlc rg
 234  00AE  0700     E  	mov a,rf
 234  00AF  0380     E  	addm a,rd
 234  00B0  0700     E  	mov a,rg
 234  00B1  1380     E  	adcm a,re
 234  00B2  2800     R  	jmp _L43
 234  00B3              _L12:
 238  00B3              #line 238 "e:\x-sense\xp02\htba45f5260-xp0456\src\Co.c"
 238  00B3  0700     E  	mov a,rb  
 238  00B4  0080     E  	mov _builtin_holtek_mulhi3_2[0],a  
文件：Co.c         编译器版本 HGASM 0202 页次9

 238  00B5  0700     E  	mov a,rc  
 238  00B6  0080     E  	mov _builtin_holtek_mulhi3_2[1],a
 238  00B7  0F1E        	mov a,30  
 238  00B8  0080     E  	mov _builtin_holtek_mulhi3_2[2],a  
 238  00B9  1F00     E  	clr _builtin_holtek_mulhi3_2[3]
 238  00BA              	fcall _builtin_holtek_mulhi3
 238  00C1  0700     E  	mov a,_builtin_holtek_mulhi3_2[4]  
 238  00C2  0080     E  	mov rd,a  
 238  00C3  0700     E  	mov a,_builtin_holtek_mulhi3_2[5]  
 238  00C4  0080     E  	mov re,a
 238  00C5              _L43:
 238  00C5  1F00     E  	clr _builtin_holtek_udivmodhi4_2[6]
 238  00C6  0700     E  	mov a,rd  
 238  00C7  0080     E  	mov _builtin_holtek_udivmodhi4_2[0],a  
 238  00C8  0700     E  	mov a,re  
 238  00C9  0080     E  	mov _builtin_holtek_udivmodhi4_2[1],a
 238  00CA  0F64        	mov a,100  
 238  00CB  0080     E  	mov _builtin_holtek_udivmodhi4_2[2],a  
 238  00CC  1F00     E  	clr _builtin_holtek_udivmodhi4_2[3]
 238  00CD              	fcall _builtin_holtek_udivmodhi4
 238  00D4  0700     E  	mov a,_builtin_holtek_udivmodhi4_2[0]  
 238  00D5  0080     E  	mov rd,a  
 238  00D6  0700     E  	mov a,_builtin_holtek_udivmodhi4_2[1]  
 238  00D7  0080     E  	mov re,a
 238  00D8  0700     E  	mov a,rb
 238  00D9  0200     E  	sub a,rd
 238  00DA  0080     E  	mov rb,a
 238  00DB  0700     E  	mov a,rc
 238  00DC  1200     E  	sbc a,re
 238  00DD  0080     E  	mov rc,a
 238  00DE              _L8:
 238  00DE              #pragma debug scope 5 4
 238  00DE              #pragma debug scope 4 1
 238  00DE              #pragma debug scope 7 4
 238  00DE              ;begin block, line: 238.-1
 238  00DE              #pragma debug scope 8 7
 238  00DE              ;begin block, line: 238.-1
 259  00DE              #line 259 "e:\x-sense\xp02\htba45f5260-xp0456\src\Co.c"
 259  00DE  0FBC        	mov a,188
 259  00DF  0200     E  	sub a,rb
 259  00E0  0F02        	mov a,2
 259  00E1  1200     E  	sbc a,rc
 259  00E2  3C0A        	sz c
 259  00E3  2800     R  	jmp _L13
 261  00E4              #line 261 "e:\x-sense\xp02\htba45f5260-xp0456\src\Co.c"
 261  00E4  1F00     R  	clr ___Co5000ppmComsationFlag_3161[0]
 261  00E5  1F00     R  	clr ___Co5000ppmComsationFlag_3161[1]
 261  00E6  2800     R  	jmp _L14
 261  00E7              _L13:
 269  00E7              #line 269 "e:\x-sense\xp02\htba45f5260-xp0456\src\Co.c"
 269  00E7  1F00     R  	clr ___Co5000ppmTimeCnt_3159[0]
 269  00E8  1F00     R  	clr ___Co5000ppmTimeCnt_3159[1]
 269  00E9              _L14:
 277  00E9              #line 277 "e:\x-sense\xp02\htba45f5260-xp0456\src\Co.c"
 277  00E9  0700     R  	mov a,___Co5000ppmComsationFlag_3161[0]
 277  00EA  0C01        	xor a,1
 277  00EB  0500     R  	or a,___Co5000ppmComsationFlag_3161[1]
 277  00EC  390A        	snz z
 277  00ED  2800     R  	jmp _L15
 279  00EE              #line 279 "e:\x-sense\xp02\htba45f5260-xp0456\src\Co.c"
文件：Co.c         编译器版本 HGASM 0202 页次10

 279  00EE  0F01        	mov a,1
 279  00EF  0300     R  	add a,___AfterCo5000ppmTimeCnt_3160[0]
 279  00F0  0080     E  	mov rd,a
 279  00F1  0F00        	mov a,0
 279  00F2  1300     R  	adc a,___AfterCo5000ppmTimeCnt_3160[1]
 279  00F3  0080     E  	mov re,a
 279  00F4  0700     E  	mov a,rd
 279  00F5  0080     R  	mov ___AfterCo5000ppmTimeCnt_3160[0],a
 279  00F6  0700     E  	mov a,re
 279  00F7  0080     R  	mov ___AfterCo5000ppmTimeCnt_3160[1],a
 280  00F8              #line 280 "e:\x-sense\xp02\htba45f5260-xp0456\src\Co.c"
 280  00F8  0FD8        	mov a,216
 280  00F9  0200     E  	sub a,rd
 280  00FA  0F09        	mov a,9
 280  00FB  1200     E  	sbc a,re
 280  00FC  3C0A        	sz c
 280  00FD  2800     R  	jmp _L16
 282  00FE              #line 282 "e:\x-sense\xp02\htba45f5260-xp0456\src\Co.c"
 282  00FE  1F00     R  	clr ___Co5000ppmComsationFlag_3161[0]
 282  00FF  1F00     R  	clr ___Co5000ppmComsationFlag_3161[1]
 282  0100  2800     R  	jmp _L15
 282  0101              _L16:
 286  0101              #line 286 "e:\x-sense\xp02\htba45f5260-xp0456\src\Co.c"
 286  0101  0F14        	mov a,20
 286  0102  0200     E  	sub a,rb
 286  0103  0F00        	mov a,0
 286  0104  1200     E  	sbc a,rc
 286  0105  3C0A        	sz c
 286  0106  2800     R  	jmp _L17
 288  0107              #line 288 "e:\x-sense\xp02\htba45f5260-xp0456\src\Co.c"
 288  0107  0FD0        	mov a,208
 288  0108  0200     E  	sub a,rd
 288  0109  0F02        	mov a,2
 288  010A  1200     E  	sbc a,re
 288  010B  3C0A        	sz c
 288  010C  2800     R  	jmp _L18
 290  010D              #line 290 "e:\x-sense\xp02\htba45f5260-xp0456\src\Co.c"
 290  010D  0F06        	mov a,6
 290  010E  0380     E  	addm a,rb
 290  010F  0F00        	mov a,0
 290  0110  1380     E  	adcm a,rc
 290  0111  2800     R  	jmp _L15
 290  0112              _L18:
 292  0112              #line 292 "e:\x-sense\xp02\htba45f5260-xp0456\src\Co.c"
 292  0112  0F58        	mov a,88
 292  0113  0200     E  	sub a,rd
 292  0114  0F02        	mov a,2
 292  0115  1200     E  	sbc a,re
 292  0116  3C0A        	sz c
 292  0117  2800     R  	jmp _L19
 294  0118              #line 294 "e:\x-sense\xp02\htba45f5260-xp0456\src\Co.c"
 294  0118  0F08        	mov a,8
 294  0119  0380     E  	addm a,rb
 294  011A  0F00        	mov a,0
 294  011B  1380     E  	adcm a,rc
 294  011C  2800     R  	jmp _L15
 294  011D              _L19:
 296  011D              #line 296 "e:\x-sense\xp02\htba45f5260-xp0456\src\Co.c"
 296  011D  0FE0        	mov a,224
 296  011E  0200     E  	sub a,rd
文件：Co.c         编译器版本 HGASM 0202 页次11

 296  011F  0F01        	mov a,1
 296  0120  1200     E  	sbc a,re
 296  0121  3C0A        	sz c
 296  0122  2800     R  	jmp _L20
 298  0123              #line 298 "e:\x-sense\xp02\htba45f5260-xp0456\src\Co.c"
 298  0123  0F0C        	mov a,12
 298  0124  0380     E  	addm a,rb
 298  0125  0F00        	mov a,0
 298  0126  1380     E  	adcm a,rc
 298  0127  2800     R  	jmp _L15
 298  0128              _L20:
 300  0128              #line 300 "e:\x-sense\xp02\htba45f5260-xp0456\src\Co.c"
 300  0128  0F68        	mov a,104
 300  0129  0200     E  	sub a,rd
 300  012A  0F01        	mov a,1
 300  012B  1200     E  	sbc a,re
 300  012C  3C0A        	sz c
 300  012D  2800     R  	jmp _L21
 302  012E              #line 302 "e:\x-sense\xp02\htba45f5260-xp0456\src\Co.c"
 302  012E  0F10        	mov a,16
 302  012F  0380     E  	addm a,rb
 302  0130  0F00        	mov a,0
 302  0131  1380     E  	adcm a,rc
 302  0132  2800     R  	jmp _L15
 302  0133              _L21:
 310  0133              #line 310 "e:\x-sense\xp02\htba45f5260-xp0456\src\Co.c"
 310  0133  0F14        	mov a,20
 310  0134  0380     E  	addm a,rb
 310  0135  0F00        	mov a,0
 310  0136  1380     E  	adcm a,rc
 310  0137              _L15:
 310  0137              #pragma debug scope 7 4
 310  0137              #pragma debug scope 4 1
 549  0137              #line 549 "e:\x-sense\xp02\htba45f5260-xp0456\src\Co.c"
 549  0137  0FE7        	mov a,231
 549  0138  0200     E  	sub a,rb
 549  0139  0F03        	mov a,3
 549  013A  1200     E  	sbc a,rc
 549  013B  380A        	snz c
 549  013C  2800     R  	jmp _L23
 549  013D              _L17:
 547  013D              #line 547 "e:\x-sense\xp02\htba45f5260-xp0456\src\Co.c"
 547  013D  0700     E  	mov a,rb
 547  013E  0080     R  	mov ___co_ppm_3178[0],a
 547  013F  0700     E  	mov a,rc
 547  0140  0080     R  	mov ___co_ppm_3178[1],a
 547  0141  2800     R  	jmp _L24
 547  0142              _L23:
 551  0142              #line 551 "e:\x-sense\xp02\htba45f5260-xp0456\src\Co.c"
 551  0142  0FE7        	mov a,-25
 551  0143  0080     R  	mov ___co_ppm_3178[0],a
 551  0144  0F03        	mov a,3
 551  0145  0080     R  	mov ___co_ppm_3178[1],a
 551  0146              _L24:
 554  0146              #line 554 "e:\x-sense\xp02\htba45f5260-xp0456\src\Co.c"
 554  0146  0700     R  	mov a,___co_ppm_3178[0]
 554  0147  0080     E  	mov rb,a
 554  0148  0700     R  	mov a,___co_ppm_3178[1]
 554  0149  0080     E  	mov rc,a
 554  014A  0F63        	mov a,99
文件：Co.c         编译器版本 HGASM 0202 页次12

 554  014B  0200     E  	sub a,rb
 554  014C  0F00        	mov a,0
 554  014D  1200     E  	sbc a,rc
 554  014E  3C0A        	sz c
 554  014F  2800     R  	jmp _L25
 556  0150              #line 556 "e:\x-sense\xp02\htba45f5260-xp0456\src\Co.c"
 556  0150  1400     R  	inca ___LatchingCo100PpmCnt_3177[0]
 556  0151  0080     E  	mov ra,a
 557  0152              #line 557 "e:\x-sense\xp02\htba45f5260-xp0456\src\Co.c"
 557  0152  0F05        	mov a,5
 557  0153  0200     E  	sub a,ra
 557  0154  3C0A        	sz c
 557  0155  2800     R  	jmp _L26
 559  0156              #line 559 "e:\x-sense\xp02\htba45f5260-xp0456\src\Co.c"
 559  0156  0F05        	mov a,5
 559  0157  0080     R  	mov ___LatchingCo100PpmCnt_3177[0],a
 559  0158  2800     R  	jmp _L31
 559  0159              _L25:
 562  0159              #line 562 "e:\x-sense\xp02\htba45f5260-xp0456\src\Co.c"
 562  0159  0F1D        	mov a,29
 562  015A  0200     E  	sub a,rb
 562  015B  0F00        	mov a,0
 562  015C  1200     E  	sbc a,rc
 562  015D  380A        	snz c
 562  015E  2800     R  	jmp _L28
 564  015F              #line 564 "e:\x-sense\xp02\htba45f5260-xp0456\src\Co.c"
 564  015F  0F02        	mov a,2
 564  0160  0200     R  	sub a,___LatchingCo100PpmCnt_3177[0]
 564  0161  3C0A        	sz c
 564  0162  2800     R  	jmp _L29
 566  0163              #line 566 "e:\x-sense\xp02\htba45f5260-xp0456\src\Co.c"
 566  0163  0F01        	mov a,1
 566  0164  0580     E  	orm a,_SysAO[8]
 566  0165  0F00        	mov a,0
 566  0166  0580     E  	orm a,_SysAO[7]
 566  0167              _L29:
 568  0167              #line 568 "e:\x-sense\xp02\htba45f5260-xp0456\src\Co.c"
 568  0167  1F00     R  	clr ___LatchingCo100PpmCnt_3177[0]
 568  0168  2800     R  	jmp _L30
 568  0169              _L28:
 568  0169              #pragma debug scope 9 4
 568  0169              ;begin block, line: 568.-1
 568  0169              #pragma debug scope 10 9
 568  0169              ;begin block, line: 568.-1
 356  0169              #line 356 "e:\x-sense\xp02\htba45f5260-xp0456\src\Co.c"
 356  0169  0F46        	mov a,70
 356  016A  0200     E  	sub a,rb
 356  016B  0F00        	mov a,0
 356  016C  1200     E  	sbc a,rc
 356  016D  380A        	snz c
 356  016E  2800     R  	jmp _L31
 356  016F              _L30:
 358  016F              #line 358 "e:\x-sense\xp02\htba45f5260-xp0456\src\Co.c"
 358  016F  1400     R  	inca ___CoCancelAlarmNum_3173[0]
 358  0170  0080     E  	mov ra,a
 358  0171  0700     E  	mov a,ra
 358  0172  0080     R  	mov ___CoCancelAlarmNum_3173[0],a
 359  0173              #line 359 "e:\x-sense\xp02\htba45f5260-xp0456\src\Co.c"
 359  0173  0F02        	mov a,2
 359  0174  0200     E  	sub a,ra
文件：Co.c         编译器版本 HGASM 0202 页次13

 359  0175  3C0A        	sz c
 359  0176  2800     R  	jmp _L33
 361  0177              #line 361 "e:\x-sense\xp02\htba45f5260-xp0456\src\Co.c"
 361  0177  0F03        	mov a,3
 361  0178  0080     R  	mov ___CoCancelAlarmNum_3173[0],a
 362  0179              #line 362 "e:\x-sense\xp02\htba45f5260-xp0456\src\Co.c"
 362  0179  0FF8        	mov a,248
 362  017A  0300     E  	add a,_SysAO[0]
 362  017B  0080     E  	mov rb,a
 362  017C  0FFF        	mov a,255
 362  017D  1300     E  	adc a,_SysAO[1]
 362  017E  0080     E  	mov rc,a
 362  017F  0F01        	mov a,1
 362  0180  0200     E  	sub a,rb
 362  0181  0F00        	mov a,0
 362  0182  1200     E  	sbc a,rc
 362  0183  380A        	snz c
 362  0184  2800     R  	jmp _L33
 364  0185              #line 364 "e:\x-sense\xp02\htba45f5260-xp0456\src\Co.c"
 364  0185  0F1F        	mov a,31
 364  0186  0080     E  	mov _SysteSetSig_2[0],a
 364  0187  1F00     E  	clr _SysteSetSig_2[1]
 364  0188              	fcall _SysteSetSig
 364  018F              _L33:
 367  018F              #line 367 "e:\x-sense\xp02\htba45f5260-xp0456\src\Co.c"
 367  018F  1F00     R  	clr _COAO[13]
 367  0190  1F00     R  	clr _COAO[14]
 368  0191              #line 368 "e:\x-sense\xp02\htba45f5260-xp0456\src\Co.c"
 368  0191  1F00     R  	clr _COAO[15]
 368  0192  1F00     R  	clr _COAO[16]
 369  0193              #line 369 "e:\x-sense\xp02\htba45f5260-xp0456\src\Co.c"
 369  0193  1F00     R  	clr _COAO[17]
 369  0194  1F00     R  	clr _COAO[18]
 370  0195              #line 370 "e:\x-sense\xp02\htba45f5260-xp0456\src\Co.c"
 370  0195  1F00     R  	clr _COAO[19]
 370  0196  1F00     R  	clr _COAO[20]
 371  0197              #line 371 "e:\x-sense\xp02\htba45f5260-xp0456\src\Co.c"
 371  0197  1F00     R  	clr _COAO[21]
 371  0198  1F00     R  	clr _COAO[22]
 371  0199  2800     R  	jmp _L35
 371  019A              _L26:
 371  019A              #pragma debug scope 9 4
 371  019A              #pragma debug scope 4 1
 556  019A              #line 556 "e:\x-sense\xp02\htba45f5260-xp0456\src\Co.c"
 556  019A  0700     E  	mov a,ra
 556  019B  0080     R  	mov ___LatchingCo100PpmCnt_3177[0],a
 556  019C              _L31:
 556  019C              #pragma debug scope 11 4
 556  019C              ;begin block, line: 556.-1
 556  019C              #pragma debug scope 12 11
 556  019C              ;begin block, line: 556.-1
 375  019C              #line 375 "e:\x-sense\xp02\htba45f5260-xp0456\src\Co.c"
 375  019C  1F00     R  	clr ___CoCancelAlarmNum_3173[0]
 376  019D              #line 376 "e:\x-sense\xp02\htba45f5260-xp0456\src\Co.c"
 376  019D  0FB9        	mov a,185
 376  019E  0300     E  	add a,rb
 376  019F  0080     E  	mov rd,a
 376  01A0  0FFF        	mov a,255
 376  01A1  1300     E  	adc a,rc
 376  01A2  0080     E  	mov re,a
文件：Co.c         编译器版本 HGASM 0202 页次14

 376  01A3  0F4F        	mov a,79
 376  01A4  0200     E  	sub a,rd
 376  01A5  0F00        	mov a,0
 376  01A6  1200     E  	sbc a,re
 376  01A7  380A        	snz c
 376  01A8  2800     R  	jmp _L36
 378  01A9              #line 378 "e:\x-sense\xp02\htba45f5260-xp0456\src\Co.c"
 378  01A9  1480     R  	inc _COAO[13]
 378  01AA  3D0A        	sz z
 378  01AB  1480     R  	inc _COAO[14]
 379  01AC              #line 379 "e:\x-sense\xp02\htba45f5260-xp0456\src\Co.c"
 379  01AC  1480     R  	inc _COAO[15]
 379  01AD  3D0A        	sz z
 379  01AE  1480     R  	inc _COAO[16]
 379  01AF  2800     R  	jmp _L37
 379  01B0              _L36:
 381  01B0              #line 381 "e:\x-sense\xp02\htba45f5260-xp0456\src\Co.c"
 381  01B0  0F69        	mov a,105
 381  01B1  0300     E  	add a,rb
 381  01B2  0080     E  	mov rd,a
 381  01B3  0FFF        	mov a,255
 381  01B4  1300     E  	adc a,rc
 381  01B5  0080     E  	mov re,a
 381  01B6  0FF9        	mov a,249
 381  01B7  0200     E  	sub a,rd
 381  01B8  0F00        	mov a,0
 381  01B9  1200     E  	sbc a,re
 381  01BA  380A        	snz c
 381  01BB  2800     R  	jmp _L38
 383  01BC              #line 383 "e:\x-sense\xp02\htba45f5260-xp0456\src\Co.c"
 383  01BC  1480     R  	inc _COAO[13]
 383  01BD  3D0A        	sz z
 383  01BE  1480     R  	inc _COAO[14]
 384  01BF              #line 384 "e:\x-sense\xp02\htba45f5260-xp0456\src\Co.c"
 384  01BF  1480     R  	inc _COAO[15]
 384  01C0  3D0A        	sz z
 384  01C1  1480     R  	inc _COAO[16]
 385  01C2              #line 385 "e:\x-sense\xp02\htba45f5260-xp0456\src\Co.c"
 385  01C2  1480     R  	inc _COAO[17]
 385  01C3  3D0A        	sz z
 385  01C4  1480     R  	inc _COAO[18]
 385  01C5  2800     R  	jmp _L37
 385  01C6              _L38:
 388  01C6              #line 388 "e:\x-sense\xp02\htba45f5260-xp0456\src\Co.c"
 388  01C6  0F6F        	mov a,111
 388  01C7  0380     E  	addm a,rb
 388  01C8  0FFE        	mov a,254
 388  01C9  1380     E  	adcm a,rc
 390  01CA              #line 390 "e:\x-sense\xp02\htba45f5260-xp0456\src\Co.c"
 390  01CA  1480     R  	inc _COAO[13]
 390  01CB  3D0A        	sz z
 390  01CC  1480     R  	inc _COAO[14]
 391  01CD              #line 391 "e:\x-sense\xp02\htba45f5260-xp0456\src\Co.c"
 391  01CD  1480     R  	inc _COAO[15]
 391  01CE  3D0A        	sz z
 391  01CF  1480     R  	inc _COAO[16]
 392  01D0              #line 392 "e:\x-sense\xp02\htba45f5260-xp0456\src\Co.c"
 392  01D0  1480     R  	inc _COAO[17]
 392  01D1  3D0A        	sz z
 392  01D2  1480     R  	inc _COAO[18]
文件：Co.c         编译器版本 HGASM 0202 页次15

 393  01D3              #line 393 "e:\x-sense\xp02\htba45f5260-xp0456\src\Co.c"
 393  01D3  1480     R  	inc _COAO[19]
 393  01D4  3D0A        	sz z
 393  01D5  1480     R  	inc _COAO[20]
 388  01D6              #line 388 "e:\x-sense\xp02\htba45f5260-xp0456\src\Co.c"
 388  01D6  0FF7        	mov a,247
 388  01D7  0200     E  	sub a,rb
 388  01D8  0F11        	mov a,17
 388  01D9  1200     E  	sbc a,rc
 388  01DA  3C0A        	sz c
 388  01DB  2800     R  	jmp _L37
 401  01DC              #line 401 "e:\x-sense\xp02\htba45f5260-xp0456\src\Co.c"
 401  01DC  1480     R  	inc _COAO[21]
 401  01DD  3D0A        	sz z
 401  01DE  1480     R  	inc _COAO[22]
 401  01DF              _L37:
 404  01DF              #line 404 "e:\x-sense\xp02\htba45f5260-xp0456\src\Co.c"
 404  01DF  0F2C        	mov a,44
 404  01E0  0200     R  	sub a,_COAO[13]
 404  01E1  0F01        	mov a,1
 404  01E2  1200     R  	sbc a,_COAO[14]
 404  01E3  380A        	snz c
 404  01E4  2800     R  	jmp _L40
 404  01E5  0F32        	mov a,50
 404  01E6  0200     R  	sub a,_COAO[15]
 404  01E7  0F00        	mov a,0
 404  01E8  1200     R  	sbc a,_COAO[16]
 404  01E9  380A        	snz c
 404  01EA  2800     R  	jmp _L40
 405  01EB              #line 405 "e:\x-sense\xp02\htba45f5260-xp0456\src\Co.c"
 405  01EB  0F0F        	mov a,15
 405  01EC  0200     R  	sub a,_COAO[17]
 405  01ED  0F00        	mov a,0
 405  01EE  1200     R  	sbc a,_COAO[18]
 405  01EF  380A        	snz c
 405  01F0  2800     R  	jmp _L40
 406  01F1              #line 406 "e:\x-sense\xp02\htba45f5260-xp0456\src\Co.c"
 406  01F1  0F0F        	mov a,15
 406  01F2  0200     R  	sub a,_COAO[19]
 406  01F3  0F00        	mov a,0
 406  01F4  1200     R  	sbc a,_COAO[20]
 406  01F5  3C0A        	sz c
 406  01F6  2800     R  	jmp _L35
 406  01F7              _L40:
 409  01F7              #line 409 "e:\x-sense\xp02\htba45f5260-xp0456\src\Co.c"
 409  01F7  0F1C        	mov a,28
 409  01F8  0080     E  	mov _SysteSetSig_2[0],a
 409  01F9  1F00     E  	clr _SysteSetSig_2[1]
 409  01FA              	fcall _SysteSetSig
 409  0201              _L35:
 409  0201              #pragma debug scope 11 4
 409  0201              #pragma debug scope 4 1
 585  0201              #line 585 "e:\x-sense\xp02\htba45f5260-xp0456\src\Co.c"
 585  0201  0700     R  	mov a,___co_ppm_3178[0]
 585  0202  0080     E  	mov ra,a
 585  0203  0700     R  	mov a,___co_ppm_3178[1]
 585  0204  0080     E  	mov rb,a
 585  0205  0003        	ret
 585  0206              _CoAlarmCheck endp
 585  0206              #line 585 "e:\x-sense\xp02\htba45f5260-xp0456\src\Co.c"
文件：Co.c         编译器版本 HGASM 0202 页次16

 585  0206              #pragma debug scope 1 1
 585  0000              @crom	.section 'crom'
 585  0000              _LC0:
 585  0000              	db 043h,06fh,03ah,020h,04fh,066h,066h,073h,065h,074h
 585  0005              	db 020h,03dh,020h,025h,064h,0ah,00h
 585  0009              @crom	.section 'crom'
 585  0009              _LC1:
 585  0009              	db 053h,06ch,06fh,070h,065h,020h,03dh,020h,025h,064h
 585  000E              	db 0ah,00h
 585  000F              @crom	.section 'crom'
 585  000F              _LC2:
 585  000F              	db 043h,061h,069h,06ch,020h,053h,074h,065h,070h,020h
 585  0014              	db 03dh,020h,00h
 585  0015              @crom	.section 'crom'
 585  0015              _LC3:
 585  0015              	db 031h,0ah,00h
 585  0017              @crom	.section 'crom'
 585  0017              _LC4:
 585  0017              	db 025h,064h,0ah,00h
 585  0019              public _LoadCOData
 585  0019              #pragma debug scope 13 1
 597  0019              #line 597 "e:\x-sense\xp02\htba45f5260-xp0456\src\Co.c"
 597  0000              _LoadCOData .section 'code'
 597  0000              _LoadCOData proc
 597  0000  0002[           local _LoadCOData_2 db 2 dup(?)	; 0,2
            00
            ]
 600  0002              #line 600 "e:\x-sense\xp02\htba45f5260-xp0456\src\Co.c"
 600  0000  0F10        	mov a,16
 600  0001              	fcall _E2promRead
 600  0008  0080     E  	mov ra,a
 600  0009  0700     E  	mov a,ra
 600  000A  0080     R  	mov _COAO[1],a
 601  000B              #line 601 "e:\x-sense\xp02\htba45f5260-xp0456\src\Co.c"
 601  000B  0F09        	mov a,9
 601  000C              	fcall _E2promRead
 601  0013  0080     E  	mov ra,a
 601  0014  0700     E  	mov a,ra
 601  0015  0080     R  	mov _COAO[4],a
 602  0016              #line 602 "e:\x-sense\xp02\htba45f5260-xp0456\src\Co.c"
 602  0016  0F0A        	mov a,10
 602  0017              	fcall _E2promRead
 602  001E  0080     E  	mov ra,a
 603  001F              #line 603 "e:\x-sense\xp02\htba45f5260-xp0456\src\Co.c"
 603  001F  0700     E  	mov a,ra
 603  0020  0080     R  	mov _LoadCOData_2[1],a
 603  0021  1F00     R  	clr _LoadCOData_2[0]
 603  0022  0700     R  	mov a,_LoadCOData_2[0]
 603  0023  0080     R  	mov _COAO[5],a
 603  0024  0700     R  	mov a,_LoadCOData_2[1]
 603  0025  0080     R  	mov _COAO[6],a
 604  0026              #line 604 "e:\x-sense\xp02\htba45f5260-xp0456\src\Co.c"
 604  0026  0F0B        	mov a,11
 604  0027              	fcall _E2promRead
 604  002E  0080     E  	mov ra,a
 604  002F  0700     R  	mov a,_LoadCOData_2[1]
 604  0030  0080     R  	mov _COAO[6],a
 604  0031  0700     E  	mov a,ra
 604  0032  0500     R  	or a,_LoadCOData_2[0]
 604  0033  0080     R  	mov _COAO[5],a
文件：Co.c         编译器版本 HGASM 0202 页次17

 605  0034              #line 605 "e:\x-sense\xp02\htba45f5260-xp0456\src\Co.c"
 605  0034  0F0C        	mov a,12
 605  0035              	fcall _E2promRead
 605  003C  0080     E  	mov ra,a
 606  003D              #line 606 "e:\x-sense\xp02\htba45f5260-xp0456\src\Co.c"
 606  003D  0700     E  	mov a,ra
 606  003E  0080     R  	mov _LoadCOData_2[1],a
 606  003F  1F00     R  	clr _LoadCOData_2[0]
 606  0040  0700     R  	mov a,_LoadCOData_2[0]
 606  0041  0080     R  	mov _COAO[7],a
 606  0042  0700     R  	mov a,_LoadCOData_2[1]
 606  0043  0080     R  	mov _COAO[8],a
 607  0044              #line 607 "e:\x-sense\xp02\htba45f5260-xp0456\src\Co.c"
 607  0044  0F0D        	mov a,13
 607  0045              	fcall _E2promRead
 607  004C  0080     E  	mov ra,a
 607  004D  0700     R  	mov a,_LoadCOData_2[1]
 607  004E  0080     R  	mov _COAO[8],a
 607  004F  0700     E  	mov a,ra
 607  0050  0500     R  	or a,_LoadCOData_2[0]
 607  0051  0080     R  	mov _COAO[7],a
 608  0052              #line 608 "e:\x-sense\xp02\htba45f5260-xp0456\src\Co.c"
 608  0052  0F0E        	mov a,14
 608  0053              	fcall _E2promRead
 608  005A  0080     E  	mov ra,a
 608  005B  0700     E  	mov a,ra
 608  005C  0080     R  	mov _COAO[9],a
 609  005D              #line 609 "e:\x-sense\xp02\htba45f5260-xp0456\src\Co.c"
 609  005D  0F0F        	mov a,15
 609  005E              	fcall _E2promRead
 609  0065  0080     E  	mov ra,a
 609  0066  0700     E  	mov a,ra
 609  0067  0080     R  	mov _COAO[10],a
 611  0068              #line 611 "e:\x-sense\xp02\htba45f5260-xp0456\src\Co.c"
 611  0068  0700     R  	mov a,_COAO[1]
 611  0069  0AAA        	sub a,170
 611  006A  390A        	snz z
 611  006B  2800     R  	jmp _L45
 614  006C              #line 614 "e:\x-sense\xp02\htba45f5260-xp0456\src\Co.c"
 614  006C  0700     R  	mov a,_COAO[7]
 614  006D  0080     E  	mov _printf_2[2],a
 614  006E  0700     R  	mov a,_COAO[8]
 614  006F  0080     E  	mov _printf_2[3],a
 614  0070  0F00     R  	mov a,low offset _LC0
 614  0071  0080     E  	mov _printf_2[0],a
 614  0072  0F00     R  	mov a,high offset _LC0
 614  0073  0080     E  	mov _printf_2[1],a
 614  0074              	fcall _printf
 615  007B              #line 615 "e:\x-sense\xp02\htba45f5260-xp0456\src\Co.c"
 615  007B  0700     R  	mov a,_COAO[5]
 615  007C  0080     E  	mov _printf_2[2],a
 615  007D  0700     R  	mov a,_COAO[6]
 615  007E  0080     E  	mov _printf_2[3],a
 615  007F  0F00     R  	mov a,low offset _LC1
 615  0080  0080     E  	mov _printf_2[0],a
 615  0081  0F00     R  	mov a,high offset _LC1
 615  0082  0080     E  	mov _printf_2[1],a
 615  0083              	fcall _printf
 616  008A              #line 616 "e:\x-sense\xp02\htba45f5260-xp0456\src\Co.c"
 616  008A  0F09        	mov a,9
文件：Co.c         编译器版本 HGASM 0202 页次18

 616  008B  0080     E  	mov _PwrAO[6],a
 613  008C              #line 613 "e:\x-sense\xp02\htba45f5260-xp0456\src\Co.c"
 613  008C  0F01        	mov a,1
 613  008D  0080     E  	mov ra,a
 613  008E  1F00     E  	clr rb
 613  008F  2800     R  	jmp _L46
 613  0090              _L45:
 620  0090              #line 620 "e:\x-sense\xp02\htba45f5260-xp0456\src\Co.c"
 620  0090  0F00     R  	mov a,low offset _LC2
 620  0091  0080     E  	mov _printf_2[0],a
 620  0092  0F00     R  	mov a,high offset _LC2
 620  0093  0080     E  	mov _printf_2[1],a
 620  0094              	fcall _printf
 621  009B              #line 621 "e:\x-sense\xp02\htba45f5260-xp0456\src\Co.c"
 621  009B  0700     R  	mov a,_COAO[4]
 621  009C  0080     E  	mov ra,a
 621  009D  1600     E  	siza ra
 621  009E  2800     R  	jmp _L47
 623  009F              #line 623 "e:\x-sense\xp02\htba45f5260-xp0456\src\Co.c"
 623  009F  0F00     R  	mov a,low offset _LC3
 623  00A0  0080     E  	mov _printf_2[0],a
 623  00A1  0F00     R  	mov a,high offset _LC3
 623  00A2  0080     E  	mov _printf_2[1],a
 623  00A3              	fcall _printf
 623  00AA  2800     R  	jmp _L48
 623  00AB              _L47:
 627  00AB              #line 627 "e:\x-sense\xp02\htba45f5260-xp0456\src\Co.c"
 627  00AB  0F01        	mov a,1
 627  00AC  0300     E  	add a,ra
 627  00AD  0080     E  	mov _printf_2[2],a
 627  00AE  0F00        	mov a,0
 627  00AF  1F00     E  	clr _printf_2[3]
 627  00B0  1380     E  	adcm a,_printf_2[3]
 627  00B1  0F00     R  	mov a,low offset _LC4
 627  00B2  0080     E  	mov _printf_2[0],a
 627  00B3  0F00     R  	mov a,high offset _LC4
 627  00B4  0080     E  	mov _printf_2[1],a
 627  00B5              	fcall _printf
 627  00BC              _L48:
 598  00BC              #line 598 "e:\x-sense\xp02\htba45f5260-xp0456\src\Co.c"
 598  00BC  1F00     E  	clr ra
 598  00BD  1F00     E  	clr rb
 598  00BE              _L46:
 598  00BE  0003        	ret
 598  00BF              _LoadCOData endp
 598  00BF              #line 598 "e:\x-sense\xp02\htba45f5260-xp0456\src\Co.c"
 598  00BF              #pragma debug scope 1 1
 598  00BF              public _COSelfCheck
 598  00BF              #pragma debug scope 14 1
 643  00BF              #line 643 "e:\x-sense\xp02\htba45f5260-xp0456\src\Co.c"
 643  0000              _COSelfCheck .section 'code'
 643  0000              _COSelfCheck proc
 643  0000              public _COSelfCheck_2
 643  0000  0004[           local _COSelfCheck_2 db 4 dup(?)	; 2,2
            00
            ]
 643  0004              #pragma debug struct_end
 643  0004              #pragma debug struct_end
 643  0004              #pragma debug pointer 43 42 14
 643  0004              #pragma debug pointer 43 42 14
文件：Co.c         编译器版本 HGASM 0202 页次19

 643  0004              #pragma debug variable 43 14 _COSelfCheck_2+0 "pCO"
 649  0004              #line 649 "e:\x-sense\xp02\htba45f5260-xp0456\src\Co.c"
 649  0000  1F00     E  	clr _GetAdcSample_2[2]
 649  0001  1F00     E  	clr _GetAdcSample_2[3]
 649  0002  0F02        	mov a,2
 649  0003  0080     E  	mov _GetAdcSample_2[0],a
 649  0004  1F00     E  	clr _GetAdcSample_2[1]
 649  0005              	fcall _GetAdcSample
 650  000C              #line 650 "e:\x-sense\xp02\htba45f5260-xp0456\src\Co.c"
 650  000C  0700     E  	mov a,ra
 650  000D  0080     E  	mov _GetVol_2[2],a
 650  000E  0700     E  	mov a,rb
 650  000F  0080     E  	mov _GetVol_2[3],a
 650  0010  0FE4        	mov a,-28
 650  0011  0080     E  	mov _GetVol_2[0],a
 650  0012  0F0C        	mov a,12
 650  0013  0080     E  	mov _GetVol_2[1],a
 650  0014              	fcall _GetVol
 650  001B  0700     E  	mov a,ra
 650  001C  0080     R  	mov _COSelfCheck_2[2],a
 650  001D  0700     E  	mov a,rb
 650  001E  0080     R  	mov _COSelfCheck_2[3],a
 651  001F              #line 651 "e:\x-sense\xp02\htba45f5260-xp0456\src\Co.c"
 651  001F  0F01        	mov a,1
 651  0020  0080     E  	mov _GetAdcSample_2[2],a
 651  0021  1F00     E  	clr _GetAdcSample_2[3]
 651  0022  0F02        	mov a,2
 651  0023  0080     E  	mov _GetAdcSample_2[0],a
 651  0024  1F00     E  	clr _GetAdcSample_2[1]
 651  0025              	fcall _GetAdcSample
 652  002C              #line 652 "e:\x-sense\xp02\htba45f5260-xp0456\src\Co.c"
 652  002C  0700     E  	mov a,ra
 652  002D  0080     E  	mov _GetVol_2[2],a
 652  002E  0700     E  	mov a,rb
 652  002F  0080     E  	mov _GetVol_2[3],a
 652  0030  0FE4        	mov a,-28
 652  0031  0080     E  	mov _GetVol_2[0],a
 652  0032  0F0C        	mov a,12
 652  0033  0080     E  	mov _GetVol_2[1],a
 652  0034              	fcall _GetVol
 660  003B              #line 660 "e:\x-sense\xp02\htba45f5260-xp0456\src\Co.c"
 660  003B  0F98        	mov a,152
 660  003C  0200     E  	sub a,ra
 660  003D  0F08        	mov a,8
 660  003E  1200     E  	sbc a,rb
 660  003F  3C0A        	sz c
 660  0040  2800     R  	jmp _L50
 662  0041              #line 662 "e:\x-sense\xp02\htba45f5260-xp0456\src\Co.c"
 662  0041              ;# 662 "e:\x-sense\xp02\htba45f5260-xp0456\src\Co.c" 1
 662  0041              	IF 50000>263690
 662  0041              ;# 662 "e:\x-sense\xp02\htba45f5260-xp0456\src\Co.c" 1
 662  0041              	ERRMESSAGE 'the value 50000of the argument exceeds the maxinum 263690'
 662  0041              	ENDIF
 662  0041              ;# 662 "e:\x-sense\xp02\htba45f5260-xp0456\src\Co.c" 1
 662  0041              	IF 50000<0
 662  0041              ;# 662 "e:\x-sense\xp02\htba45f5260-xp0456\src\Co.c" 1
 662  0041              	ERRMESSAGE 'the value 50000 of the argument exceeds the mininum 0'
 662  0041              	ENDIF
 662  0041              ;# 662 "e:\x-sense\xp02\htba45f5260-xp0456\src\Co.c" 1
 662  0041              	IF 50000==0
文件：Co.c         编译器版本 HGASM 0202 页次20

 662  0041              ;# 662 "e:\x-sense\xp02\htba45f5260-xp0456\src\Co.c" 1
 662  0041              	JMP $
 662  0041              	ENDIF
 662  0041              ;# 662 "e:\x-sense\xp02\htba45f5260-xp0456\src\Co.c" 1
 662  0041              	IF (50000>=1) AND (50000<( 4 + __PBP__ * 2))
 662  0041              ;# 662 "e:\x-sense\xp02\htba45f5260-xp0456\src\Co.c" 1
 662  0041              	NOP
 662  0041              	ENDIF
 662  0041              ;# 662 "e:\x-sense\xp02\htba45f5260-xp0456\src\Co.c" 1
 662  0041              	IF (50000>=2) AND (50000<( 4 + __PBP__ * 2))
 662  0041              ;# 662 "e:\x-sense\xp02\htba45f5260-xp0456\src\Co.c" 1
 662  0041              	NOP
 662  0041              	ENDIF
 662  0041              ;# 662 "e:\x-sense\xp02\htba45f5260-xp0456\src\Co.c" 1
 662  0041              	IF (50000>=3) AND (50000<( 4 + __PBP__ * 2))
 662  0041              ;# 662 "e:\x-sense\xp02\htba45f5260-xp0456\src\Co.c" 1
 662  0041              	NOP
 662  0041              	ENDIF
 662  0041              ;# 662 "e:\x-sense\xp02\htba45f5260-xp0456\src\Co.c" 1
 662  0041              	IF (50000>=4) AND (50000<( 4 + __PBP__ * 2)) AND ( __PBP__ > 0 )
 662  0041              ;# 662 "e:\x-sense\xp02\htba45f5260-xp0456\src\Co.c" 1
 662  0041              	NOP
 662  0041              	ENDIF
 662  0041              ;# 662 "e:\x-sense\xp02\htba45f5260-xp0456\src\Co.c" 1
 662  0041              	IF (50000>=5) AND (50000<( 4 + __PBP__ * 2)) AND ( __PBP__ > 0 )
 662  0041              ;# 662 "e:\x-sense\xp02\htba45f5260-xp0456\src\Co.c" 1
 662  0041              	NOP
 662  0041              	ENDIF
 662  0041              ;# 662 "e:\x-sense\xp02\htba45f5260-xp0456\src\Co.c" 1
 662  0041              	IF (50000>=6) AND (50000<( 4 + __PBP__ * 2))  AND ( __PBP__ > 1 )
 662  0041              ;# 662 "e:\x-sense\xp02\htba45f5260-xp0456\src\Co.c" 1
 662  0041              	NOP
 662  0041              	ENDIF
 662  0041              ;# 662 "e:\x-sense\xp02\htba45f5260-xp0456\src\Co.c" 1
 662  0041              	IF (50000>=7) AND (50000<( 4 + __PBP__ * 2))  AND ( __PBP__ > 1 )
 662  0041              ;# 662 "e:\x-sense\xp02\htba45f5260-xp0456\src\Co.c" 1
 662  0041              	NOP
 662  0041              	ENDIF
 662  0041              ;# 662 "e:\x-sense\xp02\htba45f5260-xp0456\src\Co.c" 1
 662  0041              	IF (50000>=8) AND (50000<( 4 + __PBP__ * 2))  AND ( __PBP__ > 2 )
 662  0041              ;# 662 "e:\x-sense\xp02\htba45f5260-xp0456\src\Co.c" 1
 662  0041              	NOP
 662  0041              	ENDIF
 662  0041              ;# 662 "e:\x-sense\xp02\htba45f5260-xp0456\src\Co.c" 1
 662  0041              	IF (50000==9)  AND ( __PBP__ > 2 )
 662  0041              ;# 662 "e:\x-sense\xp02\htba45f5260-xp0456\src\Co.c" 1
 662  0041              	NOP
 662  0041              	ENDIF
 662  0041              ;# 662 "e:\x-sense\xp02\htba45f5260-xp0456\src\Co.c" 1
 662  0041              	IF (50000< ( 8 + __PBP__ * 2)) AND (50000>( 3 + __PBP__ * 2))
 662  0041              ;# 662 "e:\x-sense\xp02\htba45f5260-xp0456\src\Co.c" 1
 662  0041              	fcall __DELAY3 + ( 7 + __PBP__ * 2) -50000
 662  0041              	ENDIF
 662  0041              ;# 662 "e:\x-sense\xp02\htba45f5260-xp0456\src\Co.c" 1
 662  0041              	IF (50000< ( 0404h + __PBP__ * 2)) AND (50000>( 7 + __PBP__ * 2))
 662  0041              ;# 662 "e:\x-sense\xp02\htba45f5260-xp0456\src\Co.c" 1
 662  0041              	MOV A,(50000-( 4 + __PBP__ * 2))/4
 662  0041              ;# 662 "e:\x-sense\xp02\htba45f5260-xp0456\src\Co.c" 1
 662  0041              	fcall __DELAYX3 + 3 -((50000-( 4 + __PBP__ * 2)) MOD 4) 
 662  0041              	ENDIF
文件：Co.c         编译器版本 HGASM 0202 页次21

 662  0041              ;# 662 "e:\x-sense\xp02\htba45f5260-xp0456\src\Co.c" 1
 662  0041              	IF (50000< ( 040bh + __PBP__ * 2)) AND (50000> ( 0403h + __PBP__ * 2))
 662  0041              ;# 662 "e:\x-sense\xp02\htba45f5260-xp0456\src\Co.c" 1
 662  0041              	MOV A,0 
 662  0041              ;# 662 "e:\x-sense\xp02\htba45f5260-xp0456\src\Co.c" 1
 662  0041              	fcall __DELAYX6 + ( 040ah + __PBP__ * 2) -50000
 662  0041              	ENDIF
 662  0041              ;# 662 "e:\x-sense\xp02\htba45f5260-xp0456\src\Co.c" 1
 662  0041              	IF (50000 >= ( 040bh + __PBP__ * 2)) AND ((((50000-( 9 + __PBP__ * 2))%0402h)/4+1)>256)
 662  0041              ;# 662 "e:\x-sense\xp02\htba45f5260-xp0456\src\Co.c" 1
 662  0041              	MOV A,(50000-( 9 + __PBP__ * 2))/0402h
 662  0041              ;# 662 "e:\x-sense\xp02\htba45f5260-xp0456\src\Co.c" 1
 662  0041              	MOV _builtin_holtek_delay_2,A
 662  0041              ;# 662 "e:\x-sense\xp02\htba45f5260-xp0456\src\Co.c" 1
 662  0041              	MOV A,0
 662  0041              ;# 662 "e:\x-sense\xp02\htba45f5260-xp0456\src\Co.c" 1
 662  0041              	fcall __DELAYY5 +5- (((50000-( 9 + __PBP__ * 2))%0402h)%6) 
 662  0041              	ENDIF
 662  0041              ;# 662 "e:\x-sense\xp02\htba45f5260-xp0456\src\Co.c" 1
 662  0041              	IF (50000 >= ( 040bh + __PBP__ * 2)) AND ((((50000-( 9 + __PBP__ * 2))%0402h)/4+1)<=256)
 662  0041              ;# 662 "e:\x-sense\xp02\htba45f5260-xp0456\src\Co.c" 1
 662  0041  0F30        	MOV A,(50000-( 9 + __PBP__ * 2))/0402h
 662  0042              ;# 662 "e:\x-sense\xp02\htba45f5260-xp0456\src\Co.c" 1
 662  0042  0080     E  	MOV _builtin_holtek_delay_2,A
 662  0043              ;# 662 "e:\x-sense\xp02\htba45f5260-xp0456\src\Co.c" 1
 662  0043  0FBA        	MOV A,((50000-( 9 + __PBP__ * 2))%0402h)/4+1
 662  0044              ;# 662 "e:\x-sense\xp02\htba45f5260-xp0456\src\Co.c" 1
 662  0044              	fcall __DELAYY3 +3-(((50000-( 9 + __PBP__ * 2))%0402h)%4) 
 662  004B              	ENDIF
 663  004B              #line 663 "e:\x-sense\xp02\htba45f5260-xp0456\src\Co.c"
 663  004B  1F00     E  	clr _GetAdcSample_2[2]
 663  004C  1F00     E  	clr _GetAdcSample_2[3]
 663  004D  0F02        	mov a,2
 663  004E  0080     E  	mov _GetAdcSample_2[0],a
 663  004F  1F00     E  	clr _GetAdcSample_2[1]
 663  0050              	fcall _GetAdcSample
 665  0057              #line 665 "e:\x-sense\xp02\htba45f5260-xp0456\src\Co.c"
 665  0057  0FF3        	mov a,243
 665  0058  0200     E  	sub a,ra
 665  0059  0F01        	mov a,1
 665  005A  1200     E  	sbc a,rb
 665  005B  380A        	snz c
 665  005C  2800     R  	jmp _L55
 668  005D              #line 668 "e:\x-sense\xp02\htba45f5260-xp0456\src\Co.c"
 668  005D  0F1C        	mov a,28
 668  005E  0300     R  	add a,_COSelfCheck_2[0]
 668  005F  0083        	mov mp,a
 668  0060  0F00        	mov a,0
 668  0061  1300     R  	adc a,_COSelfCheck_2[1]
 668  0062  0084        	mov sbp,a
 668  0063              	fcall _Crom2Prom
 668  006A  0080     R  	mov _COSelfCheck_2[2],a
 668  006B  1400     R  	inca _COSelfCheck_2[2]
 668  006C  0080     E  	mov ra,a
 668  006D  0700     E  	mov a,ra
 668  006E  0082        	mov ir,a
 669  006F              #line 669 "e:\x-sense\xp02\htba45f5260-xp0456\src\Co.c"
 669  006F  0F1B        	mov a,27
 669  0070  0300     R  	add a,_COSelfCheck_2[0]
 669  0071  0083        	mov mp,a
文件：Co.c         编译器版本 HGASM 0202 页次22

 669  0072  0F00        	mov a,0
 669  0073  1300     R  	adc a,_COSelfCheck_2[1]
 669  0074  0084        	mov sbp,a
 669  0075  2800     R  	jmp _L58
 669  0076              _L50:
 678  0076              #line 678 "e:\x-sense\xp02\htba45f5260-xp0456\src\Co.c"
 678  0076  0F17        	mov a,23
 678  0077  0300     E  	add a,ra
 678  0078  0080     E  	mov rd,a
 678  0079  0FFC        	mov a,252
 678  007A  1300     E  	adc a,rb
 678  007B  0080     E  	mov re,a
 677  007C              #line 677 "e:\x-sense\xp02\htba45f5260-xp0456\src\Co.c"
 677  007C  0FE6        	mov a,230
 677  007D  0200     E  	sub a,rd
 677  007E  0F03        	mov a,3
 677  007F  1200     E  	sbc a,re
 677  0080  380A        	snz c
 677  0081  2800     R  	jmp _L52
 653  0082              #line 653 "e:\x-sense\xp02\htba45f5260-xp0456\src\Co.c"
 653  0082  0700     E  	mov a,ra
 653  0083  0200     R  	sub a,_COSelfCheck_2[2]
 653  0084  0080     E  	mov rd,a
 653  0085  0700     E  	mov a,rb
 653  0086  1200     R  	sbc a,_COSelfCheck_2[3]
 653  0087  0080     E  	mov re,a
 653  0088  0700     E  	mov a,rd
 653  0089  0080     E  	mov rb,a
 653  008A  0700     E  	mov a,re
 653  008B  0080     E  	mov rc,a
 679  008C              #line 679 "e:\x-sense\xp02\htba45f5260-xp0456\src\Co.c"
 679  008C  0F63        	mov a,99
 679  008D  0380     E  	addm a,rb
 679  008E  0F00        	mov a,0
 679  008F  1380     E  	adcm a,rc
 679  0090  0FC6        	mov a,198
 679  0091  0200     E  	sub a,rb
 679  0092  0F00        	mov a,0
 679  0093  1200     E  	sbc a,rc
 679  0094  380A        	snz c
 679  0095  2800     R  	jmp _L52
 682  0096              #line 682 "e:\x-sense\xp02\htba45f5260-xp0456\src\Co.c"
 682  0096  0F1B        	mov a,27
 682  0097  0300     R  	add a,_COSelfCheck_2[0]
 682  0098  0083        	mov mp,a
 682  0099  0F00        	mov a,0
 682  009A  1300     R  	adc a,_COSelfCheck_2[1]
 682  009B  0084        	mov sbp,a
 682  009C              	fcall _Crom2Prom
 682  00A3  0080     R  	mov _COSelfCheck_2[2],a
 682  00A4  1400     R  	inca _COSelfCheck_2[2]
 682  00A5  0080     E  	mov ra,a
 682  00A6  0700     E  	mov a,ra
 682  00A7  0082        	mov ir,a
 683  00A8              #line 683 "e:\x-sense\xp02\htba45f5260-xp0456\src\Co.c"
 683  00A8  0F1C        	mov a,28
 683  00A9  0300     R  	add a,_COSelfCheck_2[0]
 683  00AA  0083        	mov mp,a
 683  00AB  0F00        	mov a,0
 683  00AC  1300     R  	adc a,_COSelfCheck_2[1]
文件：Co.c         编译器版本 HGASM 0202 页次23

 683  00AD  0084        	mov sbp,a
 683  00AE              _L58:
 683  00AE  0F00        	mov a,0
 683  00AF  0082        	mov ir,a
 684  00B0              #line 684 "e:\x-sense\xp02\htba45f5260-xp0456\src\Co.c"
 684  00B0  0F0D        	mov a,13
 684  00B1  0300     R  	add a,_COSelfCheck_2[0]
 684  00B2  0083        	mov mp,a
 684  00B3  0F00        	mov a,0
 684  00B4  1300     R  	adc a,_COSelfCheck_2[1]
 684  00B5  0084        	mov sbp,a
 684  00B6  1F02        	clr ir
 684  00B7  1483        	inc mp
 684  00B8  1F02        	clr ir
 685  00B9              #line 685 "e:\x-sense\xp02\htba45f5260-xp0456\src\Co.c"
 685  00B9  0F0F        	mov a,15
 685  00BA  0300     R  	add a,_COSelfCheck_2[0]
 685  00BB  0083        	mov mp,a
 685  00BC  0F00        	mov a,0
 685  00BD  1300     R  	adc a,_COSelfCheck_2[1]
 685  00BE  0084        	mov sbp,a
 685  00BF  1F02        	clr ir
 685  00C0  1483        	inc mp
 685  00C1  1F02        	clr ir
 686  00C2              #line 686 "e:\x-sense\xp02\htba45f5260-xp0456\src\Co.c"
 686  00C2  0F11        	mov a,17
 686  00C3  0300     R  	add a,_COSelfCheck_2[0]
 686  00C4  0083        	mov mp,a
 686  00C5  0F00        	mov a,0
 686  00C6  1300     R  	adc a,_COSelfCheck_2[1]
 686  00C7  0084        	mov sbp,a
 686  00C8  1F02        	clr ir
 686  00C9  1483        	inc mp
 686  00CA  1F02        	clr ir
 687  00CB              #line 687 "e:\x-sense\xp02\htba45f5260-xp0456\src\Co.c"
 687  00CB  0F13        	mov a,19
 687  00CC  0300     R  	add a,_COSelfCheck_2[0]
 687  00CD  0083        	mov mp,a
 687  00CE  0F00        	mov a,0
 687  00CF  1300     R  	adc a,_COSelfCheck_2[1]
 687  00D0  0084        	mov sbp,a
 687  00D1  1F02        	clr ir
 687  00D2  1483        	inc mp
 687  00D3  1F02        	clr ir
 688  00D4              #line 688 "e:\x-sense\xp02\htba45f5260-xp0456\src\Co.c"
 688  00D4  0F15        	mov a,21
 688  00D5  0300     R  	add a,_COSelfCheck_2[0]
 688  00D6  0083        	mov mp,a
 688  00D7  0F00        	mov a,0
 688  00D8  1300     R  	adc a,_COSelfCheck_2[1]
 688  00D9  0084        	mov sbp,a
 688  00DA  1F02        	clr ir
 688  00DB  1483        	inc mp
 688  00DC  1F02        	clr ir
 681  00DD              #line 681 "e:\x-sense\xp02\htba45f5260-xp0456\src\Co.c"
 681  00DD  0F02        	mov a,2
 681  00DE  0080     E  	mov rb,a
 681  00DF  1F00     E  	clr rc
 688  00E0              #line 688 "e:\x-sense\xp02\htba45f5260-xp0456\src\Co.c"
 688  00E0  2800     R  	jmp _L51
文件：Co.c         编译器版本 HGASM 0202 页次24

 688  00E1              _L52:
 692  00E1              #line 692 "e:\x-sense\xp02\htba45f5260-xp0456\src\Co.c"
 692  00E1  0F25        	mov a,37
 692  00E2  0080     E  	mov _SysteSetSig_2[0],a
 692  00E3  1F00     E  	clr _SysteSetSig_2[1]
 692  00E4              	fcall _SysteSetSig
 693  00EB              #line 693 "e:\x-sense\xp02\htba45f5260-xp0456\src\Co.c"
 693  00EB  0F1C        	mov a,28
 693  00EC  0300     R  	add a,_COSelfCheck_2[0]
 693  00ED  0083        	mov mp,a
 693  00EE  0F00        	mov a,0
 693  00EF  1300     R  	adc a,_COSelfCheck_2[1]
 693  00F0  0084        	mov sbp,a
 693  00F1  0F00        	mov a,0
 693  00F2  0082        	mov ir,a
 694  00F3              #line 694 "e:\x-sense\xp02\htba45f5260-xp0456\src\Co.c"
 694  00F3  0F1B        	mov a,27
 694  00F4  0300     R  	add a,_COSelfCheck_2[0]
 694  00F5  0083        	mov mp,a
 694  00F6  0F00        	mov a,0
 694  00F7  1300     R  	adc a,_COSelfCheck_2[1]
 694  00F8  0084        	mov sbp,a
 694  00F9  0F00        	mov a,0
 694  00FA  0082        	mov ir,a
 694  00FB              _L55:
 644  00FB              #line 644 "e:\x-sense\xp02\htba45f5260-xp0456\src\Co.c"
 644  00FB  1F00     E  	clr rb
 644  00FC  1F00     E  	clr rc
 644  00FD              _L51:
 697  00FD              #line 697 "e:\x-sense\xp02\htba45f5260-xp0456\src\Co.c"
 697  00FD  0700     R  	mov a,_COSelfCheck_2[0]
 697  00FE  0080     E  	mov rd,a
 697  00FF  0700     R  	mov a,_COSelfCheck_2[1]
 697  0100  0080     E  	mov re,a
 697  0101  0F1C        	mov a,28
 697  0102  0300     E  	add a,rd
 697  0103  0083        	mov mp,a
 697  0104  0F00        	mov a,0
 697  0105  1300     E  	adc a,re
 697  0106  0084        	mov sbp,a
 697  0107              	fcall _Crom2Prom
 697  010E  0080     R  	mov _COSelfCheck_2[2],a
 697  010F  0F01        	mov a,1
 697  0110  0200     R  	sub a,_COSelfCheck_2[2]
 697  0111  3C0A        	sz c
 697  0112  2800     R  	jmp _L53
 699  0113              #line 699 "e:\x-sense\xp02\htba45f5260-xp0456\src\Co.c"
 699  0113  0F02        	mov a,2
 699  0114  0082        	mov ir,a
 701  0115              #line 701 "e:\x-sense\xp02\htba45f5260-xp0456\src\Co.c"
 701  0115  0700     E  	mov a,_SysAO[22]
 701  0116  0080     E  	mov rb,a
 701  0117  0700     E  	mov a,_SysAO[23]
 701  0118  0080     E  	mov rc,a
 701  0119  3C00     E  	sz rb.2
 701  011A  2800     R  	jmp _L56
 703  011B              #line 703 "e:\x-sense\xp02\htba45f5260-xp0456\src\Co.c"
 703  011B  0700     E  	mov a,rc
 703  011C  0D00        	or a,0
 703  011D  0080     E  	mov _SysAO[23],a
文件：Co.c         编译器版本 HGASM 0202 页次25

 703  011E  0700     E  	mov a,rb
 703  011F  0D04        	or a,4
 703  0120  0080     E  	mov _SysAO[22],a
 704  0121              #line 704 "e:\x-sense\xp02\htba45f5260-xp0456\src\Co.c"
 704  0121  0F23        	mov a,35
 704  0122  0080     E  	mov _SysteSetSig_2[0],a
 704  0123  1F00     E  	clr _SysteSetSig_2[1]
 704  0124              	fcall _SysteSetSig
 704  012B  2800     R  	jmp _L56
 704  012C              _L53:
 708  012C              #line 708 "e:\x-sense\xp02\htba45f5260-xp0456\src\Co.c"
 708  012C  0F1B        	mov a,27
 708  012D  0300     E  	add a,rd
 708  012E  0083        	mov mp,a
 708  012F  0F00        	mov a,0
 708  0130  1300     E  	adc a,re
 708  0131  0084        	mov sbp,a
 708  0132              	fcall _Crom2Prom
 708  0139  0080     R  	mov _COSelfCheck_2[2],a
 708  013A  0F01        	mov a,1
 708  013B  0200     R  	sub a,_COSelfCheck_2[2]
 708  013C  3C0A        	sz c
 708  013D  2800     R  	jmp _L54
 710  013E              #line 710 "e:\x-sense\xp02\htba45f5260-xp0456\src\Co.c"
 710  013E  0F02        	mov a,2
 710  013F  0082        	mov ir,a
 712  0140              #line 712 "e:\x-sense\xp02\htba45f5260-xp0456\src\Co.c"
 712  0140  0700     E  	mov a,_SysAO[22]
 712  0141  0080     E  	mov rb,a
 712  0142  0700     E  	mov a,_SysAO[23]
 712  0143  0080     E  	mov rc,a
 712  0144  3C00     E  	sz rb.1
 712  0145  2800     R  	jmp _L57
 714  0146              #line 714 "e:\x-sense\xp02\htba45f5260-xp0456\src\Co.c"
 714  0146  0700     E  	mov a,rc
 714  0147  0D00        	or a,0
 714  0148  0080     E  	mov _SysAO[23],a
 714  0149  0700     E  	mov a,rb
 714  014A  0D02        	or a,2
 714  014B  0080     E  	mov _SysAO[22],a
 715  014C              #line 715 "e:\x-sense\xp02\htba45f5260-xp0456\src\Co.c"
 715  014C  0F23        	mov a,35
 715  014D  0080     E  	mov _SysteSetSig_2[0],a
 715  014E  1F00     E  	clr _SysteSetSig_2[1]
 715  014F              	fcall _SysteSetSig
 715  0156  2800     R  	jmp _L57
 715  0157              _L56:
 700  0157              #line 700 "e:\x-sense\xp02\htba45f5260-xp0456\src\Co.c"
 700  0157  0F03        	mov a,3
 700  0158  0080     E  	mov rb,a
 700  0159  1F00     E  	clr rc
 700  015A  2800     R  	jmp _L54
 700  015B              _L57:
 711  015B              #line 711 "e:\x-sense\xp02\htba45f5260-xp0456\src\Co.c"
 711  015B  0F04        	mov a,4
 711  015C  0080     E  	mov rb,a
 711  015D  1F00     E  	clr rc
 711  015E              _L54:
 720  015E              #line 720 "e:\x-sense\xp02\htba45f5260-xp0456\src\Co.c"
 720  015E  0700     E  	mov a,rb
文件：Co.c         编译器版本 HGASM 0202 页次26

 720  015F  0080     E  	mov ra,a
 720  0160  0700     E  	mov a,rc
 720  0161  0080     E  	mov rb,a
 720  0162  0003        	ret
 720  0163              _COSelfCheck endp
 720  0163              #line 720 "e:\x-sense\xp02\htba45f5260-xp0456\src\Co.c"
 720  0163              #pragma debug scope 1 1
 720  0163              public _PollingCo
 720  0163              #pragma debug scope 15 1
 730  0163              #line 730 "e:\x-sense\xp02\htba45f5260-xp0456\src\Co.c"
 730  0000              _PollingCo .section 'code'
 730  0000              _PollingCo proc
 730  0000              public _PollingCo_2
 730  0000  0002[           local _PollingCo_2 db 2 dup(?)	; 2,0
            00
            ]
 730  0002              #pragma debug pointer 44 7 15
 730  0002              #pragma debug pointer 44 7 15
 730  0002              #pragma debug variable 44 15 _PollingCo_2+0 "pTxt"
 732  0002              #line 732 "e:\x-sense\xp02\htba45f5260-xp0456\src\Co.c"
 732  0000  0700     R  	mov a,_PollingCo_2[0]
 732  0001  0500     R  	or a,_PollingCo_2[1]
 732  0002  3D0A        	sz z
 732  0003  2800     R  	jmp _L61
 732  0004              #line 732 "e:\x-sense\xp02\htba45f5260-xp0456\src\Co.c"
 732  0004  0700     R  	mov a,_PollingCo_2[0]
 732  0005  0C01        	xor a,1
 732  0006  0500     R  	or a,_PollingCo_2[1]
 732  0007  3D0A        	sz z
 732  0008  2800     R  	jmp _L62
 732  0009  0700     R  	mov a,_PollingCo_2[0]
 732  000A  0C02        	xor a,2
 732  000B  0500     R  	or a,_PollingCo_2[1]
 732  000C  3D0A        	sz z
 732  000D  2800     R  	jmp _L63
 732  000E  0700     R  	mov a,_PollingCo_2[0]
 732  000F  0C03        	xor a,3
 732  0010  0500     R  	or a,_PollingCo_2[1]
 732  0011  390A        	snz z
 732  0012  2800     R  	jmp _L59
 747  0013              #line 747 "e:\x-sense\xp02\htba45f5260-xp0456\src\Co.c"
 747  0013  0F24        	mov a,36
 747  0014  0080     E  	mov _SysteSetSig_2[0],a
 747  0015  1F00     E  	clr _SysteSetSig_2[1]
 747  0016  2800     R  	jmp _L65
 747  0017              _L61:
 735  0017              #line 735 "e:\x-sense\xp02\htba45f5260-xp0456\src\Co.c"
 735  0017  0F19        	mov a,25
 735  0018  0080     E  	mov _SysteSetSig_2[0],a
 735  0019  1F00     E  	clr _SysteSetSig_2[1]
 735  001A  2800     R  	jmp _L65
 735  001B              _L62:
 739  001B              #line 739 "e:\x-sense\xp02\htba45f5260-xp0456\src\Co.c"
 739  001B  0F1D        	mov a,29
 739  001C  0080     E  	mov _SysteSetSig_2[0],a
 739  001D  1F00     E  	clr _SysteSetSig_2[1]
 739  001E  2800     R  	jmp _L65
 739  001F              _L63:
 743  001F              #line 743 "e:\x-sense\xp02\htba45f5260-xp0456\src\Co.c"
 743  001F  0F1E        	mov a,30
文件：Co.c         编译器版本 HGASM 0202 页次27

 743  0020  0080     E  	mov _SysteSetSig_2[0],a
 743  0021  1F00     E  	clr _SysteSetSig_2[1]
 743  0022              _L65:
 747  0022              #line 747 "e:\x-sense\xp02\htba45f5260-xp0456\src\Co.c"
 747  0022              	fcall _SysteSetSig
 747  0029              _L59:
 747  0029  0003        	ret
 747  002A              _PollingCo endp
 747  002A              #line 747 "e:\x-sense\xp02\htba45f5260-xp0456\src\Co.c"
 747  002A              #pragma debug scope 1 1
 747  0019              @crom	.section 'crom'
 747  0019              _LC5:
 747  0019              	db 053h,074h,061h,072h,074h,020h,043h,061h,069h,06ch
 747  001E              	db 020h,043h,06fh,0ah,00h
 747  0020              @crom	.section 'crom'
 747  0020              _LC6:
 747  0020              	db 074h,065h,06dh,070h,020h,065h,072h,072h,03dh,025h
 747  0025              	db 064h,0ah,00h
 747  0027              @crom	.section 'crom'
 747  0027              _LC7:
 747  0027              	db 062h,061h,074h,020h,065h,072h,072h,03dh,025h,064h
 747  002C              	db 06dh,056h,0ah,00h
 747  002E              @crom	.section 'crom'
 747  002E              _LC8:
 747  002E              	db 043h,06fh,05fh,061h,064h,063h,03dh,025h,064h,0ah
 747  0033              	db 00h
 747  0033              @crom	.section 'crom'
 747  0033              _LC9:
 747  0033              	db 053h,074h,065h,070h,032h,03dh,025h,064h,06dh,056h
 747  0038              	db 02ch,020h,00h
 747  003A              @crom	.section 'crom'
 747  003A              _LC10:
 747  003A              	db 054h,03dh,025h,064h,0ah,00h
 747  003D              @crom	.section 'crom'
 747  003D              _LC11:
 747  003D              	db 053h,06ch,06fh,070h,065h,03dh,025h,064h,0ah,00h
 747  0042              @crom	.section 'crom'
 747  0042              _LC12:
 747  0042              	db 053h,074h,065h,070h,033h,03dh,025h,064h,06dh,056h
 747  0047              	db 02ch,020h,00h
 747  0048              @crom	.section 'crom'
 747  0048              _LC13:
 747  0048              	db 043h,04fh,041h,04fh,02eh,070h,070h,06dh,03dh,025h
 747  004D              	db 064h,0ah,00h
 747  004F              @crom	.section 'crom'
 747  004F              _LC14:
 747  004F              	db 053h,074h,065h,070h,031h,03dh,025h,064h,06dh,056h
 747  0054              	db 02ch,020h,00h
 747  0055              @crom	.section 'crom'
 747  0055              _LC15:
 747  0055              	db 06fh,066h,066h,073h,065h,074h,03dh,025h,064h,0ah
 747  005A              	db 00h
 747  005B              public _CoCaliMain
 747  005B              #pragma debug scope 16 1
 763  005B              #line 763 "e:\x-sense\xp02\htba45f5260-xp0456\src\Co.c"
 763  0000              _CoCaliMain .section 'code'
 763  0000              _CoCaliMain proc
 763  0000  0007[           local _CoCaliMain_2 db 7 dup(?)	; 0,7
            00
            ]
文件：Co.c         编译器版本 HGASM 0202 页次28

 763  0007              #pragma debug variable 10 16 _CoCaliMain_2+3 "BatVol"
 763  0007              #pragma debug variable 10 16 _CoCaliMain_2+0 "ppm"
 763  0007              #pragma debug variable 10 16 _CoCaliMain_2+0 "Co_Adc"
 763  0007              #pragma debug variable 10 16 _CoCaliMain_2+5 "CoAdcVoltage"
 774  0007              #line 774 "e:\x-sense\xp02\htba45f5260-xp0456\src\Co.c"
 774  0000  0700     E  	mov a,_SysAO[4]
 774  0001  0C01        	xor a,1
 774  0002  0500     E  	or a,_SysAO[5]
 774  0003  3D0A        	sz z
 774  0004  2800     R  	jmp _L68
 774  0005              #line 774 "e:\x-sense\xp02\htba45f5260-xp0456\src\Co.c"
 774  0005  0700     E  	mov a,_SysAO[4]
 774  0006  0C19        	xor a,25
 774  0007  0500     E  	or a,_SysAO[5]
 774  0008  390A        	snz z
 774  0009  2800     R  	jmp _L66
 774  000A  2800     R  	jmp _L88
 774  000B              _L68:
 777  000B              #line 777 "e:\x-sense\xp02\htba45f5260-xp0456\src\Co.c"
 777  000B  1F00     R  	clr ___Delay_Cnt_3205[0]
 778  000C              #line 778 "e:\x-sense\xp02\htba45f5260-xp0456\src\Co.c"
 778  000C  1F00     R  	clr ___CailTemperature_3206[0]
 778  000D  1F00     R  	clr ___CailTemperature_3206[1]
 779  000E              #line 779 "e:\x-sense\xp02\htba45f5260-xp0456\src\Co.c"
 779  000E  1F00     R  	clr ___CailCoAdcValue_3207[0]
 779  000F  1F00     R  	clr ___CailCoAdcValue_3207[1]
 781  0010              #line 781 "e:\x-sense\xp02\htba45f5260-xp0456\src\Co.c"
 781  0010              	fcall _LoadCOData
 781  0017  0700     E  	mov a,ra
 781  0018  0500     E  	or a,rb
 781  0019  390A        	snz z
 781  001A  2800     R  	jmp _L70
 783  001B              #line 783 "e:\x-sense\xp02\htba45f5260-xp0456\src\Co.c"
 783  001B  0F00     R  	mov a,low offset _LC5
 783  001C  0080     E  	mov _printf_2[0],a
 783  001D  0F00     R  	mov a,high offset _LC5
 783  001E  0080     E  	mov _printf_2[1],a
 783  001F              	fcall _printf
 784  0026              #line 784 "e:\x-sense\xp02\htba45f5260-xp0456\src\Co.c"
 784  0026  1F00     E  	clr _TmrInsertTimer_2[4]
 784  0027  1F00     E  	clr _TmrInsertTimer_2[5]
 784  0028  0FF4        	mov a,-12
 784  0029  0080     E  	mov _TmrInsertTimer_2[2],a
 784  002A  0F01        	mov a,1
 784  002B  0080     E  	mov _TmrInsertTimer_2[3],a
 784  002C  0F07        	mov a,7
 784  002D  0080     E  	mov _TmrInsertTimer_2[0],a
 784  002E  1F00     E  	clr _TmrInsertTimer_2[1]
 784  002F              	fcall _TmrInsertTimer
 785  0036              #line 785 "e:\x-sense\xp02\htba45f5260-xp0456\src\Co.c"
 785  0036              	fcall _BatteryCheckHandle
 785  003D  0700     E  	mov a,ra
 785  003E  0080     R  	mov _CoCaliMain_2[3],a
 785  003F  0700     E  	mov a,rb
 785  0040  0080     R  	mov _CoCaliMain_2[4],a
 786  0041              #line 786 "e:\x-sense\xp02\htba45f5260-xp0456\src\Co.c"
 786  0041              	fcall _GetSmokeTemp
 786  0048  0080     E  	mov ra,a
 788  0049              #line 788 "e:\x-sense\xp02\htba45f5260-xp0456\src\Co.c"
 788  0049  0FDA        	mov a,218
文件：Co.c         编译器版本 HGASM 0202 页次29

 788  004A  0380     E  	addm a,ra
 788  004B  0F0E        	mov a,14
 788  004C  0200     E  	sub a,ra
 788  004D  3C0A        	sz c
 788  004E  2800     R  	jmp _L71
 788  004F              _L86:
 795  004F              #line 795 "e:\x-sense\xp02\htba45f5260-xp0456\src\Co.c"
 795  004F  0700     E  	mov a,_SmokeAO[0]
 795  0050  0080     E  	mov _printf_2[2],a
 795  0051  1F00     E  	clr _printf_2[3]
 795  0052  0F00     R  	mov a,low offset _LC6
 795  0053  0080     E  	mov _printf_2[0],a
 795  0054  0F00     R  	mov a,high offset _LC6
 795  0055  0080     E  	mov _printf_2[1],a
 795  0056              	fcall _printf
 796  005D              #line 796 "e:\x-sense\xp02\htba45f5260-xp0456\src\Co.c"
 796  005D  0F05        	mov a,5
 796  005E  0080     E  	mov _CailRes_2[0],a
 796  005F  1F00     E  	clr _CailRes_2[1]
 796  0060  0F00        	mov a,0
 796  0061              	fcall _CailRes
 796  0068  2800     R  	jmp _L86
 796  0069              _L71:
 799  0069              #line 799 "e:\x-sense\xp02\htba45f5260-xp0456\src\Co.c"
 799  0069  0F27        	mov a,39
 799  006A  0200     R  	sub a,_CoCaliMain_2[3]
 799  006B  0F0A        	mov a,10
 799  006C  1200     R  	sbc a,_CoCaliMain_2[4]
 799  006D  380A        	snz c
 799  006E  2800     R  	jmp _L66
 799  006F              _L87:
 803  006F              #line 803 "e:\x-sense\xp02\htba45f5260-xp0456\src\Co.c"
 803  006F  0700     R  	mov a,_CoCaliMain_2[3]
 803  0070  0080     E  	mov _printf_2[2],a
 803  0071  0700     R  	mov a,_CoCaliMain_2[4]
 803  0072  0080     E  	mov _printf_2[3],a
 803  0073  0F00     R  	mov a,low offset _LC7
 803  0074  0080     E  	mov _printf_2[0],a
 803  0075  0F00     R  	mov a,high offset _LC7
 803  0076  0080     E  	mov _printf_2[1],a
 803  0077              	fcall _printf
 804  007E              #line 804 "e:\x-sense\xp02\htba45f5260-xp0456\src\Co.c"
 804  007E  0F06        	mov a,6
 804  007F  0080     E  	mov _CailRes_2[0],a
 804  0080  1F00     E  	clr _CailRes_2[1]
 804  0081  0F00        	mov a,0
 804  0082              	fcall _CailRes
 804  0089  2800     R  	jmp _L87
 804  008A              _L70:
 813  008A              #line 813 "e:\x-sense\xp02\htba45f5260-xp0456\src\Co.c"
 813  008A              	fcall _PowerOnDisplay
 814  0091              #line 814 "e:\x-sense\xp02\htba45f5260-xp0456\src\Co.c"
 814  0091  1F00     E  	clr _SysAO[0]
 814  0092  1F00     E  	clr _SysAO[1]
 814  0093  2800     R  	jmp _L66
 814  0094              _L88:
 819  0094              #line 819 "e:\x-sense\xp02\htba45f5260-xp0456\src\Co.c"
 819  0094              	fcall _GetSmokeTemp
 819  009B  0080     R  	mov _CoCaliMain_2[3],a
 820  009C              #line 820 "e:\x-sense\xp02\htba45f5260-xp0456\src\Co.c"
文件：Co.c         编译器版本 HGASM 0202 页次30

 820  009C  1F00     E  	clr _GetAdcSample_2[2]
 820  009D  1F00     E  	clr _GetAdcSample_2[3]
 820  009E  0F02        	mov a,2
 820  009F  0080     E  	mov _GetAdcSample_2[0],a
 820  00A0  1F00     E  	clr _GetAdcSample_2[1]
 820  00A1              	fcall _GetAdcSample
 820  00A8  0700     E  	mov a,ra
 820  00A9  0080     R  	mov _CoCaliMain_2[0],a
 820  00AA  0700     E  	mov a,rb
 820  00AB  0080     R  	mov _CoCaliMain_2[1],a
 823  00AC              #line 823 "e:\x-sense\xp02\htba45f5260-xp0456\src\Co.c"
 823  00AC  0700     R  	mov a,___Delay_Cnt_3205[0]
 823  00AD  0080     E  	mov _printf_2[2],a
 823  00AE  1F00     E  	clr _printf_2[3]
 823  00AF  0F00     R  	mov a,low offset _LC4
 823  00B0  0080     E  	mov _printf_2[0],a
 823  00B1  0F00     R  	mov a,high offset _LC4
 823  00B2  0080     E  	mov _printf_2[1],a
 823  00B3              	fcall _printf
 824  00BA              #line 824 "e:\x-sense\xp02\htba45f5260-xp0456\src\Co.c"
 824  00BA  0700     R  	mov a,_CoCaliMain_2[0]
 824  00BB  0080     E  	mov _printf_2[2],a
 824  00BC  0700     R  	mov a,_CoCaliMain_2[1]
 824  00BD  0080     E  	mov _printf_2[3],a
 824  00BE  0F00     R  	mov a,low offset _LC8
 824  00BF  0080     E  	mov _printf_2[0],a
 824  00C0  0F00     R  	mov a,high offset _LC8
 824  00C1  0080     E  	mov _printf_2[1],a
 824  00C2              	fcall _printf
 826  00C9              #line 826 "e:\x-sense\xp02\htba45f5260-xp0456\src\Co.c"
 826  00C9  0700     R  	mov a,_CoCaliMain_2[0]
 826  00CA  0080     E  	mov _GetVol_2[2],a
 826  00CB  0700     R  	mov a,_CoCaliMain_2[1]
 826  00CC  0080     E  	mov _GetVol_2[3],a
 826  00CD  0FE4        	mov a,-28
 826  00CE  0080     E  	mov _GetVol_2[0],a
 826  00CF  0F0C        	mov a,12
 826  00D0  0080     E  	mov _GetVol_2[1],a
 826  00D1              	fcall _GetVol
 826  00D8  0700     E  	mov a,ra
 826  00D9  0080     R  	mov _CoCaliMain_2[5],a
 826  00DA  0700     E  	mov a,rb
 826  00DB  0080     R  	mov _CoCaliMain_2[6],a
 828  00DC              #line 828 "e:\x-sense\xp02\htba45f5260-xp0456\src\Co.c"
 828  00DC  1480     R  	inc ___Delay_Cnt_3205[0]
 829  00DD              #line 829 "e:\x-sense\xp02\htba45f5260-xp0456\src\Co.c"
 829  00DD  0700     R  	mov a,_COAO[4]
 829  00DE  0080     R  	mov _CoCaliMain_2[2],a
 829  00DF  1700     R  	sdza _CoCaliMain_2[2]
 829  00E0  2800     R  	jmp _L75
 831  00E1              #line 831 "e:\x-sense\xp02\htba45f5260-xp0456\src\Co.c"
 831  00E1  0F03        	mov a,3
 831  00E2  0080     E  	mov _CailStepDisplay_2[0],a
 831  00E3  1F00     E  	clr _CailStepDisplay_2[1]
 831  00E4              	fcall _CailStepDisplay
 832  00EB              #line 832 "e:\x-sense\xp02\htba45f5260-xp0456\src\Co.c"
 832  00EB  0700     R  	mov a,___Delay_Cnt_3205[0]
 832  00EC  0080     R  	mov _CoCaliMain_2[2],a
 832  00ED  0F78        	mov a,120
 832  00EE  0200     R  	sub a,_CoCaliMain_2[2]
文件：Co.c         编译器版本 HGASM 0202 页次31

 832  00EF  3C0A        	sz c
 832  00F0  2800     R  	jmp _L66
 834  00F1              #line 834 "e:\x-sense\xp02\htba45f5260-xp0456\src\Co.c"
 834  00F1  0700     R  	mov a,___CailCoAdcValue_3207[0]
 834  00F2  0300     R  	add a,_CoCaliMain_2[0]
 834  00F3  0080     E  	mov rd,a
 834  00F4  0700     R  	mov a,___CailCoAdcValue_3207[1]
 834  00F5  1300     R  	adc a,_CoCaliMain_2[1]
 834  00F6  0080     E  	mov re,a
 834  00F7  0700     E  	mov a,rd
 834  00F8  0080     R  	mov ___CailCoAdcValue_3207[0],a
 834  00F9  0700     E  	mov a,re
 834  00FA  0080     R  	mov ___CailCoAdcValue_3207[1],a
 835  00FB              #line 835 "e:\x-sense\xp02\htba45f5260-xp0456\src\Co.c"
 835  00FB  0700     R  	mov a,_CoCaliMain_2[3]
 835  00FC  0300     R  	add a,___CailTemperature_3206[0]
 835  00FD  0080     E  	mov rb,a
 835  00FE  1F05        	clr acc
 835  00FF  1300     R  	adc a,___CailTemperature_3206[1]
 835  0100  0080     E  	mov rc,a
 835  0101  0700     E  	mov a,rb
 835  0102  0080     R  	mov ___CailTemperature_3206[0],a
 835  0103  0700     E  	mov a,rc
 835  0104  0080     R  	mov ___CailTemperature_3206[1],a
 836  0105              #line 836 "e:\x-sense\xp02\htba45f5260-xp0456\src\Co.c"
 836  0105  0F87        	mov a,135
 836  0106  0200     R  	sub a,_CoCaliMain_2[2]
 836  0107  3C0A        	sz c
 836  0108  2800     R  	jmp _L66
 838  0109              #line 838 "e:\x-sense\xp02\htba45f5260-xp0456\src\Co.c"
 838  0109  1F00     R  	clr ___Delay_Cnt_3205[0]
 839  010A              #line 839 "e:\x-sense\xp02\htba45f5260-xp0456\src\Co.c"
 839  010A  0700     E  	mov a,rd
 839  010B  0080     E  	mov rf,a
 839  010C  0700     E  	mov a,re
 839  010D  0080     E  	mov rg,a
 839  010E  0F04        	mov a,4
 839  010F              _LI1:
 839  010F  340A        	clr c
 839  0110  1B80     E  	rrc rg
 839  0111  1B80     E  	rrc rf
 839  0112  1785        	sdz acc
 839  0113  2800     R  	jmp _LI1
 839  0114  0700     E  	mov a,rf
 839  0115  0080     R  	mov _CoCaliMain_2[0],a
 839  0116  0700     E  	mov a,rg
 839  0117  0080     R  	mov _CoCaliMain_2[1],a
 839  0118  0700     R  	mov a,_CoCaliMain_2[0]
 839  0119  0080     R  	mov ___CailCoAdcValue_3207[0],a
 839  011A  0700     R  	mov a,_CoCaliMain_2[1]
 839  011B  0080     R  	mov ___CailCoAdcValue_3207[1],a
 840  011C              #line 840 "e:\x-sense\xp02\htba45f5260-xp0456\src\Co.c"
 840  011C  0F04        	mov a,4
 840  011D              _LI2:
 840  011D  340A        	clr c
 840  011E  1B80     E  	rrc rc
 840  011F  1B80     E  	rrc rb
 840  0120  1785        	sdz acc
 840  0121  2800     R  	jmp _LI2
 840  0122  0700     E  	mov a,rb
文件：Co.c         编译器版本 HGASM 0202 页次32

 840  0123  0080     R  	mov ___CailTemperature_3206[0],a
 840  0124  0700     E  	mov a,rc
 840  0125  0080     R  	mov ___CailTemperature_3206[1],a
 843  0126              #line 843 "e:\x-sense\xp02\htba45f5260-xp0456\src\Co.c"
 843  0126  340A        	clr c
 843  0127  1A80     E  	rlc rb
 843  0128  1A80     E  	rlc rc
 843  0129  0F00     R  	mov a,low offset _co_temp_offset_rate
 843  012A  0300     E  	add a,rb
 843  012B  0083        	mov mp,a
 843  012C  0F00     R  	mov a,high offset _co_temp_offset_rate
 843  012D  1300     E  	adc a,rc
 843  012E  0084        	mov sbp,a
 843  012F              	fcall _Crom2Prom
 843  0136  0080     E  	mov rf,a
 843  0137              	fcall _Crom2PromNext
 843  013E  0080     E  	mov rg,a
 843  013F  0700     R  	mov a,_COAO[7]
 843  0140  0080     E  	mov _builtin_holtek_mulsi3_2[0],a
 843  0141  0700     R  	mov a,_COAO[8]
 843  0142  0080     E  	mov _builtin_holtek_mulsi3_2[1],a
 843  0143  1F00     E  	clr _builtin_holtek_mulsi3_2[2]
 843  0144  1F00     E  	clr _builtin_holtek_mulsi3_2[3]
 843  0145  0700     E  	mov a,rf
 843  0146  0080     E  	mov _builtin_holtek_mulsi3_2[4],a
 843  0147  0700     E  	mov a,rg
 843  0148  0080     E  	mov _builtin_holtek_mulsi3_2[5],a
 843  0149  1F00     E  	clr _builtin_holtek_mulsi3_2[6]
 843  014A  1F00     E  	clr _builtin_holtek_mulsi3_2[7]
 843  014B              	fcall _builtin_holtek_mulsi3
 843  0152  0700     E  	mov a,_builtin_holtek_mulsi3_2[8]
 843  0153  0080     E  	mov rd,a
 843  0154  0700     E  	mov a,_builtin_holtek_mulsi3_2[9]
 843  0155  0080     E  	mov re,a
 843  0156  0700     E  	mov a,_builtin_holtek_mulsi3_2[10]
 843  0157  0080     E  	mov rf,a
 843  0158  0700     E  	mov a,_builtin_holtek_mulsi3_2[11]
 843  0159  0080     E  	mov rg,a
 843  015A  1F00     E  	clr _builtin_holtek_udivmodsi4_2[12]
 843  015B  0700     E  	mov a,rd  
 843  015C  0080     E  	mov _builtin_holtek_udivmodsi4_2[0],a  
 843  015D  0700     E  	mov a,re  
 843  015E  0080     E  	mov _builtin_holtek_udivmodsi4_2[1],a
 843  015F  0700     E  	mov a,rf  
 843  0160  0080     E  	mov _builtin_holtek_udivmodsi4_2[2],a  
 843  0161  0700     E  	mov a,rg  
 843  0162  0080     E  	mov _builtin_holtek_udivmodsi4_2[3],a
 843  0163  0FE8        	mov a,232  
 843  0164  0080     E  	mov _builtin_holtek_udivmodsi4_2[4],a  
 843  0165  0F03        	mov a,3  
 843  0166  0080     E  	mov _builtin_holtek_udivmodsi4_2[5],a
 843  0167  1F00     E  	clr _builtin_holtek_udivmodsi4_2[6]
 843  0168  1F00     E  	clr _builtin_holtek_udivmodsi4_2[7]
 843  0169              	fcall _builtin_holtek_udivmodsi4
 843  0170  0700     E  	mov a,_builtin_holtek_udivmodsi4_2[0]  
 843  0171  0080     E  	mov rd,a  
 843  0172  0700     E  	mov a,_builtin_holtek_udivmodsi4_2[1]  
 843  0173  0080     E  	mov re,a
 843  0174  0700     E  	mov a,_builtin_holtek_udivmodsi4_2[2]  
 843  0175  0080     E  	mov rf,a  
文件：Co.c         编译器版本 HGASM 0202 页次33

 843  0176  0700     E  	mov a,_builtin_holtek_udivmodsi4_2[3]  
 843  0177  0080     E  	mov rg,a
 845  0178              #line 845 "e:\x-sense\xp02\htba45f5260-xp0456\src\Co.c"
 845  0178  0700     R  	mov a,_CoCaliMain_2[0]
 845  0179  0280     E  	subm a,rd
 845  017A  0700     R  	mov a,_CoCaliMain_2[1]
 845  017B  1280     E  	sbcm a,re
 845  017C  1F00     E  	clr _builtin_holtek_udivmodhi4_2[6]
 845  017D  0700     E  	mov a,rd  
 845  017E  0080     E  	mov _builtin_holtek_udivmodhi4_2[0],a  
 845  017F  0700     E  	mov a,re  
 845  0180  0080     E  	mov _builtin_holtek_udivmodhi4_2[1],a
 845  0181  0F0F        	mov a,15  
 845  0182  0080     E  	mov _builtin_holtek_udivmodhi4_2[2],a  
 845  0183  1F00     E  	clr _builtin_holtek_udivmodhi4_2[3]
 845  0184              	fcall _builtin_holtek_udivmodhi4
 845  018B  0700     E  	mov a,_builtin_holtek_udivmodhi4_2[0]  
 845  018C  0080     E  	mov rd,a  
 845  018D  0700     E  	mov a,_builtin_holtek_udivmodhi4_2[1]  
 845  018E  0080     E  	mov re,a
 845  018F  0700     E  	mov a,rd
 845  0190  0080     E  	mov rd,a
 845  0191  0700     E  	mov a,re
 845  0192  0080     E  	mov re,a
 845  0193  1F00     E  	clr rf
 845  0194  1F00     E  	clr rg
 847  0195              #line 847 "e:\x-sense\xp02\htba45f5260-xp0456\src\Co.c"
 847  0195  0700     E  	mov a,rd
 847  0196  0080     E  	mov _builtin_holtek_mulsi3_2[0],a
 847  0197  0700     E  	mov a,re
 847  0198  0080     E  	mov _builtin_holtek_mulsi3_2[1],a
 847  0199  0700     E  	mov a,rf
 847  019A  0080     E  	mov _builtin_holtek_mulsi3_2[2],a
 847  019B  0700     E  	mov a,rg
 847  019C  0080     E  	mov _builtin_holtek_mulsi3_2[3],a
 847  019D  0FE8        	mov a,232
 847  019E  0080     E  	mov _builtin_holtek_mulsi3_2[4],a
 847  019F  0F03        	mov a,3
 847  01A0  0080     E  	mov _builtin_holtek_mulsi3_2[5],a
 847  01A1  0F00        	mov a,0
 847  01A2  0080     E  	mov _builtin_holtek_mulsi3_2[6],a
 847  01A3  0F00        	mov a,0
 847  01A4  0080     E  	mov _builtin_holtek_mulsi3_2[7],a
 847  01A5              	fcall _builtin_holtek_mulsi3
 847  01AC  0700     E  	mov a,_builtin_holtek_mulsi3_2[8]
 847  01AD  0080     E  	mov rd,a
 847  01AE  0700     E  	mov a,_builtin_holtek_mulsi3_2[9]
 847  01AF  0080     E  	mov re,a
 847  01B0  0700     E  	mov a,_builtin_holtek_mulsi3_2[10]
 847  01B1  0080     E  	mov rf,a
 847  01B2  0700     E  	mov a,_builtin_holtek_mulsi3_2[11]
 847  01B3  0080     E  	mov rg,a
 847  01B4  0F00     R  	mov a,low offset _co_temp_slope_rate
 847  01B5  0300     E  	add a,rb
 847  01B6  0083        	mov mp,a
 847  01B7  0F00     R  	mov a,high offset _co_temp_slope_rate
 847  01B8  1300     E  	adc a,rc
 847  01B9  0084        	mov sbp,a
 847  01BA              	fcall _Crom2Prom
 847  01C1  0080     E  	mov rb,a
文件：Co.c         编译器版本 HGASM 0202 页次34

 847  01C2              	fcall _Crom2PromNext
 847  01C9  0080     E  	mov rc,a
 847  01CA  1F00     E  	clr _builtin_holtek_udivmodsi4_2[12]
 847  01CB  0700     E  	mov a,rd  
 847  01CC  0080     E  	mov _builtin_holtek_udivmodsi4_2[0],a  
 847  01CD  0700     E  	mov a,re  
 847  01CE  0080     E  	mov _builtin_holtek_udivmodsi4_2[1],a
 847  01CF  0700     E  	mov a,rf  
 847  01D0  0080     E  	mov _builtin_holtek_udivmodsi4_2[2],a  
 847  01D1  0700     E  	mov a,rg  
 847  01D2  0080     E  	mov _builtin_holtek_udivmodsi4_2[3],a
 847  01D3  0700     E  	mov a,rb  
 847  01D4  0080     E  	mov _builtin_holtek_udivmodsi4_2[4],a  
 847  01D5  0700     E  	mov a,rc  
 847  01D6  0080     E  	mov _builtin_holtek_udivmodsi4_2[5],a
 847  01D7  1F00     E  	clr _builtin_holtek_udivmodsi4_2[6]
 847  01D8  1F00     E  	clr _builtin_holtek_udivmodsi4_2[7]
 847  01D9              	fcall _builtin_holtek_udivmodsi4
 847  01E0  0700     E  	mov a,_builtin_holtek_udivmodsi4_2[0]  
 847  01E1  0080     E  	mov rd,a  
 847  01E2  0700     E  	mov a,_builtin_holtek_udivmodsi4_2[1]  
 847  01E3  0080     E  	mov re,a
 847  01E4  0700     E  	mov a,_builtin_holtek_udivmodsi4_2[2]  
 847  01E5  0080     E  	mov rf,a  
 847  01E6  0700     E  	mov a,_builtin_holtek_udivmodsi4_2[3]  
 847  01E7  0080     E  	mov rg,a
 847  01E8  0700     E  	mov a,rd
 847  01E9  0080     R  	mov _COAO[23],a
 847  01EA  0700     E  	mov a,re
 847  01EB  0080     R  	mov _COAO[24],a
 849  01EC              #line 849 "e:\x-sense\xp02\htba45f5260-xp0456\src\Co.c"
 849  01EC  0FE6        	mov a,230
 849  01ED  0380     E  	addm a,rd
 849  01EE  0FFF        	mov a,255
 849  01EF  1380     E  	adcm a,re
 849  01F0  0F24        	mov a,36
 849  01F1  0200     E  	sub a,rd
 849  01F2  0F00        	mov a,0
 849  01F3  1200     E  	sbc a,re
 849  01F4  380A        	snz c
 849  01F5  2800     R  	jmp _L83
 852  01F6              #line 852 "e:\x-sense\xp02\htba45f5260-xp0456\src\Co.c"
 852  01F6  0F02        	mov a,2
 852  01F7  0080     R  	mov _COAO[4],a
 853  01F8              #line 853 "e:\x-sense\xp02\htba45f5260-xp0456\src\Co.c"
 853  01F8  1F00     E  	clr _E2promWrite_2[0]
 853  01F9  0F0A        	mov a,10
 853  01FA              	fcall _E2promWrite
 854  0201              #line 854 "e:\x-sense\xp02\htba45f5260-xp0456\src\Co.c"
 854  0201  0700     R  	mov a,_COAO[23]
 854  0202  0080     E  	mov _E2promWrite_2[0],a
 854  0203  0F0B        	mov a,11
 854  0204              	fcall _E2promWrite
 855  020B              #line 855 "e:\x-sense\xp02\htba45f5260-xp0456\src\Co.c"
 855  020B  0700     R  	mov a,_COAO[4]
 855  020C  0080     E  	mov _E2promWrite_2[0],a
 855  020D  0F09        	mov a,9
 855  020E              	fcall _E2promWrite
 856  0215              #line 856 "e:\x-sense\xp02\htba45f5260-xp0456\src\Co.c"
 856  0215  0700     R  	mov a,___CailTemperature_3206[0]
文件：Co.c         编译器版本 HGASM 0202 页次35

 856  0216  0080     E  	mov _E2promWrite_2[0],a
 856  0217  0F0F        	mov a,15
 856  0218              	fcall _E2promWrite
 858  021F              #line 858 "e:\x-sense\xp02\htba45f5260-xp0456\src\Co.c"
 858  021F  0F01        	mov a,1
 858  0220  0080     R  	mov _CoCaliMain_2[0],a
 858  0221  2800     R  	jmp _L77
 858  0222              _L83:
 862  0222              #line 862 "e:\x-sense\xp02\htba45f5260-xp0456\src\Co.c"
 862  0222  1F00     R  	clr _CoCaliMain_2[0]
 862  0223              _L77:
 868  0223              #line 868 "e:\x-sense\xp02\htba45f5260-xp0456\src\Co.c"
 868  0223  0700     R  	mov a,_CoCaliMain_2[5]
 868  0224  0080     E  	mov _printf_2[2],a
 868  0225  0700     R  	mov a,_CoCaliMain_2[6]
 868  0226  0080     E  	mov _printf_2[3],a
 868  0227  0F00     R  	mov a,low offset _LC9
 868  0228  0080     E  	mov _printf_2[0],a
 868  0229  0F00     R  	mov a,high offset _LC9
 868  022A  0080     E  	mov _printf_2[1],a
 868  022B              	fcall _printf
 869  0232              #line 869 "e:\x-sense\xp02\htba45f5260-xp0456\src\Co.c"
 869  0232  0FEC        	mov a,236
 869  0233  0300     R  	add a,_CoCaliMain_2[3]
 869  0234  0080     E  	mov _printf_2[2],a
 869  0235  0FFF        	mov a,255
 869  0236  1F00     E  	clr _printf_2[3]
 869  0237  1380     E  	adcm a,_printf_2[3]
 869  0238  0F00     R  	mov a,low offset _LC10
 869  0239  0080     E  	mov _printf_2[0],a
 869  023A  0F00     R  	mov a,high offset _LC10
 869  023B  0080     E  	mov _printf_2[1],a
 869  023C              	fcall _printf
 870  0243              #line 870 "e:\x-sense\xp02\htba45f5260-xp0456\src\Co.c"
 870  0243  0700     R  	mov a,_COAO[23]
 870  0244  0080     E  	mov _printf_2[2],a
 870  0245  0700     R  	mov a,_COAO[24]
 870  0246  0080     E  	mov _printf_2[3],a
 870  0247  0F00     R  	mov a,low offset _LC11
 870  0248  0080     E  	mov _printf_2[0],a
 870  0249  0F00     R  	mov a,high offset _LC11
 870  024A  0080     E  	mov _printf_2[1],a
 870  024B              	fcall _printf
 872  0252              #line 872 "e:\x-sense\xp02\htba45f5260-xp0456\src\Co.c"
 872  0252  0F03        	mov a,3
 872  0253  0080     E  	mov _CailRes_2[0],a
 872  0254  1F00     E  	clr _CailRes_2[1]
 872  0255  0700     R  	mov a,_CoCaliMain_2[0]
 872  0256              	fcall _CailRes
 872  025D  2800     R  	jmp _L77
 872  025E              _L75:
 877  025E              #line 877 "e:\x-sense\xp02\htba45f5260-xp0456\src\Co.c"
 877  025E  0700     R  	mov a,_CoCaliMain_2[2]
 877  025F  0A02        	sub a,2
 877  0260  390A        	snz z
 877  0261  2800     R  	jmp _L78
 879  0262              #line 879 "e:\x-sense\xp02\htba45f5260-xp0456\src\Co.c"
 879  0262  0F04        	mov a,4
 879  0263  0080     E  	mov _CailStepDisplay_2[0],a
 879  0264  1F00     E  	clr _CailStepDisplay_2[1]
文件：Co.c         编译器版本 HGASM 0202 页次36

 879  0265              	fcall _CailStepDisplay
 880  026C              #line 880 "e:\x-sense\xp02\htba45f5260-xp0456\src\Co.c"
 880  026C  0700     R  	mov a,___Delay_Cnt_3205[0]
 880  026D  0080     R  	mov _CoCaliMain_2[2],a
 880  026E  0F78        	mov a,120
 880  026F  0200     R  	sub a,_CoCaliMain_2[2]
 880  0270  3C0A        	sz c
 880  0271  2800     R  	jmp _L66
 882  0272              #line 882 "e:\x-sense\xp02\htba45f5260-xp0456\src\Co.c"
 882  0272  0700     R  	mov a,___CailCoAdcValue_3207[0]
 882  0273  0300     R  	add a,_CoCaliMain_2[0]
 882  0274  0080     E  	mov rb,a
 882  0275  0700     R  	mov a,___CailCoAdcValue_3207[1]
 882  0276  1300     R  	adc a,_CoCaliMain_2[1]
 882  0277  0080     E  	mov rc,a
 882  0278  0700     E  	mov a,rb
 882  0279  0080     R  	mov ___CailCoAdcValue_3207[0],a
 882  027A  0700     E  	mov a,rc
 882  027B  0080     R  	mov ___CailCoAdcValue_3207[1],a
 883  027C              #line 883 "e:\x-sense\xp02\htba45f5260-xp0456\src\Co.c"
 883  027C  0700     R  	mov a,_CoCaliMain_2[3]
 883  027D  0300     R  	add a,___CailTemperature_3206[0]
 883  027E  0080     E  	mov rd,a
 883  027F  1F05        	clr acc
 883  0280  1300     R  	adc a,___CailTemperature_3206[1]
 883  0281  0080     E  	mov re,a
 883  0282  0700     E  	mov a,rd
 883  0283  0080     R  	mov ___CailTemperature_3206[0],a
 883  0284  0700     E  	mov a,re
 883  0285  0080     R  	mov ___CailTemperature_3206[1],a
 884  0286              #line 884 "e:\x-sense\xp02\htba45f5260-xp0456\src\Co.c"
 884  0286  0F87        	mov a,135
 884  0287  0200     R  	sub a,_CoCaliMain_2[2]
 884  0288  3C0A        	sz c
 884  0289  2800     R  	jmp _L66
 886  028A              #line 886 "e:\x-sense\xp02\htba45f5260-xp0456\src\Co.c"
 886  028A  1F00     R  	clr ___Delay_Cnt_3205[0]
 887  028B              #line 887 "e:\x-sense\xp02\htba45f5260-xp0456\src\Co.c"
 887  028B  0F04        	mov a,4
 887  028C              _LI3:
 887  028C  340A        	clr c
 887  028D  1B80     E  	rrc rc
 887  028E  1B80     E  	rrc rb
 887  028F  1785        	sdz acc
 887  0290  2800     R  	jmp _LI3
 887  0291  0700     E  	mov a,rb
 887  0292  0080     R  	mov ___CailCoAdcValue_3207[0],a
 887  0293  0700     E  	mov a,rc
 887  0294  0080     R  	mov ___CailCoAdcValue_3207[1],a
 888  0295              #line 888 "e:\x-sense\xp02\htba45f5260-xp0456\src\Co.c"
 888  0295  0F04        	mov a,4
 888  0296              _LI4:
 888  0296  340A        	clr c
 888  0297  1B80     E  	rrc re
 888  0298  1B80     E  	rrc rd
 888  0299  1785        	sdz acc
 888  029A  2800     R  	jmp _LI4
 888  029B  0700     E  	mov a,rd
 888  029C  0080     R  	mov ___CailTemperature_3206[0],a
 888  029D  0700     E  	mov a,re
文件：Co.c         编译器版本 HGASM 0202 页次37

 888  029E  0080     R  	mov ___CailTemperature_3206[1],a
 889  029F              #line 889 "e:\x-sense\xp02\htba45f5260-xp0456\src\Co.c"
 889  029F  0700     E  	mov a,rd
 889  02A0  0080     R  	mov _CoGetPpm_2[2],a
 889  02A1  0700     E  	mov a,rb
 889  02A2  0080     R  	mov _CoGetPpm_2[0],a
 889  02A3  0700     E  	mov a,rc
 889  02A4  0080     R  	mov _CoGetPpm_2[1],a
 889  02A5              	fcall _CoGetPpm
 889  02AC  0700     E  	mov a,ra
 889  02AD  0080     R  	mov _CoCaliMain_2[0],a
 889  02AE  0700     E  	mov a,rb
 889  02AF  0080     R  	mov _CoCaliMain_2[1],a
 892  02B0              #line 892 "e:\x-sense\xp02\htba45f5260-xp0456\src\Co.c"
 892  02B0  0700     E  	mov a,rb
 892  02B1  0080     E  	mov rc,a
 892  02B2  0700     E  	mov a,ra
 892  02B3  0BAC        	add a,172
 892  02B4  0080     E  	mov rb,a
 892  02B5  0FFE        	mov a,254
 892  02B6  1380     E  	adcm a,rc
 892  02B7  0F78        	mov a,120
 892  02B8  0200     E  	sub a,rb
 892  02B9  0F00        	mov a,0
 892  02BA  1200     E  	sbc a,rc
 892  02BB  380A        	snz c
 892  02BC  2800     R  	jmp _L84
 897  02BD              #line 897 "e:\x-sense\xp02\htba45f5260-xp0456\src\Co.c"
 897  02BD  0F03        	mov a,3
 897  02BE  0080     R  	mov _COAO[4],a
 898  02BF              #line 898 "e:\x-sense\xp02\htba45f5260-xp0456\src\Co.c"
 898  02BF  0FAA        	mov a,170
 898  02C0  0080     E  	mov _E2promWrite_2[0],a
 898  02C1  0F10        	mov a,16
 898  02C2              	fcall _E2promWrite
 899  02C9              #line 899 "e:\x-sense\xp02\htba45f5260-xp0456\src\Co.c"
 899  02C9  1F00     E  	clr _E2promWrite_2[0]
 899  02CA  0F09        	mov a,9
 899  02CB              	fcall _E2promWrite
 901  02D2              #line 901 "e:\x-sense\xp02\htba45f5260-xp0456\src\Co.c"
 901  02D2  0F01        	mov a,1
 901  02D3  0080     R  	mov _CoCaliMain_2[2],a
 901  02D4  2800     R  	jmp _L80
 901  02D5              _L84:
 905  02D5              #line 905 "e:\x-sense\xp02\htba45f5260-xp0456\src\Co.c"
 905  02D5  1F00     R  	clr _CoCaliMain_2[2]
 905  02D6              _L80:
 911  02D6              #line 911 "e:\x-sense\xp02\htba45f5260-xp0456\src\Co.c"
 911  02D6  0700     R  	mov a,_CoCaliMain_2[5]
 911  02D7  0080     E  	mov _printf_2[2],a
 911  02D8  0700     R  	mov a,_CoCaliMain_2[6]
 911  02D9  0080     E  	mov _printf_2[3],a
 911  02DA  0F00     R  	mov a,low offset _LC12
 911  02DB  0080     E  	mov _printf_2[0],a
 911  02DC  0F00     R  	mov a,high offset _LC12
 911  02DD  0080     E  	mov _printf_2[1],a
 911  02DE              	fcall _printf
 912  02E5              #line 912 "e:\x-sense\xp02\htba45f5260-xp0456\src\Co.c"
 912  02E5  0FEC        	mov a,236
 912  02E6  0300     R  	add a,_CoCaliMain_2[3]
文件：Co.c         编译器版本 HGASM 0202 页次38

 912  02E7  0080     E  	mov _printf_2[2],a
 912  02E8  0FFF        	mov a,255
 912  02E9  1F00     E  	clr _printf_2[3]
 912  02EA  1380     E  	adcm a,_printf_2[3]
 912  02EB  0F00     R  	mov a,low offset _LC10
 912  02EC  0080     E  	mov _printf_2[0],a
 912  02ED  0F00     R  	mov a,high offset _LC10
 912  02EE  0080     E  	mov _printf_2[1],a
 912  02EF              	fcall _printf
 913  02F6              #line 913 "e:\x-sense\xp02\htba45f5260-xp0456\src\Co.c"
 913  02F6  0700     R  	mov a,_CoCaliMain_2[0]
 913  02F7  0080     E  	mov _printf_2[2],a
 913  02F8  0700     R  	mov a,_CoCaliMain_2[1]
 913  02F9  0080     E  	mov _printf_2[3],a
 913  02FA  0F00     R  	mov a,low offset _LC13
 913  02FB  0080     E  	mov _printf_2[0],a
 913  02FC  0F00     R  	mov a,high offset _LC13
 913  02FD  0080     E  	mov _printf_2[1],a
 913  02FE              	fcall _printf
 915  0305              #line 915 "e:\x-sense\xp02\htba45f5260-xp0456\src\Co.c"
 915  0305  0F04        	mov a,4
 915  0306  0080     E  	mov _CailRes_2[0],a
 915  0307  1F00     E  	clr _CailRes_2[1]
 915  0308  0700     R  	mov a,_CoCaliMain_2[2]
 915  0309              	fcall _CailRes
 915  0310  2800     R  	jmp _L80
 915  0311              _L78:
 922  0311              #line 922 "e:\x-sense\xp02\htba45f5260-xp0456\src\Co.c"
 922  0311  0F02        	mov a,2
 922  0312  0080     E  	mov _CailStepDisplay_2[0],a
 922  0313  1F00     E  	clr _CailStepDisplay_2[1]
 922  0314              	fcall _CailStepDisplay
 923  031B              #line 923 "e:\x-sense\xp02\htba45f5260-xp0456\src\Co.c"
 923  031B  0700     R  	mov a,___Delay_Cnt_3205[0]
 923  031C  0080     R  	mov _CoCaliMain_2[2],a
 923  031D  0F78        	mov a,120
 923  031E  0200     R  	sub a,_CoCaliMain_2[2]
 923  031F  3C0A        	sz c
 923  0320  2800     R  	jmp _L66
 925  0321              #line 925 "e:\x-sense\xp02\htba45f5260-xp0456\src\Co.c"
 925  0321  0700     R  	mov a,___CailCoAdcValue_3207[0]
 925  0322  0300     R  	add a,_CoCaliMain_2[0]
 925  0323  0080     E  	mov rd,a
 925  0324  0700     R  	mov a,___CailCoAdcValue_3207[1]
 925  0325  1300     R  	adc a,_CoCaliMain_2[1]
 925  0326  0080     E  	mov re,a
 925  0327  0700     E  	mov a,rd
 925  0328  0080     R  	mov ___CailCoAdcValue_3207[0],a
 925  0329  0700     E  	mov a,re
 925  032A  0080     R  	mov ___CailCoAdcValue_3207[1],a
 926  032B              #line 926 "e:\x-sense\xp02\htba45f5260-xp0456\src\Co.c"
 926  032B  0700     R  	mov a,_CoCaliMain_2[3]
 926  032C  0300     R  	add a,___CailTemperature_3206[0]
 926  032D  0080     E  	mov rb,a
 926  032E  1F05        	clr acc
 926  032F  1300     R  	adc a,___CailTemperature_3206[1]
 926  0330  0080     E  	mov rc,a
 926  0331  0700     E  	mov a,rb
 926  0332  0080     R  	mov ___CailTemperature_3206[0],a
 926  0333  0700     E  	mov a,rc
文件：Co.c         编译器版本 HGASM 0202 页次39

 926  0334  0080     R  	mov ___CailTemperature_3206[1],a
 927  0335              #line 927 "e:\x-sense\xp02\htba45f5260-xp0456\src\Co.c"
 927  0335  0F87        	mov a,135
 927  0336  0200     R  	sub a,_CoCaliMain_2[2]
 927  0337  3C0A        	sz c
 927  0338  2800     R  	jmp _L66
 929  0339              #line 929 "e:\x-sense\xp02\htba45f5260-xp0456\src\Co.c"
 929  0339  1F00     R  	clr ___Delay_Cnt_3205[0]
 930  033A              #line 930 "e:\x-sense\xp02\htba45f5260-xp0456\src\Co.c"
 930  033A  0F04        	mov a,4
 930  033B              _LI5:
 930  033B  340A        	clr c
 930  033C  1B80     E  	rrc re
 930  033D  1B80     E  	rrc rd
 930  033E  1785        	sdz acc
 930  033F  2800     R  	jmp _LI5
 930  0340  0700     E  	mov a,rd
 930  0341  0080     R  	mov ___CailCoAdcValue_3207[0],a
 930  0342  0700     E  	mov a,re
 930  0343  0080     R  	mov ___CailCoAdcValue_3207[1],a
 931  0344              #line 931 "e:\x-sense\xp02\htba45f5260-xp0456\src\Co.c"
 931  0344  0F04        	mov a,4
 931  0345              _LI6:
 931  0345  340A        	clr c
 931  0346  1B80     E  	rrc rc
 931  0347  1B80     E  	rrc rb
 931  0348  1785        	sdz acc
 931  0349  2800     R  	jmp _LI6
 931  034A  0700     E  	mov a,rb
 931  034B  0080     R  	mov ___CailTemperature_3206[0],a
 931  034C  0700     E  	mov a,rc
 931  034D  0080     R  	mov ___CailTemperature_3206[1],a
 932  034E              #line 932 "e:\x-sense\xp02\htba45f5260-xp0456\src\Co.c"
 932  034E  0700     E  	mov a,rd
 932  034F  0080     E  	mov rd,a
 932  0350  0700     E  	mov a,re
 932  0351  0080     E  	mov re,a
 932  0352  1F00     E  	clr rf
 932  0353  1F00     E  	clr rg
 932  0354  0700     E  	mov a,rd
 932  0355  0080     E  	mov _builtin_holtek_mulsi3_2[0],a
 932  0356  0700     E  	mov a,re
 932  0357  0080     E  	mov _builtin_holtek_mulsi3_2[1],a
 932  0358  0700     E  	mov a,rf
 932  0359  0080     E  	mov _builtin_holtek_mulsi3_2[2],a
 932  035A  0700     E  	mov a,rg
 932  035B  0080     E  	mov _builtin_holtek_mulsi3_2[3],a
 932  035C  0FE8        	mov a,232
 932  035D  0080     E  	mov _builtin_holtek_mulsi3_2[4],a
 932  035E  0F03        	mov a,3
 932  035F  0080     E  	mov _builtin_holtek_mulsi3_2[5],a
 932  0360  0F00        	mov a,0
 932  0361  0080     E  	mov _builtin_holtek_mulsi3_2[6],a
 932  0362  0F00        	mov a,0
 932  0363  0080     E  	mov _builtin_holtek_mulsi3_2[7],a
 932  0364              	fcall _builtin_holtek_mulsi3
 932  036B  0700     E  	mov a,_builtin_holtek_mulsi3_2[8]
 932  036C  0080     E  	mov rd,a
 932  036D  0700     E  	mov a,_builtin_holtek_mulsi3_2[9]
 932  036E  0080     E  	mov re,a
文件：Co.c         编译器版本 HGASM 0202 页次40

 932  036F  0700     E  	mov a,_builtin_holtek_mulsi3_2[10]
 932  0370  0080     E  	mov rf,a
 932  0371  0700     E  	mov a,_builtin_holtek_mulsi3_2[11]
 932  0372  0080     E  	mov rg,a
 932  0373  340A        	clr c
 932  0374  1A80     E  	rlc rb
 932  0375  1A80     E  	rlc rc
 932  0376  0F00     R  	mov a,low offset _co_temp_offset_rate
 932  0377  0300     E  	add a,rb
 932  0378  0083        	mov mp,a
 932  0379  0F00     R  	mov a,high offset _co_temp_offset_rate
 932  037A  1300     E  	adc a,rc
 932  037B  0084        	mov sbp,a
 932  037C              	fcall _Crom2Prom
 932  0383  0080     E  	mov rb,a
 932  0384              	fcall _Crom2PromNext
 932  038B  0080     E  	mov rc,a
 932  038C  1F00     E  	clr _builtin_holtek_udivmodsi4_2[12]
 932  038D  0700     E  	mov a,rd  
 932  038E  0080     E  	mov _builtin_holtek_udivmodsi4_2[0],a  
 932  038F  0700     E  	mov a,re  
 932  0390  0080     E  	mov _builtin_holtek_udivmodsi4_2[1],a
 932  0391  0700     E  	mov a,rf  
 932  0392  0080     E  	mov _builtin_holtek_udivmodsi4_2[2],a  
 932  0393  0700     E  	mov a,rg  
 932  0394  0080     E  	mov _builtin_holtek_udivmodsi4_2[3],a
 932  0395  0700     E  	mov a,rb  
 932  0396  0080     E  	mov _builtin_holtek_udivmodsi4_2[4],a  
 932  0397  0700     E  	mov a,rc  
 932  0398  0080     E  	mov _builtin_holtek_udivmodsi4_2[5],a
 932  0399  1F00     E  	clr _builtin_holtek_udivmodsi4_2[6]
 932  039A  1F00     E  	clr _builtin_holtek_udivmodsi4_2[7]
 932  039B              	fcall _builtin_holtek_udivmodsi4
 932  03A2  0700     E  	mov a,_builtin_holtek_udivmodsi4_2[0]  
 932  03A3  0080     E  	mov rb,a  
 932  03A4  0700     E  	mov a,_builtin_holtek_udivmodsi4_2[1]  
 932  03A5  0080     E  	mov rc,a
 932  03A6  0700     E  	mov a,_builtin_holtek_udivmodsi4_2[2]  
 932  03A7  0080     E  	mov rd,a  
 932  03A8  0700     E  	mov a,_builtin_holtek_udivmodsi4_2[3]  
 932  03A9  0080     E  	mov re,a
 932  03AA  0700     E  	mov a,rb
 932  03AB  0080     R  	mov _COAO[25],a
 932  03AC  0700     E  	mov a,rc
 932  03AD  0080     R  	mov _COAO[26],a
 934  03AE              #line 934 "e:\x-sense\xp02\htba45f5260-xp0456\src\Co.c"
 934  03AE  0F77        	mov a,119
 934  03AF  0300     E  	add a,rb
 934  03B0  0080     E  	mov rf,a
 934  03B1  0FFF        	mov a,255
 934  03B2  1300     E  	adc a,rc
 934  03B3  0080     E  	mov rg,a
 934  03B4  0FCB        	mov a,203
 934  03B5  0200     E  	sub a,rf
 934  03B6  0F00        	mov a,0
 934  03B7  1200     E  	sbc a,rg
 934  03B8  380A        	snz c
 934  03B9  2800     R  	jmp _L85
 936  03BA              #line 936 "e:\x-sense\xp02\htba45f5260-xp0456\src\Co.c"
 936  03BA  0F01        	mov a,1
文件：Co.c         编译器版本 HGASM 0202 页次41

 936  03BB  0080     R  	mov _COAO[4],a
 937  03BC              #line 937 "e:\x-sense\xp02\htba45f5260-xp0456\src\Co.c"
 937  03BC  0700     E  	mov a,rc
 937  03BD  0080     E  	mov _E2promWrite_2[0],a
 937  03BE  0F0C        	mov a,12
 937  03BF              	fcall _E2promWrite
 938  03C6              #line 938 "e:\x-sense\xp02\htba45f5260-xp0456\src\Co.c"
 938  03C6  0700     R  	mov a,_COAO[25]
 938  03C7  0080     E  	mov _E2promWrite_2[0],a
 938  03C8  0F0D        	mov a,13
 938  03C9              	fcall _E2promWrite
 939  03D0              #line 939 "e:\x-sense\xp02\htba45f5260-xp0456\src\Co.c"
 939  03D0  0700     R  	mov a,___CailTemperature_3206[0]
 939  03D1  0080     E  	mov _E2promWrite_2[0],a
 939  03D2  0F0E        	mov a,14
 939  03D3              	fcall _E2promWrite
 940  03DA              #line 940 "e:\x-sense\xp02\htba45f5260-xp0456\src\Co.c"
 940  03DA  0700     R  	mov a,_COAO[4]
 940  03DB  0080     E  	mov _E2promWrite_2[0],a
 940  03DC  0F09        	mov a,9
 940  03DD              	fcall _E2promWrite
 942  03E4              #line 942 "e:\x-sense\xp02\htba45f5260-xp0456\src\Co.c"
 942  03E4  0F01        	mov a,1
 942  03E5  0080     R  	mov _CoCaliMain_2[0],a
 942  03E6  2800     R  	jmp _L82
 942  03E7              _L85:
 946  03E7              #line 946 "e:\x-sense\xp02\htba45f5260-xp0456\src\Co.c"
 946  03E7  1F00     R  	clr _CoCaliMain_2[0]
 946  03E8              _L82:
 952  03E8              #line 952 "e:\x-sense\xp02\htba45f5260-xp0456\src\Co.c"
 952  03E8  0700     R  	mov a,_CoCaliMain_2[5]
 952  03E9  0080     E  	mov _printf_2[2],a
 952  03EA  0700     R  	mov a,_CoCaliMain_2[6]
 952  03EB  0080     E  	mov _printf_2[3],a
 952  03EC  0F00     R  	mov a,low offset _LC14
 952  03ED  0080     E  	mov _printf_2[0],a
 952  03EE  0F00     R  	mov a,high offset _LC14
 952  03EF  0080     E  	mov _printf_2[1],a
 952  03F0              	fcall _printf
 953  03F7              #line 953 "e:\x-sense\xp02\htba45f5260-xp0456\src\Co.c"
 953  03F7  0FEC        	mov a,236
 953  03F8  0300     R  	add a,_CoCaliMain_2[3]
 953  03F9  0080     E  	mov _printf_2[2],a
 953  03FA  0FFF        	mov a,255
 953  03FB  1F00     E  	clr _printf_2[3]
 953  03FC  1380     E  	adcm a,_printf_2[3]
 953  03FD  0F00     R  	mov a,low offset _LC10
 953  03FE  0080     E  	mov _printf_2[0],a
 953  03FF  0F00     R  	mov a,high offset _LC10
 953  0400  0080     E  	mov _printf_2[1],a
 953  0401              	fcall _printf
 954  0408              #line 954 "e:\x-sense\xp02\htba45f5260-xp0456\src\Co.c"
 954  0408  0700     R  	mov a,_COAO[25]
 954  0409  0080     E  	mov _printf_2[2],a
 954  040A  0700     R  	mov a,_COAO[26]
 954  040B  0080     E  	mov _printf_2[3],a
 954  040C  0F00     R  	mov a,low offset _LC15
 954  040D  0080     E  	mov _printf_2[0],a
 954  040E  0F00     R  	mov a,high offset _LC15
 954  040F  0080     E  	mov _printf_2[1],a
文件：Co.c         编译器版本 HGASM 0202 页次42

 954  0410              	fcall _printf
 956  0417              #line 956 "e:\x-sense\xp02\htba45f5260-xp0456\src\Co.c"
 956  0417  0F02        	mov a,2
 956  0418  0080     E  	mov _CailRes_2[0],a
 956  0419  1F00     E  	clr _CailRes_2[1]
 956  041A  0700     R  	mov a,_CoCaliMain_2[0]
 956  041B              	fcall _CailRes
 956  0422  2800     R  	jmp _L82
 956  0423              _L66:
 956  0423  0003        	ret
 956  0424              _CoCaliMain endp
 956  0424              #line 956 "e:\x-sense\xp02\htba45f5260-xp0456\src\Co.c"
 956  0424              #pragma debug scope 1 1
 956  0424              ___pa equ [20]
 956  0424              ___pc equ [27]
 956  0424              public _CoTestMain
 956  0424              #pragma debug scope 17 1
1014  0424              #line 1014 "e:\x-sense\xp02\htba45f5260-xp0456\src\Co.c"
1014  0000              _CoTestMain .section 'code'
1014  0000              _CoTestMain proc
1021  0000              #line 1021 "e:\x-sense\xp02\htba45f5260-xp0456\src\Co.c"
1021  0000  0700     E  	mov a,_SysAO[4]
1021  0001  0C01        	xor a,1
1021  0002  0500     E  	or a,_SysAO[5]
1021  0003  3D0A        	sz z
1021  0004  2800     R  	jmp _L91
1021  0005              #line 1021 "e:\x-sense\xp02\htba45f5260-xp0456\src\Co.c"
1021  0005  0700     E  	mov a,_SysAO[4]
1021  0006  0C1B        	xor a,27
1021  0007  0500     E  	or a,_SysAO[5]
1021  0008  3D0A        	sz z
1021  0009  2800     R  	jmp _L92
1021  000A  0700     E  	mov a,_SysAO[4]
1021  000B  0C1D        	xor a,29
1021  000C  0500     E  	or a,_SysAO[5]
1021  000D  3D0A        	sz z
1021  000E  2800     R  	jmp _L93
1021  000F  0700     E  	mov a,_SysAO[4]
1021  0010  0C1E        	xor a,30
1021  0011  0500     E  	or a,_SysAO[5]
1021  0012  390A        	snz z
1021  0013  2800     R  	jmp _L89
1070  0014              #line 1070 "e:\x-sense\xp02\htba45f5260-xp0456\src\Co.c"
1070  0014  0F07        	mov a,7
1070  0015  0080     E  	mov _TmrDeleteTimer_2[0],a
1070  0016  1F00     E  	clr _TmrDeleteTimer_2[1]
1070  0017              	fcall _TmrDeleteTimer
1070  001E  2800     R  	jmp _L99
1070  001F              _L91:
1027  001F              #line 1027 "e:\x-sense\xp02\htba45f5260-xp0456\src\Co.c"
1027  001F  1F00     R  	clr ___TimeoutCnt_3232[0]
1028  0020              #line 1028 "e:\x-sense\xp02\htba45f5260-xp0456\src\Co.c"
1028  0020  1F00     R  	clr ___IntervalTimeoutCnt_3233[0]
1028  0021  2800     R  	jmp _L99
1028  0022              _L93:
1045  0022              #line 1045 "e:\x-sense\xp02\htba45f5260-xp0456\src\Co.c"
1045  0022  1400     R  	inca ___TimeoutCnt_3232[0]
1045  0023  0080     E  	mov ra,a
1045  0024  0700     E  	mov a,ra
1045  0025  0080     R  	mov ___TimeoutCnt_3232[0],a
文件：Co.c         编译器版本 HGASM 0202 页次43

1045  0026  0F07        	mov a,7
1045  0027  0200     E  	sub a,ra
1045  0028  3C0A        	sz c
1045  0029  2800     R  	jmp _L95
1047  002A              #line 1047 "e:\x-sense\xp02\htba45f5260-xp0456\src\Co.c"
1047  002A  1F00     R  	clr ___TimeoutCnt_3232[0]
1048  002B              #line 1048 "e:\x-sense\xp02\htba45f5260-xp0456\src\Co.c"
1048  002B  3514        	clr [20].2
1049  002C              #line 1049 "e:\x-sense\xp02\htba45f5260-xp0456\src\Co.c"
1049  002C  361B        	clr [27].4
1051  002D              #line 1051 "e:\x-sense\xp02\htba45f5260-xp0456\src\Co.c"
1051  002D  0F07        	mov a,7
1051  002E  0080     E  	mov _TmrDeleteTimer_2[0],a
1051  002F  1F00     E  	clr _TmrDeleteTimer_2[1]
1051  0030              	fcall _TmrDeleteTimer
1052  0037              #line 1052 "e:\x-sense\xp02\htba45f5260-xp0456\src\Co.c"
1052  0037  1400     R  	inca ___IntervalTimeoutCnt_3233[0]
1052  0038  0080     E  	mov ra,a
1052  0039  0700     E  	mov a,ra
1052  003A  0080     R  	mov ___IntervalTimeoutCnt_3233[0],a
1052  003B  0F01        	mov a,1
1052  003C  0200     E  	sub a,ra
1052  003D  3C0A        	sz c
1052  003E  2800     R  	jmp _L96
1054  003F              #line 1054 "e:\x-sense\xp02\htba45f5260-xp0456\src\Co.c"
1054  003F  1F00     R  	clr ___IntervalTimeoutCnt_3233[0]
1055  0040              #line 1055 "e:\x-sense\xp02\htba45f5260-xp0456\src\Co.c"
1055  0040  0F1B        	mov a,27
1055  0041  0080     E  	mov _SysteSetSig_2[0],a
1055  0042  1F00     E  	clr _SysteSetSig_2[1]
1055  0043              	fcall _SysteSetSig
1055  004A  2800     R  	jmp _L89
1055  004B              _L96:
1059  004B              #line 1059 "e:\x-sense\xp02\htba45f5260-xp0456\src\Co.c"
1059  004B  0F02        	mov a,2
1059  004C  0080     E  	mov _TmrInsertTimer_2[4],a
1059  004D  1F00     E  	clr _TmrInsertTimer_2[5]
1059  004E  0FF4        	mov a,-12
1059  004F  0080     E  	mov _TmrInsertTimer_2[2],a
1059  0050  0F01        	mov a,1
1059  0051  0080     E  	mov _TmrInsertTimer_2[3],a
1059  0052              _L98:
1059  0052  0F07        	mov a,7
1059  0053  0080     E  	mov _TmrInsertTimer_2[0],a
1059  0054  1F00     E  	clr _TmrInsertTimer_2[1]
1059  0055              	fcall _TmrInsertTimer
1059  005C  2800     R  	jmp _L89
1059  005D              _L95:
1064  005D              #line 1064 "e:\x-sense\xp02\htba45f5260-xp0456\src\Co.c"
1064  005D  1F00     E  	clr ra
1064  005E  3914        	snz [20].2
1064  005F  3000     E  	set ra.2
1064  0060  3514        	clr [20].2
1064  0061  0700     E  	mov a,ra
1064  0062  0594        	orm a,[20]
1065  0063              #line 1065 "e:\x-sense\xp02\htba45f5260-xp0456\src\Co.c"
1065  0063  1F00     E  	clr ra
1065  0064  3A1B        	snz [27].4
1065  0065  3000     E  	set ra.4
1065  0066  361B        	clr [27].4
文件：Co.c         编译器版本 HGASM 0202 页次44

1065  0067  0700     E  	mov a,ra
1065  0068  059B        	orm a,[27]
1065  0069  2800     R  	jmp _L89
1065  006A              _L99:
1071  006A              #line 1071 "e:\x-sense\xp02\htba45f5260-xp0456\src\Co.c"
1071  006A  0F01        	mov a,1
1071  006B  0080     E  	mov _TmrInsertTimer_2[4],a
1071  006C  1F00     E  	clr _TmrInsertTimer_2[5]
1071  006D  0F0A        	mov a,10
1071  006E  0080     E  	mov _TmrInsertTimer_2[2],a
1071  006F  1F00     E  	clr _TmrInsertTimer_2[3]
1071  0070  2800     R  	jmp _L98
1071  0071              _L92:
1079  0071              #line 1079 "e:\x-sense\xp02\htba45f5260-xp0456\src\Co.c"
1079  0071              	fcall _GetRfPairedMode
1079  0078  0700     E  	mov a,ra
1079  0079  0C01        	xor a,1
1079  007A  0500     E  	or a,rb
1079  007B  390A        	snz z
1079  007C  2800     R  	jmp _L97
1081  007D              #line 1081 "e:\x-sense\xp02\htba45f5260-xp0456\src\Co.c"
1081  007D  0F03        	mov a,3
1081  007E  0080     E  	mov _UartSendMsg_2[3],a
1081  007F  0F04        	mov a,4
1081  0080  0080     E  	mov _UartSendMsg_2[2],a
1081  0081  0F03        	mov a,3
1081  0082  0080     E  	mov _UartSendMsg_2[0],a
1081  0083  1F00     E  	clr _UartSendMsg_2[1]
1081  0084              	fcall _UartSendMsg
1081  008B              _L97:
1083  008B              #line 1083 "e:\x-sense\xp02\htba45f5260-xp0456\src\Co.c"
1083  008B  1F00     E  	clr _SysAO[0]
1083  008C  1F00     E  	clr _SysAO[1]
1083  008D              _L89:
1083  008D  0003        	ret
1083  008E              _CoTestMain endp
1083  008E              #line 1083 "e:\x-sense\xp02\htba45f5260-xp0456\src\Co.c"
1083  008E              #pragma debug scope 1 1
1083  005B              @crom	.section 'crom'
1083  005B              _LC16:
1083  005B              	db 043h,06fh,020h,041h,06ch,061h,072h,06dh,020h,04dh
1083  0060              	db 06fh,064h,065h,0ah,00h
1083  0062              public _CoAlarmMain
1083  0062              #pragma debug scope 18 1
1099  0062              #line 1099 "e:\x-sense\xp02\htba45f5260-xp0456\src\Co.c"
1099  0000              _CoAlarmMain .section 'code'
1099  0000              _CoAlarmMain proc
1102  0000              #line 1102 "e:\x-sense\xp02\htba45f5260-xp0456\src\Co.c"
1102  0000  0700     E  	mov a,_SysAO[4]
1102  0001  0C01        	xor a,1
1102  0002  0500     E  	or a,_SysAO[5]
1102  0003  3D0A        	sz z
1102  0004  2800     R  	jmp _L102
1102  0005              #line 1102 "e:\x-sense\xp02\htba45f5260-xp0456\src\Co.c"
1102  0005  0700     E  	mov a,_SysAO[4]
1102  0006  0C04        	xor a,4
1102  0007  0500     E  	or a,_SysAO[5]
1102  0008  3D0A        	sz z
1102  0009  2800     R  	jmp _L103
1102  000A  0700     E  	mov a,_SysAO[4]
文件：Co.c         编译器版本 HGASM 0202 页次45

1102  000B  0C06        	xor a,6
1102  000C  0500     E  	or a,_SysAO[5]
1102  000D  3D0A        	sz z
1102  000E  2800     R  	jmp _L104
1102  000F  0700     E  	mov a,_SysAO[4]
1102  0010  0C0E        	xor a,14
1102  0011  0500     E  	or a,_SysAO[5]
1102  0012  3D0A        	sz z
1102  0013  2800     R  	jmp _L105
1102  0014  0700     E  	mov a,_SysAO[4]
1102  0015  0C1D        	xor a,29
1102  0016  0500     E  	or a,_SysAO[5]
1102  0017  3D0A        	sz z
1102  0018  2800     R  	jmp _L106
1102  0019  0700     E  	mov a,_SysAO[4]
1102  001A  0C1E        	xor a,30
1102  001B  0500     E  	or a,_SysAO[5]
1102  001C  3D0A        	sz z
1102  001D  2800     R  	jmp _L107
1102  001E  0700     E  	mov a,_SysAO[4]
1102  001F  0C1F        	xor a,31
1102  0020  0500     E  	or a,_SysAO[5]
1102  0021  390A        	snz z
1102  0022  2800     R  	jmp _L100
1159  0023              #line 1159 "e:\x-sense\xp02\htba45f5260-xp0456\src\Co.c"
1159  0023  1F00     E  	clr _SysAO[0]
1159  0024  1F00     E  	clr _SysAO[1]
1160  0025              #line 1160 "e:\x-sense\xp02\htba45f5260-xp0456\src\Co.c"
1160  0025  0F01        	mov a,1
1160  0026  0580     E  	orm a,_SysAO[8]
1160  0027  0F00        	mov a,0
1160  0028  0580     E  	orm a,_SysAO[7]
1160  0029  2800     R  	jmp _L110
1160  002A              _L102:
1105  002A              #line 1105 "e:\x-sense\xp02\htba45f5260-xp0456\src\Co.c"
1105  002A  0F00     R  	mov a,low offset _LC16
1105  002B  0080     E  	mov _printf_2[0],a
1105  002C  0F00     R  	mov a,high offset _LC16
1105  002D  0080     E  	mov _printf_2[1],a
1105  002E              	fcall _printf
1107  0035              #line 1107 "e:\x-sense\xp02\htba45f5260-xp0456\src\Co.c"
1107  0035  1F00     R  	clr ___TimeoutCnt_3243[0]
1107  0036  2800     R  	jmp _L111
1107  0037              _L106:
1115  0037              #line 1115 "e:\x-sense\xp02\htba45f5260-xp0456\src\Co.c"
1115  0037  1400     R  	inca ___TimeoutCnt_3243[0]
1115  0038  0080     E  	mov ra,a
1115  0039  0700     E  	mov a,ra
1115  003A  0080     R  	mov ___TimeoutCnt_3243[0],a
1115  003B  0F07        	mov a,7
1115  003C  0200     E  	sub a,ra
1115  003D  3C0A        	sz c
1115  003E  2800     R  	jmp _L109
1117  003F              #line 1117 "e:\x-sense\xp02\htba45f5260-xp0456\src\Co.c"
1117  003F  1F00     R  	clr ___TimeoutCnt_3243[0]
1118  0040              #line 1118 "e:\x-sense\xp02\htba45f5260-xp0456\src\Co.c"
1118  0040  3514        	clr [20].2
1119  0041              #line 1119 "e:\x-sense\xp02\htba45f5260-xp0456\src\Co.c"
1119  0041  361B        	clr [27].4
1120  0042              #line 1120 "e:\x-sense\xp02\htba45f5260-xp0456\src\Co.c"
文件：Co.c         编译器版本 HGASM 0202 页次46

1120  0042  0F07        	mov a,7
1120  0043  0080     E  	mov _TmrDeleteTimer_2[0],a
1120  0044  1F00     E  	clr _TmrDeleteTimer_2[1]
1120  0045              	fcall _TmrDeleteTimer
1121  004C              #line 1121 "e:\x-sense\xp02\htba45f5260-xp0456\src\Co.c"
1121  004C  0F02        	mov a,2
1121  004D  0080     E  	mov _TmrInsertTimer_2[4],a
1121  004E  1F00     E  	clr _TmrInsertTimer_2[5]
1121  004F  0FF4        	mov a,-12
1121  0050  0080     E  	mov _TmrInsertTimer_2[2],a
1121  0051  0F01        	mov a,1
1121  0052  0080     E  	mov _TmrInsertTimer_2[3],a
1121  0053  0F07        	mov a,7
1121  0054  0080     E  	mov _TmrInsertTimer_2[0],a
1121  0055  1F00     E  	clr _TmrInsertTimer_2[1]
1121  0056              	fcall _TmrInsertTimer
1123  005D              #line 1123 "e:\x-sense\xp02\htba45f5260-xp0456\src\Co.c"
1123  005D  0F04        	mov a,4
1123  005E  0080     E  	mov _SysteSetSig_2[0],a
1123  005F  1F00     E  	clr _SysteSetSig_2[1]
1123  0060              	fcall _SysteSetSig
1123  0067  2800     R  	jmp _L100
1123  0068              _L109:
1127  0068              #line 1127 "e:\x-sense\xp02\htba45f5260-xp0456\src\Co.c"
1127  0068  1F00     E  	clr ra
1127  0069  3914        	snz [20].2
1127  006A  3000     E  	set ra.2
1127  006B  3514        	clr [20].2
1127  006C  0700     E  	mov a,ra
1127  006D  0594        	orm a,[20]
1128  006E              #line 1128 "e:\x-sense\xp02\htba45f5260-xp0456\src\Co.c"
1128  006E  1F00     E  	clr ra
1128  006F  3A1B        	snz [27].4
1128  0070  3000     E  	set ra.4
1128  0071  361B        	clr [27].4
1128  0072  0700     E  	mov a,ra
1128  0073  059B        	orm a,[27]
1128  0074  2800     R  	jmp _L100
1128  0075              _L107:
1136  0075              #line 1136 "e:\x-sense\xp02\htba45f5260-xp0456\src\Co.c"
1136  0075  0F07        	mov a,7
1136  0076  0080     E  	mov _TmrDeleteTimer_2[0],a
1136  0077  1F00     E  	clr _TmrDeleteTimer_2[1]
1136  0078              	fcall _TmrDeleteTimer
1136  007F              _L111:
1137  007F              #line 1137 "e:\x-sense\xp02\htba45f5260-xp0456\src\Co.c"
1137  007F  0F01        	mov a,1
1137  0080  0080     E  	mov _TmrInsertTimer_2[4],a
1137  0081  1F00     E  	clr _TmrInsertTimer_2[5]
1137  0082  0F0A        	mov a,10
1137  0083  0080     E  	mov _TmrInsertTimer_2[2],a
1137  0084  1F00     E  	clr _TmrInsertTimer_2[3]
1137  0085  0F07        	mov a,7
1137  0086  0080     E  	mov _TmrInsertTimer_2[0],a
1137  0087  1F00     E  	clr _TmrInsertTimer_2[1]
1137  0088              	fcall _TmrInsertTimer
1138  008F              #line 1138 "e:\x-sense\xp02\htba45f5260-xp0456\src\Co.c"
1138  008F  2800     R  	jmp _L100
1138  0090              _L104:
1148  0090              #line 1148 "e:\x-sense\xp02\htba45f5260-xp0456\src\Co.c"
文件：Co.c         编译器版本 HGASM 0202 页次47

1148  0090  0F07        	mov a,7
1148  0091  0080     E  	mov _TmrDeleteTimer_2[0],a
1148  0092  1F00     E  	clr _TmrDeleteTimer_2[1]
1148  0093              	fcall _TmrDeleteTimer
1149  009A              #line 1149 "e:\x-sense\xp02\htba45f5260-xp0456\src\Co.c"
1149  009A  0F09        	mov a,9
1149  009B  0080     E  	mov _SysAO[0],a
1149  009C  1F00     E  	clr _SysAO[1]
1151  009D              #line 1151 "e:\x-sense\xp02\htba45f5260-xp0456\src\Co.c"
1151  009D  2800     R  	jmp _L100
1151  009E              _L105:
1154  009E              #line 1154 "e:\x-sense\xp02\htba45f5260-xp0456\src\Co.c"
1154  009E  0F03        	mov a,3
1154  009F  0080     E  	mov _SysAO[0],a
1154  00A0  1F00     E  	clr _SysAO[1]
1154  00A1              _L110:
1161  00A1              #line 1161 "e:\x-sense\xp02\htba45f5260-xp0456\src\Co.c"
1161  00A1  0F07        	mov a,7
1161  00A2  0080     E  	mov _TmrDeleteTimer_2[0],a
1161  00A3  1F00     E  	clr _TmrDeleteTimer_2[1]
1161  00A4              	fcall _TmrDeleteTimer
1162  00AB              #line 1162 "e:\x-sense\xp02\htba45f5260-xp0456\src\Co.c"
1162  00AB  2800     R  	jmp _L100
1162  00AC              _L103:
1165  00AC              #line 1165 "e:\x-sense\xp02\htba45f5260-xp0456\src\Co.c"
1165  00AC              	fcall _CoAlarmCheck
1166  00B3              #line 1166 "e:\x-sense\xp02\htba45f5260-xp0456\src\Co.c"
1166  00B3              	fcall _SmokeAlarmCheck
1166  00BA              _L100:
1166  00BA  0003        	ret
1166  00BB              _CoAlarmMain endp
1166  00BB              #line 1166 "e:\x-sense\xp02\htba45f5260-xp0456\src\Co.c"
1166  00BB              #pragma debug scope 1 1
1166  0062              @crom	.section 'crom'
1166  0062              _LC17:
1166  0062              	db 043h,06fh,020h,04dh,075h,074h,065h,020h,04dh,06fh
1166  0067              	db 064h,065h,0ah,00h
1166  0069              @crom	.section 'crom'
1166  0069              _LC18:
1166  0069              	db 043h,06fh,04dh,075h,074h,065h,054h,069h,06dh,065h
1166  006E              	db 020h,03ah,025h,064h,0ah,00h
1166  0071              public _CoMuteMain
1166  0071              #pragma debug scope 19 1
1184  0071              #line 1184 "e:\x-sense\xp02\htba45f5260-xp0456\src\Co.c"
1184  0000              _CoMuteMain .section 'code'
1184  0000              _CoMuteMain proc
1184  0000  0002[           local _CoMuteMain_2 db 2 dup(?)	; 0,2
            00
            ]
1189  0002              #line 1189 "e:\x-sense\xp02\htba45f5260-xp0456\src\Co.c"
1189  0000  0700     E  	mov a,_SysAO[4]
1189  0001  0C01        	xor a,1
1189  0002  0500     E  	or a,_SysAO[5]
1189  0003  3D0A        	sz z
1189  0004  2800     R  	jmp _L114
1189  0005              #line 1189 "e:\x-sense\xp02\htba45f5260-xp0456\src\Co.c"
1189  0005  0700     E  	mov a,_SysAO[4]
1189  0006  0C0E        	xor a,14
1189  0007  0500     E  	or a,_SysAO[5]
1189  0008  3D0A        	sz z
文件：Co.c         编译器版本 HGASM 0202 页次48

1189  0009  2800     R  	jmp _L115
1189  000A  0700     E  	mov a,_SysAO[4]
1189  000B  0C1C        	xor a,28
1189  000C  0500     E  	or a,_SysAO[5]
1189  000D  3D0A        	sz z
1189  000E  2800     R  	jmp _L116
1189  000F  0700     E  	mov a,_SysAO[4]
1189  0010  0C1D        	xor a,29
1189  0011  0500     E  	or a,_SysAO[5]
1189  0012  3D0A        	sz z
1189  0013  2800     R  	jmp _L117
1189  0014  0700     E  	mov a,_SysAO[4]
1189  0015  0C1E        	xor a,30
1189  0016  0500     E  	or a,_SysAO[5]
1189  0017  3D0A        	sz z
1189  0018  2800     R  	jmp _L118
1189  0019  0700     E  	mov a,_SysAO[4]
1189  001A  0C22        	xor a,34
1189  001B  0500     E  	or a,_SysAO[5]
1189  001C  390A        	snz z
1189  001D  2800     R  	jmp _L112
1189  001E  0F03        	mov a,3
1189  001F  0080     E  	mov ra,a
1189  0020  2800     R  	jmp _L126
1189  0021              _L114:
1192  0021              #line 1192 "e:\x-sense\xp02\htba45f5260-xp0456\src\Co.c"
1192  0021  0F00     R  	mov a,low offset _LC17
1192  0022  0080     E  	mov _printf_2[0],a
1192  0023  0F00     R  	mov a,high offset _LC17
1192  0024  0080     E  	mov _printf_2[1],a
1192  0025              	fcall _printf
1193  002C              #line 1193 "e:\x-sense\xp02\htba45f5260-xp0456\src\Co.c"
1193  002C  1F00     R  	clr ___TimeoutCnt_3257[0]
1194  002D              #line 1194 "e:\x-sense\xp02\htba45f5260-xp0456\src\Co.c"
1194  002D  1F00     R  	clr ___MuteTimeCnt_3258[0]
1194  002E  1F00     R  	clr ___MuteTimeCnt_3258[1]
1194  002F  2800     R  	jmp _L129
1194  0030              _L117:
1206  0030              #line 1206 "e:\x-sense\xp02\htba45f5260-xp0456\src\Co.c"
1206  0030  1400     R  	inca ___TimeoutCnt_3257[0]
1206  0031  0080     E  	mov ra,a
1206  0032  0700     E  	mov a,ra
1206  0033  0080     R  	mov ___TimeoutCnt_3257[0],a
1206  0034  0F07        	mov a,7
1206  0035  0200     E  	sub a,ra
1206  0036  3C0A        	sz c
1206  0037  2800     R  	jmp _L120
1208  0038              #line 1208 "e:\x-sense\xp02\htba45f5260-xp0456\src\Co.c"
1208  0038  1F00     R  	clr ___TimeoutCnt_3257[0]
1209  0039              #line 1209 "e:\x-sense\xp02\htba45f5260-xp0456\src\Co.c"
1209  0039  3514        	clr [20].2
1213  003A              #line 1213 "e:\x-sense\xp02\htba45f5260-xp0456\src\Co.c"
1213  003A  0F07        	mov a,7
1213  003B  0080     E  	mov _TmrDeleteTimer_2[0],a
1213  003C  1F00     E  	clr _TmrDeleteTimer_2[1]
1213  003D              	fcall _TmrDeleteTimer
1214  0044              #line 1214 "e:\x-sense\xp02\htba45f5260-xp0456\src\Co.c"
1214  0044  0F02        	mov a,2
1214  0045  0080     E  	mov _TmrInsertTimer_2[4],a
1214  0046  1F00     E  	clr _TmrInsertTimer_2[5]
文件：Co.c         编译器版本 HGASM 0202 页次49

1214  0047  0FF4        	mov a,-12
1214  0048  0080     E  	mov _TmrInsertTimer_2[2],a
1214  0049  0F01        	mov a,1
1214  004A  0080     E  	mov _TmrInsertTimer_2[3],a
1214  004B              _L128:
1214  004B  0F07        	mov a,7
1214  004C  0080     E  	mov _TmrInsertTimer_2[0],a
1214  004D  1F00     E  	clr _TmrInsertTimer_2[1]
1214  004E              	fcall _TmrInsertTimer
1214  0055  2800     R  	jmp _L112
1214  0056              _L120:
1218  0056              #line 1218 "e:\x-sense\xp02\htba45f5260-xp0456\src\Co.c"
1218  0056  1F00     E  	clr ra
1218  0057  3914        	snz [20].2
1218  0058  3000     E  	set ra.2
1218  0059  3514        	clr [20].2
1218  005A  0700     E  	mov a,ra
1218  005B  0594        	orm a,[20]
1218  005C  2800     R  	jmp _L112
1218  005D              _L118:
1226  005D              #line 1226 "e:\x-sense\xp02\htba45f5260-xp0456\src\Co.c"
1226  005D              	fcall _SmokeAlarmCheck
1227  0064              #line 1227 "e:\x-sense\xp02\htba45f5260-xp0456\src\Co.c"
1227  0064  0700     R  	mov a,___MuteTimeCnt_3258[0]
1227  0065  0080     R  	mov _CoMuteMain_2[0],a
1227  0066  0700     R  	mov a,___MuteTimeCnt_3258[1]
1227  0067  0080     R  	mov _CoMuteMain_2[1],a
1227  0068  0F01        	mov a,1
1227  0069  0300     R  	add a,_CoMuteMain_2[0]
1227  006A  0080     R  	mov ___MuteTimeCnt_3258[0],a
1227  006B  0F00        	mov a,0
1227  006C  1300     R  	adc a,_CoMuteMain_2[1]
1227  006D  0080     R  	mov ___MuteTimeCnt_3258[1],a
1227  006E              #pragma debug scope 20 19
1227  006E              ;begin block, line: 1227.-1
1227  006E              #pragma debug scope 21 20
1227  006E              ;begin block, line: 1227.-1
 980  006E              #line 980 "e:\x-sense\xp02\htba45f5260-xp0456\src\Co.c"
 980  006E  0700     R  	mov a,_CoMuteMain_2[0]
 980  006F  0080     E  	mov _printf_2[2],a
 980  0070  0700     R  	mov a,_CoMuteMain_2[1]
 980  0071  0080     E  	mov _printf_2[3],a
 980  0072  0F00     R  	mov a,low offset _LC18
 980  0073  0080     E  	mov _printf_2[0],a
 980  0074  0F00     R  	mov a,high offset _LC18
 980  0075  0080     E  	mov _printf_2[1],a
 980  0076              	fcall _printf
 983  007D              #line 983 "e:\x-sense\xp02\htba45f5260-xp0456\src\Co.c"
 983  007D  0F3B        	mov a,59
 983  007E  0200     R  	sub a,_CoMuteMain_2[0]
 983  007F  0F00        	mov a,0
 983  0080  1200     R  	sbc a,_CoMuteMain_2[1]
 983  0081  3C0A        	sz c
 983  0082  2800     R  	jmp _L122
 985  0083              #line 985 "e:\x-sense\xp02\htba45f5260-xp0456\src\Co.c"
 985  0083              	fcall _CoAlarmCheck
 985  008A  0700     E  	mov a,ra
 985  008B  0080     R  	mov ___PPM_3228[0],a
 985  008C  0700     E  	mov a,rb
 985  008D  0080     R  	mov ___PPM_3228[1],a
文件：Co.c         编译器版本 HGASM 0202 页次50

 987  008E              #line 987 "e:\x-sense\xp02\htba45f5260-xp0456\src\Co.c"
 987  008E  0F3F        	mov a,63
 987  008F  0200     E  	sub a,ra
 987  0090  0F00        	mov a,0
 987  0091  1200     E  	sbc a,rb
 987  0092  3C0A        	sz c
 987  0093  2800     R  	jmp _L123
 992  0094              #line 992 "e:\x-sense\xp02\htba45f5260-xp0456\src\Co.c"
 992  0094  0F07        	mov a,7
 992  0095  0080     E  	mov _TmrDeleteTimer_2[0],a
 992  0096  1F00     E  	clr _TmrDeleteTimer_2[1]
 992  0097              	fcall _TmrDeleteTimer
 993  009E              #line 993 "e:\x-sense\xp02\htba45f5260-xp0456\src\Co.c"
 993  009E  0F1C        	mov a,28
 993  009F  0080     E  	mov _SysteSetSig_2[0],a
 993  00A0  1F00     E  	clr _SysteSetSig_2[1]
 993  00A1              	fcall _SysteSetSig
 993  00A8              _L123:
 997  00A8              #line 997 "e:\x-sense\xp02\htba45f5260-xp0456\src\Co.c"
 997  00A8  0F6B        	mov a,107
 997  00A9  0200     R  	sub a,_CoMuteMain_2[0]
 997  00AA  0F00        	mov a,0
 997  00AB  1200     R  	sbc a,_CoMuteMain_2[1]
 997  00AC  3C0A        	sz c
 997  00AD  2800     R  	jmp _L122
 999  00AE              #line 999 "e:\x-sense\xp02\htba45f5260-xp0456\src\Co.c"
 999  00AE  1F00     E  	clr _SysAO[0]
 999  00AF  1F00     E  	clr _SysAO[1]
1000  00B0              #line 1000 "e:\x-sense\xp02\htba45f5260-xp0456\src\Co.c"
1000  00B0  0F07        	mov a,7
1000  00B1  0080     E  	mov _TmrDeleteTimer_2[0],a
1000  00B2  1F00     E  	clr _TmrDeleteTimer_2[1]
1000  00B3              	fcall _TmrDeleteTimer
1001  00BA              #line 1001 "e:\x-sense\xp02\htba45f5260-xp0456\src\Co.c"
1001  00BA  0F22        	mov a,34
1001  00BB  0080     E  	mov _SysteSetSig_2[0],a
1001  00BC  1F00     E  	clr _SysteSetSig_2[1]
1001  00BD              	fcall _SysteSetSig
1001  00C4              _L122:
1001  00C4              #pragma debug scope 20 19
1001  00C4              #pragma debug scope 19 1
1228  00C4              #line 1228 "e:\x-sense\xp02\htba45f5260-xp0456\src\Co.c"
1228  00C4  0F07        	mov a,7
1228  00C5  0080     E  	mov _TmrDeleteTimer_2[0],a
1228  00C6  1F00     E  	clr _TmrDeleteTimer_2[1]
1228  00C7              	fcall _TmrDeleteTimer
1228  00CE              _L129:
1229  00CE              #line 1229 "e:\x-sense\xp02\htba45f5260-xp0456\src\Co.c"
1229  00CE  0F01        	mov a,1
1229  00CF  0080     E  	mov _TmrInsertTimer_2[4],a
1229  00D0  1F00     E  	clr _TmrInsertTimer_2[5]
1229  00D1  0F0A        	mov a,10
1229  00D2  0080     E  	mov _TmrInsertTimer_2[2],a
1229  00D3  1F00     E  	clr _TmrInsertTimer_2[3]
1229  00D4  2800     R  	jmp _L128
1229  00D5              _L116:
1233  00D5              #line 1233 "e:\x-sense\xp02\htba45f5260-xp0456\src\Co.c"
1233  00D5  0F08        	mov a,8
1233  00D6  0080     E  	mov _SysAO[0],a
1233  00D7  1F00     E  	clr _SysAO[1]
文件：Co.c         编译器版本 HGASM 0202 页次51

1233  00D8  2800     R  	jmp _L127
1233  00D9              _L115:
1238  00D9              #line 1238 "e:\x-sense\xp02\htba45f5260-xp0456\src\Co.c"
1238  00D9  0F07        	mov a,7
1238  00DA  0080     E  	mov _TmrDeleteTimer_2[0],a
1238  00DB  1F00     E  	clr _TmrDeleteTimer_2[1]
1238  00DC              	fcall _TmrDeleteTimer
1239  00E3              #line 1239 "e:\x-sense\xp02\htba45f5260-xp0456\src\Co.c"
1239  00E3  0F03        	mov a,3
1239  00E4  0080     E  	mov _SysAO[0],a
1239  00E5  1F00     E  	clr _SysAO[1]
1240  00E6              #line 1240 "e:\x-sense\xp02\htba45f5260-xp0456\src\Co.c"
1240  00E6  2800     R  	jmp _L112
1240  00E7              _L126:
1248  00E7              #line 1248 "e:\x-sense\xp02\htba45f5260-xp0456\src\Co.c"
1248  00E7  3014        	set [20].0
1249  00E8              #line 1249 "e:\x-sense\xp02\htba45f5260-xp0456\src\Co.c"
1249  00E8              ;# 1249 "e:\x-sense\xp02\htba45f5260-xp0456\src\Co.c" 1
1249  00E8              	IF 250000>263690
1249  00E8              ;# 1249 "e:\x-sense\xp02\htba45f5260-xp0456\src\Co.c" 1
1249  00E8              	ERRMESSAGE 'the value 250000of the argument exceeds the maxinum 263690'
1249  00E8              	ENDIF
1249  00E8              ;# 1249 "e:\x-sense\xp02\htba45f5260-xp0456\src\Co.c" 1
1249  00E8              	IF 250000<0
1249  00E8              ;# 1249 "e:\x-sense\xp02\htba45f5260-xp0456\src\Co.c" 1
1249  00E8              	ERRMESSAGE 'the value 250000 of the argument exceeds the mininum 0'
1249  00E8              	ENDIF
1249  00E8              ;# 1249 "e:\x-sense\xp02\htba45f5260-xp0456\src\Co.c" 1
1249  00E8              	IF 250000==0
1249  00E8              ;# 1249 "e:\x-sense\xp02\htba45f5260-xp0456\src\Co.c" 1
1249  00E8              	JMP $
1249  00E8              	ENDIF
1249  00E8              ;# 1249 "e:\x-sense\xp02\htba45f5260-xp0456\src\Co.c" 1
1249  00E8              	IF (250000>=1) AND (250000<( 4 + __PBP__ * 2))
1249  00E8              ;# 1249 "e:\x-sense\xp02\htba45f5260-xp0456\src\Co.c" 1
1249  00E8              	NOP
1249  00E8              	ENDIF
1249  00E8              ;# 1249 "e:\x-sense\xp02\htba45f5260-xp0456\src\Co.c" 1
1249  00E8              	IF (250000>=2) AND (250000<( 4 + __PBP__ * 2))
1249  00E8              ;# 1249 "e:\x-sense\xp02\htba45f5260-xp0456\src\Co.c" 1
1249  00E8              	NOP
1249  00E8              	ENDIF
1249  00E8              ;# 1249 "e:\x-sense\xp02\htba45f5260-xp0456\src\Co.c" 1
1249  00E8              	IF (250000>=3) AND (250000<( 4 + __PBP__ * 2))
1249  00E8              ;# 1249 "e:\x-sense\xp02\htba45f5260-xp0456\src\Co.c" 1
1249  00E8              	NOP
1249  00E8              	ENDIF
1249  00E8              ;# 1249 "e:\x-sense\xp02\htba45f5260-xp0456\src\Co.c" 1
1249  00E8              	IF (250000>=4) AND (250000<( 4 + __PBP__ * 2)) AND ( __PBP__ > 0 )
1249  00E8              ;# 1249 "e:\x-sense\xp02\htba45f5260-xp0456\src\Co.c" 1
1249  00E8              	NOP
1249  00E8              	ENDIF
1249  00E8              ;# 1249 "e:\x-sense\xp02\htba45f5260-xp0456\src\Co.c" 1
1249  00E8              	IF (250000>=5) AND (250000<( 4 + __PBP__ * 2)) AND ( __PBP__ > 0 )
1249  00E8              ;# 1249 "e:\x-sense\xp02\htba45f5260-xp0456\src\Co.c" 1
1249  00E8              	NOP
1249  00E8              	ENDIF
1249  00E8              ;# 1249 "e:\x-sense\xp02\htba45f5260-xp0456\src\Co.c" 1
1249  00E8              	IF (250000>=6) AND (250000<( 4 + __PBP__ * 2))  AND ( __PBP__ > 1 )
1249  00E8              ;# 1249 "e:\x-sense\xp02\htba45f5260-xp0456\src\Co.c" 1
文件：Co.c         编译器版本 HGASM 0202 页次52

1249  00E8              	NOP
1249  00E8              	ENDIF
1249  00E8              ;# 1249 "e:\x-sense\xp02\htba45f5260-xp0456\src\Co.c" 1
1249  00E8              	IF (250000>=7) AND (250000<( 4 + __PBP__ * 2))  AND ( __PBP__ > 1 )
1249  00E8              ;# 1249 "e:\x-sense\xp02\htba45f5260-xp0456\src\Co.c" 1
1249  00E8              	NOP
1249  00E8              	ENDIF
1249  00E8              ;# 1249 "e:\x-sense\xp02\htba45f5260-xp0456\src\Co.c" 1
1249  00E8              	IF (250000>=8) AND (250000<( 4 + __PBP__ * 2))  AND ( __PBP__ > 2 )
1249  00E8              ;# 1249 "e:\x-sense\xp02\htba45f5260-xp0456\src\Co.c" 1
1249  00E8              	NOP
1249  00E8              	ENDIF
1249  00E8              ;# 1249 "e:\x-sense\xp02\htba45f5260-xp0456\src\Co.c" 1
1249  00E8              	IF (250000==9)  AND ( __PBP__ > 2 )
1249  00E8              ;# 1249 "e:\x-sense\xp02\htba45f5260-xp0456\src\Co.c" 1
1249  00E8              	NOP
1249  00E8              	ENDIF
1249  00E8              ;# 1249 "e:\x-sense\xp02\htba45f5260-xp0456\src\Co.c" 1
1249  00E8              	IF (250000< ( 8 + __PBP__ * 2)) AND (250000>( 3 + __PBP__ * 2))
1249  00E8              ;# 1249 "e:\x-sense\xp02\htba45f5260-xp0456\src\Co.c" 1
1249  00E8              	fcall __DELAY3 + ( 7 + __PBP__ * 2) -250000
1249  00E8              	ENDIF
1249  00E8              ;# 1249 "e:\x-sense\xp02\htba45f5260-xp0456\src\Co.c" 1
1249  00E8              	IF (250000< ( 0404h + __PBP__ * 2)) AND (250000>( 7 + __PBP__ * 2))
1249  00E8              ;# 1249 "e:\x-sense\xp02\htba45f5260-xp0456\src\Co.c" 1
1249  00E8              	MOV A,(250000-( 4 + __PBP__ * 2))/4
1249  00E8              ;# 1249 "e:\x-sense\xp02\htba45f5260-xp0456\src\Co.c" 1
1249  00E8              	fcall __DELAYX3 + 3 -((250000-( 4 + __PBP__ * 2)) MOD 4) 
1249  00E8              	ENDIF
1249  00E8              ;# 1249 "e:\x-sense\xp02\htba45f5260-xp0456\src\Co.c" 1
1249  00E8              	IF (250000< ( 040bh + __PBP__ * 2)) AND (250000> ( 0403h + __PBP__ * 2))
1249  00E8              ;# 1249 "e:\x-sense\xp02\htba45f5260-xp0456\src\Co.c" 1
1249  00E8              	MOV A,0 
1249  00E8              ;# 1249 "e:\x-sense\xp02\htba45f5260-xp0456\src\Co.c" 1
1249  00E8              	fcall __DELAYX6 + ( 040ah + __PBP__ * 2) -250000
1249  00E8              	ENDIF
1249  00E8              ;# 1249 "e:\x-sense\xp02\htba45f5260-xp0456\src\Co.c" 1
1249  00E8              	IF (250000 >= ( 040bh + __PBP__ * 2)) AND ((((250000-( 9 + __PBP__ * 2))%0402h)/4+1)>256)
1249  00E8              ;# 1249 "e:\x-sense\xp02\htba45f5260-xp0456\src\Co.c" 1
1249  00E8              	MOV A,(250000-( 9 + __PBP__ * 2))/0402h
1249  00E8              ;# 1249 "e:\x-sense\xp02\htba45f5260-xp0456\src\Co.c" 1
1249  00E8              	MOV _builtin_holtek_delay_2,A
1249  00E8              ;# 1249 "e:\x-sense\xp02\htba45f5260-xp0456\src\Co.c" 1
1249  00E8              	MOV A,0
1249  00E8              ;# 1249 "e:\x-sense\xp02\htba45f5260-xp0456\src\Co.c" 1
1249  00E8              	fcall __DELAYY5 +5- (((250000-( 9 + __PBP__ * 2))%0402h)%6) 
1249  00E8              	ENDIF
1249  00E8              ;# 1249 "e:\x-sense\xp02\htba45f5260-xp0456\src\Co.c" 1
1249  00E8              	IF (250000 >= ( 040bh + __PBP__ * 2)) AND ((((250000-( 9 + __PBP__ * 2))%0402h)/4+1)<=256)
1249  00E8              ;# 1249 "e:\x-sense\xp02\htba45f5260-xp0456\src\Co.c" 1
1249  00E8  0FF3        	MOV A,(250000-( 9 + __PBP__ * 2))/0402h
1249  00E9              ;# 1249 "e:\x-sense\xp02\htba45f5260-xp0456\src\Co.c" 1
1249  00E9  0080     E  	MOV _builtin_holtek_delay_2,A
1249  00EA              ;# 1249 "e:\x-sense\xp02\htba45f5260-xp0456\src\Co.c" 1
1249  00EA  0FA8        	MOV A,((250000-( 9 + __PBP__ * 2))%0402h)/4+1
1249  00EB              ;# 1249 "e:\x-sense\xp02\htba45f5260-xp0456\src\Co.c" 1
1249  00EB              	fcall __DELAYY3 +3-(((250000-( 9 + __PBP__ * 2))%0402h)%4) 
1249  00F2              	ENDIF
1250  00F2              #line 1250 "e:\x-sense\xp02\htba45f5260-xp0456\src\Co.c"
1250  00F2              ;# 1250 "e:\x-sense\xp02\htba45f5260-xp0456\src\Co.c" 1
文件：Co.c         编译器版本 HGASM 0202 页次53

1250  00F2              	IF 250000>263690
1250  00F2              ;# 1250 "e:\x-sense\xp02\htba45f5260-xp0456\src\Co.c" 1
1250  00F2              	ERRMESSAGE 'the value 250000of the argument exceeds the maxinum 263690'
1250  00F2              	ENDIF
1250  00F2              ;# 1250 "e:\x-sense\xp02\htba45f5260-xp0456\src\Co.c" 1
1250  00F2              	IF 250000<0
1250  00F2              ;# 1250 "e:\x-sense\xp02\htba45f5260-xp0456\src\Co.c" 1
1250  00F2              	ERRMESSAGE 'the value 250000 of the argument exceeds the mininum 0'
1250  00F2              	ENDIF
1250  00F2              ;# 1250 "e:\x-sense\xp02\htba45f5260-xp0456\src\Co.c" 1
1250  00F2              	IF 250000==0
1250  00F2              ;# 1250 "e:\x-sense\xp02\htba45f5260-xp0456\src\Co.c" 1
1250  00F2              	JMP $
1250  00F2              	ENDIF
1250  00F2              ;# 1250 "e:\x-sense\xp02\htba45f5260-xp0456\src\Co.c" 1
1250  00F2              	IF (250000>=1) AND (250000<( 4 + __PBP__ * 2))
1250  00F2              ;# 1250 "e:\x-sense\xp02\htba45f5260-xp0456\src\Co.c" 1
1250  00F2              	NOP
1250  00F2              	ENDIF
1250  00F2              ;# 1250 "e:\x-sense\xp02\htba45f5260-xp0456\src\Co.c" 1
1250  00F2              	IF (250000>=2) AND (250000<( 4 + __PBP__ * 2))
1250  00F2              ;# 1250 "e:\x-sense\xp02\htba45f5260-xp0456\src\Co.c" 1
1250  00F2              	NOP
1250  00F2              	ENDIF
1250  00F2              ;# 1250 "e:\x-sense\xp02\htba45f5260-xp0456\src\Co.c" 1
1250  00F2              	IF (250000>=3) AND (250000<( 4 + __PBP__ * 2))
1250  00F2              ;# 1250 "e:\x-sense\xp02\htba45f5260-xp0456\src\Co.c" 1
1250  00F2              	NOP
1250  00F2              	ENDIF
1250  00F2              ;# 1250 "e:\x-sense\xp02\htba45f5260-xp0456\src\Co.c" 1
1250  00F2              	IF (250000>=4) AND (250000<( 4 + __PBP__ * 2)) AND ( __PBP__ > 0 )
1250  00F2              ;# 1250 "e:\x-sense\xp02\htba45f5260-xp0456\src\Co.c" 1
1250  00F2              	NOP
1250  00F2              	ENDIF
1250  00F2              ;# 1250 "e:\x-sense\xp02\htba45f5260-xp0456\src\Co.c" 1
1250  00F2              	IF (250000>=5) AND (250000<( 4 + __PBP__ * 2)) AND ( __PBP__ > 0 )
1250  00F2              ;# 1250 "e:\x-sense\xp02\htba45f5260-xp0456\src\Co.c" 1
1250  00F2              	NOP
1250  00F2              	ENDIF
1250  00F2              ;# 1250 "e:\x-sense\xp02\htba45f5260-xp0456\src\Co.c" 1
1250  00F2              	IF (250000>=6) AND (250000<( 4 + __PBP__ * 2))  AND ( __PBP__ > 1 )
1250  00F2              ;# 1250 "e:\x-sense\xp02\htba45f5260-xp0456\src\Co.c" 1
1250  00F2              	NOP
1250  00F2              	ENDIF
1250  00F2              ;# 1250 "e:\x-sense\xp02\htba45f5260-xp0456\src\Co.c" 1
1250  00F2              	IF (250000>=7) AND (250000<( 4 + __PBP__ * 2))  AND ( __PBP__ > 1 )
1250  00F2              ;# 1250 "e:\x-sense\xp02\htba45f5260-xp0456\src\Co.c" 1
1250  00F2              	NOP
1250  00F2              	ENDIF
1250  00F2              ;# 1250 "e:\x-sense\xp02\htba45f5260-xp0456\src\Co.c" 1
1250  00F2              	IF (250000>=8) AND (250000<( 4 + __PBP__ * 2))  AND ( __PBP__ > 2 )
1250  00F2              ;# 1250 "e:\x-sense\xp02\htba45f5260-xp0456\src\Co.c" 1
1250  00F2              	NOP
1250  00F2              	ENDIF
1250  00F2              ;# 1250 "e:\x-sense\xp02\htba45f5260-xp0456\src\Co.c" 1
1250  00F2              	IF (250000==9)  AND ( __PBP__ > 2 )
1250  00F2              ;# 1250 "e:\x-sense\xp02\htba45f5260-xp0456\src\Co.c" 1
1250  00F2              	NOP
1250  00F2              	ENDIF
1250  00F2              ;# 1250 "e:\x-sense\xp02\htba45f5260-xp0456\src\Co.c" 1
文件：Co.c         编译器版本 HGASM 0202 页次54

1250  00F2              	IF (250000< ( 8 + __PBP__ * 2)) AND (250000>( 3 + __PBP__ * 2))
1250  00F2              ;# 1250 "e:\x-sense\xp02\htba45f5260-xp0456\src\Co.c" 1
1250  00F2              	fcall __DELAY3 + ( 7 + __PBP__ * 2) -250000
1250  00F2              	ENDIF
1250  00F2              ;# 1250 "e:\x-sense\xp02\htba45f5260-xp0456\src\Co.c" 1
1250  00F2              	IF (250000< ( 0404h + __PBP__ * 2)) AND (250000>( 7 + __PBP__ * 2))
1250  00F2              ;# 1250 "e:\x-sense\xp02\htba45f5260-xp0456\src\Co.c" 1
1250  00F2              	MOV A,(250000-( 4 + __PBP__ * 2))/4
1250  00F2              ;# 1250 "e:\x-sense\xp02\htba45f5260-xp0456\src\Co.c" 1
1250  00F2              	fcall __DELAYX3 + 3 -((250000-( 4 + __PBP__ * 2)) MOD 4) 
1250  00F2              	ENDIF
1250  00F2              ;# 1250 "e:\x-sense\xp02\htba45f5260-xp0456\src\Co.c" 1
1250  00F2              	IF (250000< ( 040bh + __PBP__ * 2)) AND (250000> ( 0403h + __PBP__ * 2))
1250  00F2              ;# 1250 "e:\x-sense\xp02\htba45f5260-xp0456\src\Co.c" 1
1250  00F2              	MOV A,0 
1250  00F2              ;# 1250 "e:\x-sense\xp02\htba45f5260-xp0456\src\Co.c" 1
1250  00F2              	fcall __DELAYX6 + ( 040ah + __PBP__ * 2) -250000
1250  00F2              	ENDIF
1250  00F2              ;# 1250 "e:\x-sense\xp02\htba45f5260-xp0456\src\Co.c" 1
1250  00F2              	IF (250000 >= ( 040bh + __PBP__ * 2)) AND ((((250000-( 9 + __PBP__ * 2))%0402h)/4+1)>256)
1250  00F2              ;# 1250 "e:\x-sense\xp02\htba45f5260-xp0456\src\Co.c" 1
1250  00F2              	MOV A,(250000-( 9 + __PBP__ * 2))/0402h
1250  00F2              ;# 1250 "e:\x-sense\xp02\htba45f5260-xp0456\src\Co.c" 1
1250  00F2              	MOV _builtin_holtek_delay_2,A
1250  00F2              ;# 1250 "e:\x-sense\xp02\htba45f5260-xp0456\src\Co.c" 1
1250  00F2              	MOV A,0
1250  00F2              ;# 1250 "e:\x-sense\xp02\htba45f5260-xp0456\src\Co.c" 1
1250  00F2              	fcall __DELAYY5 +5- (((250000-( 9 + __PBP__ * 2))%0402h)%6) 
1250  00F2              	ENDIF
1250  00F2              ;# 1250 "e:\x-sense\xp02\htba45f5260-xp0456\src\Co.c" 1
1250  00F2              	IF (250000 >= ( 040bh + __PBP__ * 2)) AND ((((250000-( 9 + __PBP__ * 2))%0402h)/4+1)<=256)
1250  00F2              ;# 1250 "e:\x-sense\xp02\htba45f5260-xp0456\src\Co.c" 1
1250  00F2  0FF3        	MOV A,(250000-( 9 + __PBP__ * 2))/0402h
1250  00F3              ;# 1250 "e:\x-sense\xp02\htba45f5260-xp0456\src\Co.c" 1
1250  00F3  0080     E  	MOV _builtin_holtek_delay_2,A
1250  00F4              ;# 1250 "e:\x-sense\xp02\htba45f5260-xp0456\src\Co.c" 1
1250  00F4  0FA8        	MOV A,((250000-( 9 + __PBP__ * 2))%0402h)/4+1
1250  00F5              ;# 1250 "e:\x-sense\xp02\htba45f5260-xp0456\src\Co.c" 1
1250  00F5              	fcall __DELAYY3 +3-(((250000-( 9 + __PBP__ * 2))%0402h)%4) 
1250  00FC              	ENDIF
1251  00FC              #line 1251 "e:\x-sense\xp02\htba45f5260-xp0456\src\Co.c"
1251  00FC  3414        	clr [20].0
1252  00FD              #line 1252 "e:\x-sense\xp02\htba45f5260-xp0456\src\Co.c"
1252  00FD              ;# 1252 "e:\x-sense\xp02\htba45f5260-xp0456\src\Co.c" 1
1252  00FD              	IF 250000>263690
1252  00FD              ;# 1252 "e:\x-sense\xp02\htba45f5260-xp0456\src\Co.c" 1
1252  00FD              	ERRMESSAGE 'the value 250000of the argument exceeds the maxinum 263690'
1252  00FD              	ENDIF
1252  00FD              ;# 1252 "e:\x-sense\xp02\htba45f5260-xp0456\src\Co.c" 1
1252  00FD              	IF 250000<0
1252  00FD              ;# 1252 "e:\x-sense\xp02\htba45f5260-xp0456\src\Co.c" 1
1252  00FD              	ERRMESSAGE 'the value 250000 of the argument exceeds the mininum 0'
1252  00FD              	ENDIF
1252  00FD              ;# 1252 "e:\x-sense\xp02\htba45f5260-xp0456\src\Co.c" 1
1252  00FD              	IF 250000==0
1252  00FD              ;# 1252 "e:\x-sense\xp02\htba45f5260-xp0456\src\Co.c" 1
1252  00FD              	JMP $
1252  00FD              	ENDIF
1252  00FD              ;# 1252 "e:\x-sense\xp02\htba45f5260-xp0456\src\Co.c" 1
1252  00FD              	IF (250000>=1) AND (250000<( 4 + __PBP__ * 2))
文件：Co.c         编译器版本 HGASM 0202 页次55

1252  00FD              ;# 1252 "e:\x-sense\xp02\htba45f5260-xp0456\src\Co.c" 1
1252  00FD              	NOP
1252  00FD              	ENDIF
1252  00FD              ;# 1252 "e:\x-sense\xp02\htba45f5260-xp0456\src\Co.c" 1
1252  00FD              	IF (250000>=2) AND (250000<( 4 + __PBP__ * 2))
1252  00FD              ;# 1252 "e:\x-sense\xp02\htba45f5260-xp0456\src\Co.c" 1
1252  00FD              	NOP
1252  00FD              	ENDIF
1252  00FD              ;# 1252 "e:\x-sense\xp02\htba45f5260-xp0456\src\Co.c" 1
1252  00FD              	IF (250000>=3) AND (250000<( 4 + __PBP__ * 2))
1252  00FD              ;# 1252 "e:\x-sense\xp02\htba45f5260-xp0456\src\Co.c" 1
1252  00FD              	NOP
1252  00FD              	ENDIF
1252  00FD              ;# 1252 "e:\x-sense\xp02\htba45f5260-xp0456\src\Co.c" 1
1252  00FD              	IF (250000>=4) AND (250000<( 4 + __PBP__ * 2)) AND ( __PBP__ > 0 )
1252  00FD              ;# 1252 "e:\x-sense\xp02\htba45f5260-xp0456\src\Co.c" 1
1252  00FD              	NOP
1252  00FD              	ENDIF
1252  00FD              ;# 1252 "e:\x-sense\xp02\htba45f5260-xp0456\src\Co.c" 1
1252  00FD              	IF (250000>=5) AND (250000<( 4 + __PBP__ * 2)) AND ( __PBP__ > 0 )
1252  00FD              ;# 1252 "e:\x-sense\xp02\htba45f5260-xp0456\src\Co.c" 1
1252  00FD              	NOP
1252  00FD              	ENDIF
1252  00FD              ;# 1252 "e:\x-sense\xp02\htba45f5260-xp0456\src\Co.c" 1
1252  00FD              	IF (250000>=6) AND (250000<( 4 + __PBP__ * 2))  AND ( __PBP__ > 1 )
1252  00FD              ;# 1252 "e:\x-sense\xp02\htba45f5260-xp0456\src\Co.c" 1
1252  00FD              	NOP
1252  00FD              	ENDIF
1252  00FD              ;# 1252 "e:\x-sense\xp02\htba45f5260-xp0456\src\Co.c" 1
1252  00FD              	IF (250000>=7) AND (250000<( 4 + __PBP__ * 2))  AND ( __PBP__ > 1 )
1252  00FD              ;# 1252 "e:\x-sense\xp02\htba45f5260-xp0456\src\Co.c" 1
1252  00FD              	NOP
1252  00FD              	ENDIF
1252  00FD              ;# 1252 "e:\x-sense\xp02\htba45f5260-xp0456\src\Co.c" 1
1252  00FD              	IF (250000>=8) AND (250000<( 4 + __PBP__ * 2))  AND ( __PBP__ > 2 )
1252  00FD              ;# 1252 "e:\x-sense\xp02\htba45f5260-xp0456\src\Co.c" 1
1252  00FD              	NOP
1252  00FD              	ENDIF
1252  00FD              ;# 1252 "e:\x-sense\xp02\htba45f5260-xp0456\src\Co.c" 1
1252  00FD              	IF (250000==9)  AND ( __PBP__ > 2 )
1252  00FD              ;# 1252 "e:\x-sense\xp02\htba45f5260-xp0456\src\Co.c" 1
1252  00FD              	NOP
1252  00FD              	ENDIF
1252  00FD              ;# 1252 "e:\x-sense\xp02\htba45f5260-xp0456\src\Co.c" 1
1252  00FD              	IF (250000< ( 8 + __PBP__ * 2)) AND (250000>( 3 + __PBP__ * 2))
1252  00FD              ;# 1252 "e:\x-sense\xp02\htba45f5260-xp0456\src\Co.c" 1
1252  00FD              	fcall __DELAY3 + ( 7 + __PBP__ * 2) -250000
1252  00FD              	ENDIF
1252  00FD              ;# 1252 "e:\x-sense\xp02\htba45f5260-xp0456\src\Co.c" 1
1252  00FD              	IF (250000< ( 0404h + __PBP__ * 2)) AND (250000>( 7 + __PBP__ * 2))
1252  00FD              ;# 1252 "e:\x-sense\xp02\htba45f5260-xp0456\src\Co.c" 1
1252  00FD              	MOV A,(250000-( 4 + __PBP__ * 2))/4
1252  00FD              ;# 1252 "e:\x-sense\xp02\htba45f5260-xp0456\src\Co.c" 1
1252  00FD              	fcall __DELAYX3 + 3 -((250000-( 4 + __PBP__ * 2)) MOD 4) 
1252  00FD              	ENDIF
1252  00FD              ;# 1252 "e:\x-sense\xp02\htba45f5260-xp0456\src\Co.c" 1
1252  00FD              	IF (250000< ( 040bh + __PBP__ * 2)) AND (250000> ( 0403h + __PBP__ * 2))
1252  00FD              ;# 1252 "e:\x-sense\xp02\htba45f5260-xp0456\src\Co.c" 1
1252  00FD              	MOV A,0 
1252  00FD              ;# 1252 "e:\x-sense\xp02\htba45f5260-xp0456\src\Co.c" 1
文件：Co.c         编译器版本 HGASM 0202 页次56

1252  00FD              	fcall __DELAYX6 + ( 040ah + __PBP__ * 2) -250000
1252  00FD              	ENDIF
1252  00FD              ;# 1252 "e:\x-sense\xp02\htba45f5260-xp0456\src\Co.c" 1
1252  00FD              	IF (250000 >= ( 040bh + __PBP__ * 2)) AND ((((250000-( 9 + __PBP__ * 2))%0402h)/4+1)>256)
1252  00FD              ;# 1252 "e:\x-sense\xp02\htba45f5260-xp0456\src\Co.c" 1
1252  00FD              	MOV A,(250000-( 9 + __PBP__ * 2))/0402h
1252  00FD              ;# 1252 "e:\x-sense\xp02\htba45f5260-xp0456\src\Co.c" 1
1252  00FD              	MOV _builtin_holtek_delay_2,A
1252  00FD              ;# 1252 "e:\x-sense\xp02\htba45f5260-xp0456\src\Co.c" 1
1252  00FD              	MOV A,0
1252  00FD              ;# 1252 "e:\x-sense\xp02\htba45f5260-xp0456\src\Co.c" 1
1252  00FD              	fcall __DELAYY5 +5- (((250000-( 9 + __PBP__ * 2))%0402h)%6) 
1252  00FD              	ENDIF
1252  00FD              ;# 1252 "e:\x-sense\xp02\htba45f5260-xp0456\src\Co.c" 1
1252  00FD              	IF (250000 >= ( 040bh + __PBP__ * 2)) AND ((((250000-( 9 + __PBP__ * 2))%0402h)/4+1)<=256)
1252  00FD              ;# 1252 "e:\x-sense\xp02\htba45f5260-xp0456\src\Co.c" 1
1252  00FD  0FF3        	MOV A,(250000-( 9 + __PBP__ * 2))/0402h
1252  00FE              ;# 1252 "e:\x-sense\xp02\htba45f5260-xp0456\src\Co.c" 1
1252  00FE  0080     E  	MOV _builtin_holtek_delay_2,A
1252  00FF              ;# 1252 "e:\x-sense\xp02\htba45f5260-xp0456\src\Co.c" 1
1252  00FF  0FA8        	MOV A,((250000-( 9 + __PBP__ * 2))%0402h)/4+1
1252  0100              ;# 1252 "e:\x-sense\xp02\htba45f5260-xp0456\src\Co.c" 1
1252  0100              	fcall __DELAYY3 +3-(((250000-( 9 + __PBP__ * 2))%0402h)%4) 
1252  0107              	ENDIF
1253  0107              #line 1253 "e:\x-sense\xp02\htba45f5260-xp0456\src\Co.c"
1253  0107              ;# 1253 "e:\x-sense\xp02\htba45f5260-xp0456\src\Co.c" 1
1253  0107              	IF 250000>263690
1253  0107              ;# 1253 "e:\x-sense\xp02\htba45f5260-xp0456\src\Co.c" 1
1253  0107              	ERRMESSAGE 'the value 250000of the argument exceeds the maxinum 263690'
1253  0107              	ENDIF
1253  0107              ;# 1253 "e:\x-sense\xp02\htba45f5260-xp0456\src\Co.c" 1
1253  0107              	IF 250000<0
1253  0107              ;# 1253 "e:\x-sense\xp02\htba45f5260-xp0456\src\Co.c" 1
1253  0107              	ERRMESSAGE 'the value 250000 of the argument exceeds the mininum 0'
1253  0107              	ENDIF
1253  0107              ;# 1253 "e:\x-sense\xp02\htba45f5260-xp0456\src\Co.c" 1
1253  0107              	IF 250000==0
1253  0107              ;# 1253 "e:\x-sense\xp02\htba45f5260-xp0456\src\Co.c" 1
1253  0107              	JMP $
1253  0107              	ENDIF
1253  0107              ;# 1253 "e:\x-sense\xp02\htba45f5260-xp0456\src\Co.c" 1
1253  0107              	IF (250000>=1) AND (250000<( 4 + __PBP__ * 2))
1253  0107              ;# 1253 "e:\x-sense\xp02\htba45f5260-xp0456\src\Co.c" 1
1253  0107              	NOP
1253  0107              	ENDIF
1253  0107              ;# 1253 "e:\x-sense\xp02\htba45f5260-xp0456\src\Co.c" 1
1253  0107              	IF (250000>=2) AND (250000<( 4 + __PBP__ * 2))
1253  0107              ;# 1253 "e:\x-sense\xp02\htba45f5260-xp0456\src\Co.c" 1
1253  0107              	NOP
1253  0107              	ENDIF
1253  0107              ;# 1253 "e:\x-sense\xp02\htba45f5260-xp0456\src\Co.c" 1
1253  0107              	IF (250000>=3) AND (250000<( 4 + __PBP__ * 2))
1253  0107              ;# 1253 "e:\x-sense\xp02\htba45f5260-xp0456\src\Co.c" 1
1253  0107              	NOP
1253  0107              	ENDIF
1253  0107              ;# 1253 "e:\x-sense\xp02\htba45f5260-xp0456\src\Co.c" 1
1253  0107              	IF (250000>=4) AND (250000<( 4 + __PBP__ * 2)) AND ( __PBP__ > 0 )
1253  0107              ;# 1253 "e:\x-sense\xp02\htba45f5260-xp0456\src\Co.c" 1
1253  0107              	NOP
1253  0107              	ENDIF
文件：Co.c         编译器版本 HGASM 0202 页次57

1253  0107              ;# 1253 "e:\x-sense\xp02\htba45f5260-xp0456\src\Co.c" 1
1253  0107              	IF (250000>=5) AND (250000<( 4 + __PBP__ * 2)) AND ( __PBP__ > 0 )
1253  0107              ;# 1253 "e:\x-sense\xp02\htba45f5260-xp0456\src\Co.c" 1
1253  0107              	NOP
1253  0107              	ENDIF
1253  0107              ;# 1253 "e:\x-sense\xp02\htba45f5260-xp0456\src\Co.c" 1
1253  0107              	IF (250000>=6) AND (250000<( 4 + __PBP__ * 2))  AND ( __PBP__ > 1 )
1253  0107              ;# 1253 "e:\x-sense\xp02\htba45f5260-xp0456\src\Co.c" 1
1253  0107              	NOP
1253  0107              	ENDIF
1253  0107              ;# 1253 "e:\x-sense\xp02\htba45f5260-xp0456\src\Co.c" 1
1253  0107              	IF (250000>=7) AND (250000<( 4 + __PBP__ * 2))  AND ( __PBP__ > 1 )
1253  0107              ;# 1253 "e:\x-sense\xp02\htba45f5260-xp0456\src\Co.c" 1
1253  0107              	NOP
1253  0107              	ENDIF
1253  0107              ;# 1253 "e:\x-sense\xp02\htba45f5260-xp0456\src\Co.c" 1
1253  0107              	IF (250000>=8) AND (250000<( 4 + __PBP__ * 2))  AND ( __PBP__ > 2 )
1253  0107              ;# 1253 "e:\x-sense\xp02\htba45f5260-xp0456\src\Co.c" 1
1253  0107              	NOP
1253  0107              	ENDIF
1253  0107              ;# 1253 "e:\x-sense\xp02\htba45f5260-xp0456\src\Co.c" 1
1253  0107              	IF (250000==9)  AND ( __PBP__ > 2 )
1253  0107              ;# 1253 "e:\x-sense\xp02\htba45f5260-xp0456\src\Co.c" 1
1253  0107              	NOP
1253  0107              	ENDIF
1253  0107              ;# 1253 "e:\x-sense\xp02\htba45f5260-xp0456\src\Co.c" 1
1253  0107              	IF (250000< ( 8 + __PBP__ * 2)) AND (250000>( 3 + __PBP__ * 2))
1253  0107              ;# 1253 "e:\x-sense\xp02\htba45f5260-xp0456\src\Co.c" 1
1253  0107              	fcall __DELAY3 + ( 7 + __PBP__ * 2) -250000
1253  0107              	ENDIF
1253  0107              ;# 1253 "e:\x-sense\xp02\htba45f5260-xp0456\src\Co.c" 1
1253  0107              	IF (250000< ( 0404h + __PBP__ * 2)) AND (250000>( 7 + __PBP__ * 2))
1253  0107              ;# 1253 "e:\x-sense\xp02\htba45f5260-xp0456\src\Co.c" 1
1253  0107              	MOV A,(250000-( 4 + __PBP__ * 2))/4
1253  0107              ;# 1253 "e:\x-sense\xp02\htba45f5260-xp0456\src\Co.c" 1
1253  0107              	fcall __DELAYX3 + 3 -((250000-( 4 + __PBP__ * 2)) MOD 4) 
1253  0107              	ENDIF
1253  0107              ;# 1253 "e:\x-sense\xp02\htba45f5260-xp0456\src\Co.c" 1
1253  0107              	IF (250000< ( 040bh + __PBP__ * 2)) AND (250000> ( 0403h + __PBP__ * 2))
1253  0107              ;# 1253 "e:\x-sense\xp02\htba45f5260-xp0456\src\Co.c" 1
1253  0107              	MOV A,0 
1253  0107              ;# 1253 "e:\x-sense\xp02\htba45f5260-xp0456\src\Co.c" 1
1253  0107              	fcall __DELAYX6 + ( 040ah + __PBP__ * 2) -250000
1253  0107              	ENDIF
1253  0107              ;# 1253 "e:\x-sense\xp02\htba45f5260-xp0456\src\Co.c" 1
1253  0107              	IF (250000 >= ( 040bh + __PBP__ * 2)) AND ((((250000-( 9 + __PBP__ * 2))%0402h)/4+1)>256)
1253  0107              ;# 1253 "e:\x-sense\xp02\htba45f5260-xp0456\src\Co.c" 1
1253  0107              	MOV A,(250000-( 9 + __PBP__ * 2))/0402h
1253  0107              ;# 1253 "e:\x-sense\xp02\htba45f5260-xp0456\src\Co.c" 1
1253  0107              	MOV _builtin_holtek_delay_2,A
1253  0107              ;# 1253 "e:\x-sense\xp02\htba45f5260-xp0456\src\Co.c" 1
1253  0107              	MOV A,0
1253  0107              ;# 1253 "e:\x-sense\xp02\htba45f5260-xp0456\src\Co.c" 1
1253  0107              	fcall __DELAYY5 +5- (((250000-( 9 + __PBP__ * 2))%0402h)%6) 
1253  0107              	ENDIF
1253  0107              ;# 1253 "e:\x-sense\xp02\htba45f5260-xp0456\src\Co.c" 1
1253  0107              	IF (250000 >= ( 040bh + __PBP__ * 2)) AND ((((250000-( 9 + __PBP__ * 2))%0402h)/4+1)<=256)
1253  0107              ;# 1253 "e:\x-sense\xp02\htba45f5260-xp0456\src\Co.c" 1
1253  0107  0FF3        	MOV A,(250000-( 9 + __PBP__ * 2))/0402h
1253  0108              ;# 1253 "e:\x-sense\xp02\htba45f5260-xp0456\src\Co.c" 1
文件：Co.c         编译器版本 HGASM 0202 页次58

1253  0108  0080     E  	MOV _builtin_holtek_delay_2,A
1253  0109              ;# 1253 "e:\x-sense\xp02\htba45f5260-xp0456\src\Co.c" 1
1253  0109  0FA8        	MOV A,((250000-( 9 + __PBP__ * 2))%0402h)/4+1
1253  010A              ;# 1253 "e:\x-sense\xp02\htba45f5260-xp0456\src\Co.c" 1
1253  010A              	fcall __DELAYY3 +3-(((250000-( 9 + __PBP__ * 2))%0402h)%4) 
1253  0111              	ENDIF
1253  0111  1780     E  	sdz ra
1253  0112  2800     R  	jmp _L126
1255  0113              #line 1255 "e:\x-sense\xp02\htba45f5260-xp0456\src\Co.c"
1255  0113  1F00     E  	clr _SysAO[0]
1255  0114  1F00     E  	clr _SysAO[1]
1255  0115              _L127:
1256  0115              #line 1256 "e:\x-sense\xp02\htba45f5260-xp0456\src\Co.c"
1256  0115  0F07        	mov a,7
1256  0116  0080     E  	mov _TmrDeleteTimer_2[0],a
1256  0117  1F00     E  	clr _TmrDeleteTimer_2[1]
1256  0118              	fcall _TmrDeleteTimer
1256  011F              _L112:
1256  011F  0003        	ret
1256  0120              _CoMuteMain endp
1256  0120              #line 1256 "e:\x-sense\xp02\htba45f5260-xp0456\src\Co.c"
1256  0120              #pragma debug scope 1 1
1256  0071              @crom	.section 'crom'
1256  0071              _LC19:
1256  0071              	db 043h,06fh,020h,045h,072h,072h,020h,04dh,06fh,064h
1256  0076              	db 065h,0ah,00h
1256  0078              public _CoErrMain
1256  0078              #pragma debug scope 22 1
1273  0078              #line 1273 "e:\x-sense\xp02\htba45f5260-xp0456\src\Co.c"
1273  0000              _CoErrMain .section 'code'
1273  0000              _CoErrMain proc
1276  0000              #line 1276 "e:\x-sense\xp02\htba45f5260-xp0456\src\Co.c"
1276  0000  0700     E  	mov a,_SysAO[4]
1276  0001  0C01        	xor a,1
1276  0002  0500     E  	or a,_SysAO[5]
1276  0003  3D0A        	sz z
1276  0004  2800     R  	jmp _L132
1276  0005              #line 1276 "e:\x-sense\xp02\htba45f5260-xp0456\src\Co.c"
1276  0005  0700     E  	mov a,_SysAO[4]
1276  0006  0C02        	xor a,2
1276  0007  0500     E  	or a,_SysAO[5]
1276  0008  3D0A        	sz z
1276  0009  2800     R  	jmp _L133
1276  000A  0700     E  	mov a,_SysAO[4]
1276  000B  0C06        	xor a,6
1276  000C  0500     E  	or a,_SysAO[5]
1276  000D  3D0A        	sz z
1276  000E  2800     R  	jmp _L132
1276  000F  0700     E  	mov a,_SysAO[4]
1276  0010  0C25        	xor a,37
1276  0011  0500     E  	or a,_SysAO[5]
1276  0012  390A        	snz z
1276  0013  2800     R  	jmp _L130
1301  0014              #line 1301 "e:\x-sense\xp02\htba45f5260-xp0456\src\Co.c"
1301  0014  1F00     E  	clr _SysAO[0]
1301  0015  1F00     E  	clr _SysAO[1]
1302  0016              #line 1302 "e:\x-sense\xp02\htba45f5260-xp0456\src\Co.c"
1302  0016  2800     R  	jmp _L130
1302  0017              _L132:
1280  0017              #line 1280 "e:\x-sense\xp02\htba45f5260-xp0456\src\Co.c"
文件：Co.c         编译器版本 HGASM 0202 页次59

1280  0017  0F00     R  	mov a,low offset _LC19
1280  0018  0080     E  	mov _printf_2[0],a
1280  0019  0F00     R  	mov a,high offset _LC19
1280  001A  0080     E  	mov _printf_2[1],a
1280  001B              	fcall _printf
1280  0022  2800     R  	jmp _L135
1280  0023              _L133:
1289  0023              #line 1289 "e:\x-sense\xp02\htba45f5260-xp0456\src\Co.c"
1289  0023  0F00     R  	mov a,low offset _COAO
1289  0024  0080     R  	mov _COSelfCheck_2[0],a
1289  0025  0F00     R  	mov a,high offset _COAO
1289  0026  0080     R  	mov _COSelfCheck_2[1],a
1289  0027              	fcall _COSelfCheck
1290  002E              #line 1290 "e:\x-sense\xp02\htba45f5260-xp0456\src\Co.c"
1290  002E  1400     R  	inca ___CheckTimeCnt_3274[0]
1290  002F  0080     E  	mov ra,a
1290  0030  0F05        	mov a,5
1290  0031  0200     E  	sub a,ra
1290  0032  380A        	snz c
1290  0033  2800     R  	jmp _L135
1290  0034  0700     E  	mov a,ra
1290  0035  0080     R  	mov ___CheckTimeCnt_3274[0],a
1290  0036  2800     R  	jmp _L130
1290  0037              _L135:
1295  0037              #line 1295 "e:\x-sense\xp02\htba45f5260-xp0456\src\Co.c"
1295  0037  1F00     R  	clr ___CheckTimeCnt_3274[0]
1296  0038              #line 1296 "e:\x-sense\xp02\htba45f5260-xp0456\src\Co.c"
1296  0038  0F02        	mov a,2
1296  0039  0080     E  	mov _ErrIndex_2[1],a
1296  003A  0F01        	mov a,1
1296  003B  0080     E  	mov _ErrIndex_2[0],a
1296  003C  0F01        	mov a,1
1296  003D              	fcall _ErrIndex
1296  0044              _L130:
1296  0044  0003        	ret
1296  0045              _CoErrMain endp
1296  0045              #line 1296 "e:\x-sense\xp02\htba45f5260-xp0456\src\Co.c"
1296  0045              #pragma debug scope 1 1
1296  0045              public _RfCoAlarmMain
1296  0045              #pragma debug scope 23 1
1318  0045              #line 1318 "e:\x-sense\xp02\htba45f5260-xp0456\src\Co.c"
1318  0000              _RfCoAlarmMain .section 'code'
1318  0000              _RfCoAlarmMain proc
1321  0000              #line 1321 "e:\x-sense\xp02\htba45f5260-xp0456\src\Co.c"
1321  0000  0700     E  	mov a,_SysAO[4]
1321  0001  0C01        	xor a,1
1321  0002  0500     E  	or a,_SysAO[5]
1321  0003  3D0A        	sz z
1321  0004  2800     R  	jmp _L138
1321  0005              #line 1321 "e:\x-sense\xp02\htba45f5260-xp0456\src\Co.c"
1321  0005  0700     E  	mov a,_SysAO[4]
1321  0006  0C04        	xor a,4
1321  0007  0500     E  	or a,_SysAO[5]
1321  0008  3D0A        	sz z
1321  0009  2800     R  	jmp _L139
1321  000A  0700     E  	mov a,_SysAO[4]
1321  000B  0C06        	xor a,6
1321  000C  0500     E  	or a,_SysAO[5]
1321  000D  3D0A        	sz z
1321  000E  2800     R  	jmp _L140
文件：Co.c         编译器版本 HGASM 0202 页次60

1321  000F  0700     E  	mov a,_SysAO[4]
1321  0010  0C0E        	xor a,14
1321  0011  0500     E  	or a,_SysAO[5]
1321  0012  3D0A        	sz z
1321  0013  2800     R  	jmp _L141
1321  0014  0700     E  	mov a,_SysAO[4]
1321  0015  0C1C        	xor a,28
1321  0016  0500     E  	or a,_SysAO[5]
1321  0017  3D0A        	sz z
1321  0018  2800     R  	jmp _L142
1321  0019  0700     E  	mov a,_SysAO[4]
1321  001A  0C1D        	xor a,29
1321  001B  0500     E  	or a,_SysAO[5]
1321  001C  3D0A        	sz z
1321  001D  2800     R  	jmp _L143
1321  001E  0700     E  	mov a,_SysAO[4]
1321  001F  0C1E        	xor a,30
1321  0020  0500     E  	or a,_SysAO[5]
1321  0021  3D0A        	sz z
1321  0022  2800     R  	jmp _L144
1321  0023  0700     E  	mov a,_SysAO[4]
1321  0024  0C2B        	xor a,43
1321  0025  0500     E  	or a,_SysAO[5]
1321  0026  390A        	snz z
1321  0027  2800     R  	jmp _L136
1387  0028              #line 1387 "e:\x-sense\xp02\htba45f5260-xp0456\src\Co.c"
1387  0028  0F07        	mov a,7
1387  0029  0080     E  	mov _TmrDeleteTimer_2[0],a
1387  002A  1F00     E  	clr _TmrDeleteTimer_2[1]
1387  002B              	fcall _TmrDeleteTimer
1388  0032              #line 1388 "e:\x-sense\xp02\htba45f5260-xp0456\src\Co.c"
1388  0032  0F0B        	mov a,11
1388  0033  0080     E  	mov _TmrDeleteTimer_2[0],a
1388  0034  1F00     E  	clr _TmrDeleteTimer_2[1]
1388  0035              	fcall _TmrDeleteTimer
1388  003C  2800     R  	jmp _L150
1388  003D              _L138:
1327  003D              #line 1327 "e:\x-sense\xp02\htba45f5260-xp0456\src\Co.c"
1327  003D  1F00     R  	clr ___TimeoutCnt_3284[0]
1327  003E  2800     R  	jmp _L151
1327  003F              _L143:
1332  003F              #line 1332 "e:\x-sense\xp02\htba45f5260-xp0456\src\Co.c"
1332  003F  1400     R  	inca ___TimeoutCnt_3284[0]
1332  0040  0080     E  	mov ra,a
1332  0041  0700     E  	mov a,ra
1332  0042  0080     R  	mov ___TimeoutCnt_3284[0],a
1332  0043  0F07        	mov a,7
1332  0044  0200     E  	sub a,ra
1332  0045  3C0A        	sz c
1332  0046  2800     R  	jmp _L146
1334  0047              #line 1334 "e:\x-sense\xp02\htba45f5260-xp0456\src\Co.c"
1334  0047  1F00     R  	clr ___TimeoutCnt_3284[0]
1335  0048              #line 1335 "e:\x-sense\xp02\htba45f5260-xp0456\src\Co.c"
1335  0048  3514        	clr [20].2
1336  0049              #line 1336 "e:\x-sense\xp02\htba45f5260-xp0456\src\Co.c"
1336  0049  361B        	clr [27].4
1337  004A              #line 1337 "e:\x-sense\xp02\htba45f5260-xp0456\src\Co.c"
1337  004A  0F07        	mov a,7
1337  004B  0080     E  	mov _TmrDeleteTimer_2[0],a
1337  004C  1F00     E  	clr _TmrDeleteTimer_2[1]
文件：Co.c         编译器版本 HGASM 0202 页次61

1337  004D              	fcall _TmrDeleteTimer
1338  0054              #line 1338 "e:\x-sense\xp02\htba45f5260-xp0456\src\Co.c"
1338  0054  0F02        	mov a,2
1338  0055  0080     E  	mov _TmrInsertTimer_2[4],a
1338  0056  1F00     E  	clr _TmrInsertTimer_2[5]
1338  0057  0FF4        	mov a,-12
1338  0058  0080     E  	mov _TmrInsertTimer_2[2],a
1338  0059  0F01        	mov a,1
1338  005A  0080     E  	mov _TmrInsertTimer_2[3],a
1338  005B  0F07        	mov a,7
1338  005C  0080     E  	mov _TmrInsertTimer_2[0],a
1338  005D  1F00     E  	clr _TmrInsertTimer_2[1]
1338  005E              	fcall _TmrInsertTimer
1340  0065              #line 1340 "e:\x-sense\xp02\htba45f5260-xp0456\src\Co.c"
1340  0065  0F04        	mov a,4
1340  0066  0080     E  	mov _SysteSetSig_2[0],a
1340  0067  1F00     E  	clr _SysteSetSig_2[1]
1340  0068              	fcall _SysteSetSig
1340  006F  2800     R  	jmp _L136
1340  0070              _L146:
1344  0070              #line 1344 "e:\x-sense\xp02\htba45f5260-xp0456\src\Co.c"
1344  0070  1F00     E  	clr ra
1344  0071  3914        	snz [20].2
1344  0072  3000     E  	set ra.2
1344  0073  3514        	clr [20].2
1344  0074  0700     E  	mov a,ra
1344  0075  0594        	orm a,[20]
1345  0076              #line 1345 "e:\x-sense\xp02\htba45f5260-xp0456\src\Co.c"
1345  0076  1F00     E  	clr ra
1345  0077  3A1B        	snz [27].4
1345  0078  3000     E  	set ra.4
1345  0079  361B        	clr [27].4
1345  007A  0700     E  	mov a,ra
1345  007B  059B        	orm a,[27]
1345  007C  2800     R  	jmp _L136
1345  007D              _L144:
1350  007D              #line 1350 "e:\x-sense\xp02\htba45f5260-xp0456\src\Co.c"
1350  007D  0F04        	mov a,4
1350  007E  0080     E  	mov _SysteSetSig_2[0],a
1350  007F  1F00     E  	clr _SysteSetSig_2[1]
1350  0080              	fcall _SysteSetSig
1351  0087              #line 1351 "e:\x-sense\xp02\htba45f5260-xp0456\src\Co.c"
1351  0087  0F07        	mov a,7
1351  0088  0080     E  	mov _TmrDeleteTimer_2[0],a
1351  0089  1F00     E  	clr _TmrDeleteTimer_2[1]
1351  008A              	fcall _TmrDeleteTimer
1351  0091              _L151:
1352  0091              #line 1352 "e:\x-sense\xp02\htba45f5260-xp0456\src\Co.c"
1352  0091  0F01        	mov a,1
1352  0092  0080     E  	mov _TmrInsertTimer_2[4],a
1352  0093  1F00     E  	clr _TmrInsertTimer_2[5]
1352  0094  0F0A        	mov a,10
1352  0095  0080     E  	mov _TmrInsertTimer_2[2],a
1352  0096  1F00     E  	clr _TmrInsertTimer_2[3]
1352  0097  0F07        	mov a,7
1352  0098  0080     E  	mov _TmrInsertTimer_2[0],a
1352  0099  1F00     E  	clr _TmrInsertTimer_2[1]
1352  009A              	fcall _TmrInsertTimer
1356  00A1              #line 1356 "e:\x-sense\xp02\htba45f5260-xp0456\src\Co.c"
1356  00A1  2800     R  	jmp _L136
文件：Co.c         编译器版本 HGASM 0202 页次62

1356  00A2              _L142:
1360  00A2              #line 1360 "e:\x-sense\xp02\htba45f5260-xp0456\src\Co.c"
1360  00A2  0F07        	mov a,7
1360  00A3  0080     E  	mov _TmrDeleteTimer_2[0],a
1360  00A4  1F00     E  	clr _TmrDeleteTimer_2[1]
1360  00A5              	fcall _TmrDeleteTimer
1361  00AC              #line 1361 "e:\x-sense\xp02\htba45f5260-xp0456\src\Co.c"
1361  00AC  0F02        	mov a,2
1361  00AD  0080     E  	mov _TmrDeleteTimer_2[0],a
1361  00AE  1F00     E  	clr _TmrDeleteTimer_2[1]
1361  00AF              	fcall _TmrDeleteTimer
1362  00B6              #line 1362 "e:\x-sense\xp02\htba45f5260-xp0456\src\Co.c"
1362  00B6  0F08        	mov a,8
1362  00B7  0080     E  	mov _SysAO[0],a
1362  00B8  1F00     E  	clr _SysAO[1]
1363  00B9              #line 1363 "e:\x-sense\xp02\htba45f5260-xp0456\src\Co.c"
1363  00B9  2800     R  	jmp _L136
1363  00BA              _L141:
1367  00BA              #line 1367 "e:\x-sense\xp02\htba45f5260-xp0456\src\Co.c"
1367  00BA  0F07        	mov a,7
1367  00BB  0080     E  	mov _TmrDeleteTimer_2[0],a
1367  00BC  1F00     E  	clr _TmrDeleteTimer_2[1]
1367  00BD              	fcall _TmrDeleteTimer
1368  00C4              #line 1368 "e:\x-sense\xp02\htba45f5260-xp0456\src\Co.c"
1368  00C4  0F02        	mov a,2
1368  00C5  0080     E  	mov _TmrDeleteTimer_2[0],a
1368  00C6  1F00     E  	clr _TmrDeleteTimer_2[1]
1368  00C7              	fcall _TmrDeleteTimer
1369  00CE              #line 1369 "e:\x-sense\xp02\htba45f5260-xp0456\src\Co.c"
1369  00CE  0F03        	mov a,3
1369  00CF  0080     E  	mov _SysAO[0],a
1369  00D0  1F00     E  	clr _SysAO[1]
1370  00D1              #line 1370 "e:\x-sense\xp02\htba45f5260-xp0456\src\Co.c"
1370  00D1  2800     R  	jmp _L136
1370  00D2              _L140:
1374  00D2              #line 1374 "e:\x-sense\xp02\htba45f5260-xp0456\src\Co.c"
1374  00D2              	fcall _GetRfPairedMode
1374  00D9  0700     E  	mov a,ra
1374  00DA  0C01        	xor a,1
1374  00DB  0500     E  	or a,rb
1374  00DC  390A        	snz z
1374  00DD  2800     R  	jmp _L147
1376  00DE              #line 1376 "e:\x-sense\xp02\htba45f5260-xp0456\src\Co.c"
1376  00DE  1F00     E  	clr _UartSendMsg_2[3]
1376  00DF  0F02        	mov a,2
1376  00E0  0080     E  	mov _UartSendMsg_2[2],a
1376  00E1  2800     R  	jmp _L149
1376  00E2              _L147:
1378  00E2              #line 1378 "e:\x-sense\xp02\htba45f5260-xp0456\src\Co.c"
1378  00E2              	fcall _GetRfPairedMode
1378  00E9  0700     E  	mov a,ra
1378  00EA  0C02        	xor a,2
1378  00EB  0500     E  	or a,rb
1378  00EC  390A        	snz z
1378  00ED  2800     R  	jmp _L150
1380  00EE              #line 1380 "e:\x-sense\xp02\htba45f5260-xp0456\src\Co.c"
1380  00EE  1F00     E  	clr _UartSendMsg_2[3]
1380  00EF  0F0B        	mov a,11
1380  00F0  0080     E  	mov _UartSendMsg_2[2],a
1380  00F1              _L149:
文件：Co.c         编译器版本 HGASM 0202 页次63

1380  00F1  0F03        	mov a,3
1380  00F2  0080     E  	mov _UartSendMsg_2[0],a
1380  00F3  1F00     E  	clr _UartSendMsg_2[1]
1380  00F4              	fcall _UartSendMsg
1380  00FB              _L150:
1389  00FB              #line 1389 "e:\x-sense\xp02\htba45f5260-xp0456\src\Co.c"
1389  00FB  1F00     E  	clr _SysAO[0]
1389  00FC  1F00     E  	clr _SysAO[1]
1390  00FD              #line 1390 "e:\x-sense\xp02\htba45f5260-xp0456\src\Co.c"
1390  00FD  2800     R  	jmp _L136
1390  00FE              _L139:
1393  00FE              #line 1393 "e:\x-sense\xp02\htba45f5260-xp0456\src\Co.c"
1393  00FE              	fcall _SmokeAlarmCheck
1394  0105              #line 1394 "e:\x-sense\xp02\htba45f5260-xp0456\src\Co.c"
1394  0105              	fcall _CoAlarmCheck
1394  010C              _L136:
1394  010C  0003        	ret
1394  010D              _RfCoAlarmMain endp
1394  010D              #line 1394 "e:\x-sense\xp02\htba45f5260-xp0456\src\Co.c"
1394  010D              #pragma debug scope 1 1
1394  0000              @HCCINIT	.section 'data'
1319  0000              #line 1319 "e:\x-sense\xp02\htba45f5260-xp0456\src\Co.c"
1319  0000              @HCCINIT___TimeoutCnt_3284 .section 'data'
1319  0000              ___TimeoutCnt_3284 label byte
1319  0000              #pragma debug variable 8 23 ___TimeoutCnt_3284 "TimeoutCnt"
1319  0000              	db 0
1319  0000              @ROMDATA_BASE .section inpage 'code'
1319  0000              	db 0
1319  0001              @HCCINIT___TimeoutCnt_3284 .section 'data'
1274  0001              #line 1274 "e:\x-sense\xp02\htba45f5260-xp0456\src\Co.c"
1274  0000              @HCCINIT___CheckTimeCnt_3274 .section 'data'
1274  0000              ___CheckTimeCnt_3274 label byte
1274  0000              #pragma debug variable 8 22 ___CheckTimeCnt_3274 "CheckTimeCnt"
1274  0000              	db 0
1274  0001              @ROMDATA_BASE .section inpage 'code'
1274  0001              	db 0
1274  0001              @HCCINIT___CheckTimeCnt_3274 .section 'data'
 978  0001              #line 978 "e:\x-sense\xp02\htba45f5260-xp0456\src\Co.c"
 978  0000              @HCCINIT___PPM_3228 .section 'data'
 978  0000              ___PPM_3228 label byte
 978  0000              #pragma debug variable 10 1 ___PPM_3228 "__PPM_3228"
 978  0000              	db 0
 978  0001              @ROMDATA_BASE .section inpage 'code'
 978  0001              	db 0
 978  0001              @HCCINIT___PPM_3228 .section 'data'
 978  0001              	db 0
 978  0002              @ROMDATA_BASE .section inpage 'code'
 978  0002              	db 0
 978  0002              @HCCINIT___PPM_3228 .section 'data'
1187  0002              #line 1187 "e:\x-sense\xp02\htba45f5260-xp0456\src\Co.c"
1187  0000              @HCCINIT___MuteTimeCnt_3258 .section 'data'
1187  0000              ___MuteTimeCnt_3258 label byte
1187  0000              #pragma debug variable 10 19 ___MuteTimeCnt_3258 "MuteTimeCnt"
1187  0000              	db 0
1187  0002              @ROMDATA_BASE .section inpage 'code'
1187  0002              	db 0
1187  0001              @HCCINIT___MuteTimeCnt_3258 .section 'data'
1187  0001              	db 0
1187  0003              @ROMDATA_BASE .section inpage 'code'
1187  0003              	db 0
文件：Co.c         编译器版本 HGASM 0202 页次64

1187  0002              @HCCINIT___MuteTimeCnt_3258 .section 'data'
1186  0002              #line 1186 "e:\x-sense\xp02\htba45f5260-xp0456\src\Co.c"
1186  0000              @HCCINIT___TimeoutCnt_3257 .section 'data'
1186  0000              ___TimeoutCnt_3257 label byte
1186  0000              #pragma debug variable 8 19 ___TimeoutCnt_3257 "TimeoutCnt"
1186  0000              	db 0
1186  0003              @ROMDATA_BASE .section inpage 'code'
1186  0003              	db 0
1186  0001              @HCCINIT___TimeoutCnt_3257 .section 'data'
1100  0001              #line 1100 "e:\x-sense\xp02\htba45f5260-xp0456\src\Co.c"
1100  0000              @HCCINIT___TimeoutCnt_3243 .section 'data'
1100  0000              ___TimeoutCnt_3243 label byte
1100  0000              #pragma debug variable 8 18 ___TimeoutCnt_3243 "TimeoutCnt"
1100  0000              	db 0
1100  0004              @ROMDATA_BASE .section inpage 'code'
1100  0004              	db 0
1100  0001              @HCCINIT___TimeoutCnt_3243 .section 'data'
1019  0001              #line 1019 "e:\x-sense\xp02\htba45f5260-xp0456\src\Co.c"
1019  0000              @HCCINIT___IntervalTimeoutCnt_3233 .section 'data'
1019  0000              ___IntervalTimeoutCnt_3233 label byte
1019  0000              #pragma debug variable 8 17 ___IntervalTimeoutCnt_3233 "IntervalTimeoutCnt"
1019  0000              	db 0
1019  0004              @ROMDATA_BASE .section inpage 'code'
1019  0004              	db 0
1019  0001              @HCCINIT___IntervalTimeoutCnt_3233 .section 'data'
1018  0001              #line 1018 "e:\x-sense\xp02\htba45f5260-xp0456\src\Co.c"
1018  0000              @HCCINIT___TimeoutCnt_3232 .section 'data'
1018  0000              ___TimeoutCnt_3232 label byte
1018  0000              #pragma debug variable 8 17 ___TimeoutCnt_3232 "TimeoutCnt"
1018  0000              	db 0
1018  0005              @ROMDATA_BASE .section inpage 'code'
1018  0005              	db 0
1018  0001              @HCCINIT___TimeoutCnt_3232 .section 'data'
 766  0001              #line 766 "e:\x-sense\xp02\htba45f5260-xp0456\src\Co.c"
 766  0000              @HCCINIT___CailCoAdcValue_3207 .section 'data'
 766  0000              ___CailCoAdcValue_3207 label byte
 766  0000              #pragma debug variable 10 16 ___CailCoAdcValue_3207 "CailCoAdcValue"
 766  0000              	db 0
 766  0005              @ROMDATA_BASE .section inpage 'code'
 766  0005              	db 0
 766  0001              @HCCINIT___CailCoAdcValue_3207 .section 'data'
 766  0001              	db 0
 766  0006              @ROMDATA_BASE .section inpage 'code'
 766  0006              	db 0
 766  0002              @HCCINIT___CailCoAdcValue_3207 .section 'data'
 765  0002              #line 765 "e:\x-sense\xp02\htba45f5260-xp0456\src\Co.c"
 765  0000              @HCCINIT___CailTemperature_3206 .section 'data'
 765  0000              ___CailTemperature_3206 label byte
 765  0000              #pragma debug variable 10 16 ___CailTemperature_3206 "CailTemperature"
 765  0000              	db 0
 765  0006              @ROMDATA_BASE .section inpage 'code'
 765  0006              	db 0
 765  0001              @HCCINIT___CailTemperature_3206 .section 'data'
 765  0001              	db 0
 765  0007              @ROMDATA_BASE .section inpage 'code'
 765  0007              	db 0
 765  0002              @HCCINIT___CailTemperature_3206 .section 'data'
 764  0002              #line 764 "e:\x-sense\xp02\htba45f5260-xp0456\src\Co.c"
 764  0000              @HCCINIT___Delay_Cnt_3205 .section 'data'
 764  0000              ___Delay_Cnt_3205 label byte
文件：Co.c         编译器版本 HGASM 0202 页次65

 764  0000              #pragma debug variable 8 16 ___Delay_Cnt_3205 "Delay_Cnt"
 764  0000              	db 0
 764  0007              @ROMDATA_BASE .section inpage 'code'
 764  0007              	db 0
 764  0001              @HCCINIT___Delay_Cnt_3205 .section 'data'
 353  0001              #line 353 "e:\x-sense\xp02\htba45f5260-xp0456\src\Co.c"
 353  0000              @HCCINIT___CoCancelAlarmNum_3173 .section 'data'
 353  0000              ___CoCancelAlarmNum_3173 label byte
 353  0000              #pragma debug variable 8 1 ___CoCancelAlarmNum_3173 "__CoCancelAlarmNum_3173"
 353  0000              	db 0
 353  0008              @ROMDATA_BASE .section inpage 'code'
 353  0008              	db 0
 353  0001              @HCCINIT___CoCancelAlarmNum_3173 .section 'data'
 256  0001              #line 256 "e:\x-sense\xp02\htba45f5260-xp0456\src\Co.c"
 256  0000              @HCCINIT___AfterCo5000ppmTimeCnt_3160 .section 'data'
 256  0000              ___AfterCo5000ppmTimeCnt_3160 label byte
 256  0000              #pragma debug variable 10 1 ___AfterCo5000ppmTimeCnt_3160 "__AfterCo5000ppmTimeCnt_3160"
 256  0000              	db 0
 256  0008              @ROMDATA_BASE .section inpage 'code'
 256  0008              	db 0
 256  0001              @HCCINIT___AfterCo5000ppmTimeCnt_3160 .section 'data'
 256  0001              	db 0
 256  0009              @ROMDATA_BASE .section inpage 'code'
 256  0009              	db 0
 256  0002              @HCCINIT___AfterCo5000ppmTimeCnt_3160 .section 'data'
 255  0002              #line 255 "e:\x-sense\xp02\htba45f5260-xp0456\src\Co.c"
 255  0000              @HCCINIT___Co5000ppmTimeCnt_3159 .section 'data'
 255  0000              ___Co5000ppmTimeCnt_3159 label byte
 255  0000              #pragma debug variable 10 1 ___Co5000ppmTimeCnt_3159 "__Co5000ppmTimeCnt_3159"
 255  0000              	db 0
 255  0009              @ROMDATA_BASE .section inpage 'code'
 255  0009              	db 0
 255  0001              @HCCINIT___Co5000ppmTimeCnt_3159 .section 'data'
 255  0001              	db 0
 255  000A              @ROMDATA_BASE .section inpage 'code'
 255  000A              	db 0
 255  0002              @HCCINIT___Co5000ppmTimeCnt_3159 .section 'data'
 257  0002              #line 257 "e:\x-sense\xp02\htba45f5260-xp0456\src\Co.c"
 257  0000              @HCCINIT___Co5000ppmComsationFlag_3161 .section 'data'
 257  0000              ___Co5000ppmComsationFlag_3161 label byte
 257  0000              #pragma debug variable 12 1 ___Co5000ppmComsationFlag_3161 "__Co5000ppmComsationFlag_3161"
 257  0000              	db 0
 257  000A              @ROMDATA_BASE .section inpage 'code'
 257  000A              	db 0
 257  0001              @HCCINIT___Co5000ppmComsationFlag_3161 .section 'data'
 257  0001              	db 0
 257  000B              @ROMDATA_BASE .section inpage 'code'
 257  000B              	db 0
 257  0002              @HCCINIT___Co5000ppmComsationFlag_3161 .section 'data'
 528  0002              #line 528 "e:\x-sense\xp02\htba45f5260-xp0456\src\Co.c"
 528  0000              @HCCINIT___LatchingCo100PpmCnt_3177 .section 'data'
 528  0000              ___LatchingCo100PpmCnt_3177 label byte
 528  0000              #pragma debug variable 8 4 ___LatchingCo100PpmCnt_3177 "LatchingCo100PpmCnt"
 528  0000              	db 0
 528  000B              @ROMDATA_BASE .section inpage 'code'
 528  000B              	db 0
 528  0001              @HCCINIT___LatchingCo100PpmCnt_3177 .section 'data'
 529  0001              #line 529 "e:\x-sense\xp02\htba45f5260-xp0456\src\Co.c"
 529  0000              @HCCINIT___co_ppm_3178 .section 'data'
 529  0000              ___co_ppm_3178 label byte
文件：Co.c         编译器版本 HGASM 0202 页次66

 529  0000              #pragma debug variable 10 4 ___co_ppm_3178 "co_ppm"
 529  0000              	db 0
 529  000C              @ROMDATA_BASE .section inpage 'code'
 529  000C              	db 0
 529  0001              @HCCINIT___co_ppm_3178 .section 'data'
 529  0001              	db 0
 529  000C              @ROMDATA_BASE .section inpage 'code'
 529  000C              	db 0
 529  0002              @HCCINIT___co_ppm_3178 .section 'data'
 529  0002              public _co_temp_offset_rate
 529  0078              @crom	.section 'crom'
 149  0078              #line 149 "e:\x-sense\xp02\htba45f5260-xp0456\src\Co.c"
 149  0078              @crom	.section	'crom'
 149  0078              _co_temp_offset_rate:
 149  0078              #pragma debug array 45 12 91 1
 149  0078              #pragma debug array 45 12 91 1
 149  0078              #pragma debug variable 45 1 _co_temp_offset_rate "co_temp_offset_rate"
 149  0078  1388        	dc 5000
 149  0079  1388        	dc 5000
 149  007A  1388        	dc 5000
 149  007B  1388        	dc 5000
 149  007C  1388        	dc 5000
 149  007D  1388        	dc 5000
 149  007E  1388        	dc 5000
 149  007F  1388        	dc 5000
 149  0080  1388        	dc 5000
 149  0081  1388        	dc 5000
 149  0082  1388        	dc 5000
 149  0083  1388        	dc 5000
 149  0084  1388        	dc 5000
 149  0085  1388        	dc 5000
 149  0086  1388        	dc 5000
 149  0087  03E8        	dc 1000
 149  0088  03E8        	dc 1000
 149  0089  03E8        	dc 1000
 149  008A  03E8        	dc 1000
 149  008B  03E8        	dc 1000
 149  008C  03E8        	dc 1000
 149  008D  03E8        	dc 1000
 149  008E  03E8        	dc 1000
 149  008F  03E8        	dc 1000
 149  0090  03E8        	dc 1000
 149  0091  03E8        	dc 1000
 149  0092  03E8        	dc 1000
 149  0093  03E8        	dc 1000
 149  0094  03E8        	dc 1000
 149  0095  03E8        	dc 1000
 149  0096  03E8        	dc 1000
 149  0097  03E8        	dc 1000
 149  0098  03E8        	dc 1000
 149  0099  03E8        	dc 1000
 149  009A  03E8        	dc 1000
 149  009B  03E8        	dc 1000
 149  009C  03E8        	dc 1000
 149  009D  03E8        	dc 1000
 149  009E  03E8        	dc 1000
 149  009F  03E8        	dc 1000
 149  00A0  03E8        	dc 1000
 149  00A1  03E8        	dc 1000
 149  00A2  03E8        	dc 1000
文件：Co.c         编译器版本 HGASM 0202 页次67

 149  00A3  03E8        	dc 1000
 149  00A4  03E8        	dc 1000
 149  00A5  03E8        	dc 1000
 149  00A6  03E8        	dc 1000
 149  00A7  03E8        	dc 1000
 149  00A8  03E8        	dc 1000
 149  00A9  03E8        	dc 1000
 149  00AA  03E8        	dc 1000
 149  00AB  03E8        	dc 1000
 149  00AC  03E8        	dc 1000
 149  00AD  03E8        	dc 1000
 149  00AE  03E8        	dc 1000
 149  00AF  03E8        	dc 1000
 149  00B0  03E8        	dc 1000
 149  00B1  03E8        	dc 1000
 149  00B2  03E8        	dc 1000
 149  00B3  03E8        	dc 1000
 149  00B4  03E8        	dc 1000
 149  00B5  03E8        	dc 1000
 149  00B6  03E8        	dc 1000
 149  00B7  03E8        	dc 1000
 149  00B8  03E8        	dc 1000
 149  00B9  03E8        	dc 1000
 149  00BA  03E8        	dc 1000
 149  00BB  03E8        	dc 1000
 149  00BC  03E8        	dc 1000
 149  00BD  03E8        	dc 1000
 149  00BE  03E8        	dc 1000
 149  00BF  03E8        	dc 1000
 149  00C0  03E8        	dc 1000
 149  00C1  03E8        	dc 1000
 149  00C2  03E8        	dc 1000
 149  00C3  1388        	dc 5000
 149  00C4  1388        	dc 5000
 149  00C5  1388        	dc 5000
 149  00C6  1388        	dc 5000
 149  00C7  1388        	dc 5000
 149  00C8  1388        	dc 5000
 149  00C9  1388        	dc 5000
 149  00CA  1388        	dc 5000
 149  00CB  1388        	dc 5000
 149  00CC  1388        	dc 5000
 149  00CD  1388        	dc 5000
 149  00CE  1388        	dc 5000
 149  00CF  1388        	dc 5000
 149  00D0  1388        	dc 5000
 149  00D1  1388        	dc 5000
 149  00D2  1388        	dc 5000
 149  00D3              public _co_temp_slope_rate
  10  00D3              #line 10 "e:\x-sense\xp02\htba45f5260-xp0456\src\Co.c"
  10  00D3              @crom	.section	'crom'
  10  00D3              _co_temp_slope_rate:
  10  00D3              #pragma debug variable 45 1 _co_temp_slope_rate "co_temp_slope_rate"
  10  00D3  028F        	dc 655
  10  00D4  0298        	dc 664
  10  00D5  02A2        	dc 674
  10  00D6  02AC        	dc 684
  10  00D7  02B6        	dc 694
  10  00D8  02C0        	dc 704
  10  00D9  02CA        	dc 714
文件：Co.c         编译器版本 HGASM 0202 页次68

  10  00DA  02D3        	dc 723
  10  00DB  02DD        	dc 733
  10  00DC  02E6        	dc 742
  10  00DD  02F0        	dc 752
  10  00DE  02F9        	dc 761
  10  00DF  0303        	dc 771
  10  00E0  030C        	dc 780
  10  00E1  0315        	dc 789
  10  00E2  031F        	dc 799
  10  00E3  0328        	dc 808
  10  00E4  0331        	dc 817
  10  00E5  033A        	dc 826
  10  00E6  0343        	dc 835
  10  00E7  034C        	dc 844
  10  00E8  0354        	dc 852
  10  00E9  035D        	dc 861
  10  00EA  0366        	dc 870
  10  00EB  036E        	dc 878
  10  00EC  0377        	dc 887
  10  00ED  037F        	dc 895
  10  00EE  0387        	dc 903
  10  00EF  038F        	dc 911
  10  00F0  0397        	dc 919
  10  00F1  039F        	dc 927
  10  00F2  03A7        	dc 935
  10  00F3  03AF        	dc 943
  10  00F4  03B6        	dc 950
  10  00F5  03BE        	dc 958
  10  00F6  03C5        	dc 965
  10  00F7  03CC        	dc 972
  10  00F8  03D4        	dc 980
  10  00F9  03DB        	dc 987
  10  00FA  03E2        	dc 994
  10  00FB  03E8        	dc 1000
  10  00FC  03EF        	dc 1007
  10  00FD  03F5        	dc 1013
  10  00FE  03FC        	dc 1020
  10  00FF  0402        	dc 1026
  10  0100  0408        	dc 1032
  10  0101  040E        	dc 1038
  10  0102  0414        	dc 1044
  10  0103  041A        	dc 1050
  10  0104  041F        	dc 1055
  10  0105  0424        	dc 1060
  10  0106  042A        	dc 1066
  10  0107  042F        	dc 1071
  10  0108  0434        	dc 1076
  10  0109  0438        	dc 1080
  10  010A  043D        	dc 1085
  10  010B  0441        	dc 1089
  10  010C  0446        	dc 1094
  10  010D  044A        	dc 1098
  10  010E  044D        	dc 1101
  10  010F  0451        	dc 1105
  10  0110  0455        	dc 1109
  10  0111  0458        	dc 1112
  10  0112  045B        	dc 1115
  10  0113  045E        	dc 1118
  10  0114  0461        	dc 1121
  10  0115  0464        	dc 1124
文件：Co.c         编译器版本 HGASM 0202 页次69

  10  0116  0466        	dc 1126
  10  0117  0468        	dc 1128
  10  0118  046A        	dc 1130
  10  0119  046C        	dc 1132
  10  011A  046E        	dc 1134
  10  011B  046F        	dc 1135
  10  011C  0470        	dc 1136
  10  011D  0471        	dc 1137
  10  011E  0472        	dc 1138
  10  011F  0473        	dc 1139
  10  0120  0473        	dc 1139
  10  0121  0473        	dc 1139
  10  0122  0473        	dc 1139
  10  0123  0473        	dc 1139
  10  0124  0473        	dc 1139
  10  0125  0473        	dc 1139
  10  0126  0473        	dc 1139
  10  0127  0473        	dc 1139
  10  0128  0473        	dc 1139
  10  0129  0473        	dc 1139
  10  012A  0473        	dc 1139
  10  012B  0473        	dc 1139
  10  012C  0473        	dc 1139
  10  012D  0473        	dc 1139
   5  012E              #line 5 "e:\x-sense\xp02\htba45f5260-xp0456\src\Co.c"
   5  012E              public _COAO
   5  0000              @HCCINIT0_COAO .section 'data'
   5  0000  001D[       _COAO	db 29 dup(0)
            00
            ]
   5  001D              #pragma debug struct_end
   5  001D              #pragma debug struct_end
   5  001D              #pragma debug variable 46 1 _COAO "COAO"
   5  001D              
   5  0000              @HCCINIT .section 'data'
   5  0000              #pragma debug struct_end
   5  0000              #pragma debug struct_end
   5  0000              #pragma debug union_end
   5  0000              #pragma debug union_end
   5  0000              #pragma debug variable 48 1 ___pa "__pa" 1
   5  0000              #pragma debug struct_end
   5  0000              #pragma debug struct_end
   5  0000              #pragma debug union_end
   5  0000              #pragma debug union_end
   5  0000              #pragma debug variable 50 1 ___pc "__pc" 1
   5  0000              
   5  0000              ; output external variables
   5  0000              extern _SmokeAO:byte
   5  0000              extern _PwrAO:byte
   5  0000              extern _SysAO:byte
   5  0000              extern _builtin_holtek_mulsi3_2:byte
   5  0000              extern _builtin_holtek_mulsi3:near
   5  0000              extern _builtin_holtek_udivmodsi4_2:byte
   5  0000              extern _builtin_holtek_udivmodsi4:near
   5  0000              extern _builtin_holtek_udivmodhi4_2:byte
   5  0000              extern _builtin_holtek_udivmodhi4:near
   5  0000              extern _GetAdcSample_2:byte
   5  0000              extern _GetAdcSample:near
   5  0000              extern _GetSmokeTemp:near
   5  0000              extern _builtin_holtek_mulhi3_2:byte
文件：Co.c         编译器版本 HGASM 0202 页次70

   5  0000              extern _builtin_holtek_mulhi3:near
   5  0000              extern _SysteSetSig_2:byte
   5  0000              extern _SysteSetSig:near
   5  0000              extern _E2promRead:near
   5  0000              extern _printf_2:byte
   5  0000              extern _printf:near
   5  0000              extern _GetVol_2:byte
   5  0000              extern _GetVol:near
   5  0000              extern _TmrInsertTimer_2:byte
   5  0000              extern _TmrInsertTimer:near
   5  0000              extern _BatteryCheckHandle:near
   5  0000              extern _CailRes_2:byte
   5  0000              extern _CailRes:near
   5  0000              extern _PowerOnDisplay:near
   5  0000              extern _CailStepDisplay_2:byte
   5  0000              extern _CailStepDisplay:near
   5  0000              extern _E2promWrite_2:byte
   5  0000              extern _E2promWrite:near
   5  0000              extern _TmrDeleteTimer_2:byte
   5  0000              extern _TmrDeleteTimer:near
   5  0000              extern _GetRfPairedMode:near
   5  0000              extern _UartSendMsg_2:byte
   5  0000              extern _UartSendMsg:near
   5  0000              extern _SmokeAlarmCheck:near
   5  0000              extern _ErrIndex_2:byte
   5  0000              extern _ErrIndex:near
   5  0000              
   5  0000              ; 
   5  0000              ; Generated by holtek-gcc v3.19, Tue Mar 15 11:05:43 2022
   5  0000              ; Rebuild 718
   5  0000              ; end of file


        0 Errors, 0