文件：KeyAnalysis.c 编译器版本 HGASM 0202 页次1


   1  0000              ; Generated by holtek-gcc v3.19, Tue Mar 23 12:21:25 2021
   2  0000              ; 
   3  0000              ; Configuration:
   4  0000              ;       with long instruction
   5  0000              ;       Multi-ROM, Multi-RAM
   6  0000              ;       bits_per_rom_unit:16
   7  0000              ;       with mp1
   8  0000              ;       with tbhp, address(0x9)
   9  0000              ;          Use tabrd-const
  10  0000              ;       
  11  0000              ; SFR address of long-instruction arch:
  12  0000              ;    mp0 = -1,1,0
  13  0000              ;    mp1 = 4,3,2
  14  0000              ;    mp2 = 14,13,12
  15  0000              ;    tbp = 9,7,8
  16  0000              ;    acc = 5
  17  0000              ;    pcl = 6
  18  0000              ;    status = 10
  19  0000              ;    bp = 11
  20  0000              ;    intc = 67
  21  0000              ;       
  22  0000              ;       
  23  0000              ; use 'tabrdc' instead of 'tabrd'
  24  0000              ;       
  25  0000              
  26  0000              #pragma translator "holtek-gcc 4.6.4" "3.19" "build 20130711"
  27  0000              ; Rebuild 718
  28  0000              
  29  0000              ir equ [2]
  30  0000              mp equ [3]
  31  0000              sbp equ [4]
  32  0000              acc equ [5]
  33  0000              bp equ [11]
  34  0000              tblp equ [7]
  35  0000              tbhp equ [9]
  36  0000              status equ [10]
  37  0000              c equ [10].0
  38  0000              ac equ [10].1
  39  0000              z equ [10].2
  40  0000              ov equ [10].3
  41  0000              cz equ [10].6
  42  0000              sc equ [10].7
  43  0000              intc equ [67]
  44  0000              
  45  0000              extern ra:byte
  46  0000              extern rb:byte
  47  0000              extern rc:byte
  48  0000              extern rd:byte
  49  0000              extern re:byte
  50  0000              extern rf:byte
  51  0000              extern rg:byte
  52  0000              extern rh:byte
  53  0000              extern _Crom2Prom:near
  54  0000              extern _Crom2PromNext:near
  55  0000              
  56  0000              RAMBANK 0 @BITDATASEC, @BITDATASEC1
  57  0000              @HCCINIT	.section 'data'
  58  0000              @HCCINIT0	.section 'data'
  59  0000              @BITDATASEC	 .section 'data'
文件：KeyAnalysis.ASM 编译器版本 HGASM 0202 页次2

  60  0000              @BITDATASEC1	 .section 'data'
  61  0000              
  62  0000              #pragma debug scope 1 1
  63  0000              	extern __DELAY3:near
  64  0000              	extern __DELAYX3:near
  65  0000              	extern __DELAYX6:near
  66  0000              	extern __DELAYY5:near
  67  0000              	extern __DELAYY3:near
  68  0000              	extern _builtin_holtek_delay_2:byte
  69  0000              public _GetAndCleanSysKeyInfo
  70  0000              #pragma debug scope 2 1

  28  0000              #line 28 "e:\x-sense_svn\htba45f5260-xp0456\src\KeyAnalysis.c"
  28  0000              _GetAndCleanSysKeyInfo .section 'code'
  28  0000              _GetAndCleanSysKeyInfo proc
  29  0000              #line 29 "e:\x-sense_svn\htba45f5260-xp0456\src\KeyAnalysis.c"
  29  0000  0700     R  	mov a,_gSysKeyInfo[0]
  29  0001  0080     E  	mov ra,a
  29  0002  0700     R  	mov a,_gSysKeyInfo[1]
  29  0003  0080     E  	mov rb,a
  29  0004  0700     R  	mov a,_gSysKeyInfo[2]
  29  0005  0080     E  	mov rc,a
  29  0006  0700     R  	mov a,_gSysKeyInfo[3]
  29  0007  0080     E  	mov rd,a
  31  0008              #line 31 "e:\x-sense_svn\htba45f5260-xp0456\src\KeyAnalysis.c"
  31  0008  0F04        	mov a,4
  31  0009  0080     R  	mov _gSysKeyInfo[0],a
  31  000A  0F04        	mov a,4
  31  000B  0080     R  	mov _gSysKeyInfo[1],a
  31  000C  1F00     R  	clr _gSysKeyInfo[2]
  31  000D  1F00     R  	clr _gSysKeyInfo[3]
  31  000E  0003        	ret
  31  000F              _GetAndCleanSysKeyInfo endp
  31  000F              #line 31 "e:\x-sense_svn\htba45f5260-xp0456\src\KeyAnalysis.c"
  31  000F              #pragma debug scope 1 1
  31  000F              public _PollingKey
  31  000F              #pragma debug scope 3 1
 112  000F              #line 112 "e:\x-sense_svn\htba45f5260-xp0456\src\KeyAnalysis.c"
 112  0000              _PollingKey .section 'code'
 112  0000              _PollingKey proc
 112  0000              public _PollingKey_2
 112  0000  0002[           local _PollingKey_2 db 2 dup(?)	; 2,0
            00
            ]
 112  0002              #pragma debug variable 12 3 _PollingKey_2+0 "eHandle"
 115  0002              #line 115 "e:\x-sense_svn\htba45f5260-xp0456\src\KeyAnalysis.c"
 115  0000              	fcall _GetKey
 115  0007  0700     E  	mov a,ra
 115  0008  0080     E  	mov rd,a
 115  0009  0700     E  	mov a,rb
 115  000A  0080     E  	mov re,a
 115  000B  0700     R  	mov a,___LastKeyInfo_2625[0]
 115  000C  0080     E  	mov ra,a
 115  000D              #pragma debug scope 4 3
 115  000D              ;begin block, line: 115.-1
 115  000D              #pragma debug scope 5 4
 115  000D              ;begin block, line: 115.-1
  52  000D              #line 52 "e:\x-sense_svn\htba45f5260-xp0456\src\KeyAnalysis.c"
  52  000D  0F03        	mov a,3
  52  000E  0200     E  	sub a,rd
文件：KeyAnalysis.c 编译器版本 HGASM 0202 页次3

  52  000F  0F00        	mov a,0
  52  0010  1200     E  	sbc a,re
  52  0011  3C0A        	sz c
  52  0012  2800     R  	jmp _L3
  54  0013              #line 54 "e:\x-sense_svn\htba45f5260-xp0456\src\KeyAnalysis.c"
  54  0013  0F03        	mov a,3
  54  0014  0200     E  	sub a,ra
  54  0015  380A        	snz c
  54  0016  2800     R  	jmp _L8
  57  0017              #line 57 "e:\x-sense_svn\htba45f5260-xp0456\src\KeyAnalysis.c"
  57  0017  0700     R  	mov a,___LastKeyInfo_2625[2]
  57  0018  0080     E  	mov rb,a
  57  0019  0700     R  	mov a,___LastKeyInfo_2625[3]
  57  001A  0080     E  	mov rc,a
  58  001B              #line 58 "e:\x-sense_svn\htba45f5260-xp0456\src\KeyAnalysis.c"
  58  001B  0F04        	mov a,4
  58  001C  0080     R  	mov ___LastKeyInfo_2625[0],a
  58  001D  0F04        	mov a,4
  58  001E  0080     R  	mov ___LastKeyInfo_2625[1],a
  58  001F  1F00     R  	clr ___LastKeyInfo_2625[2]
  58  0020  1F00     R  	clr ___LastKeyInfo_2625[3]
  65  0021              #line 65 "e:\x-sense_svn\htba45f5260-xp0456\src\KeyAnalysis.c"
  65  0021  1F00     E  	clr rd
  65  0022  2800     R  	jmp _L4
  65  0023              _L3:
  70  0023              #line 70 "e:\x-sense_svn\htba45f5260-xp0456\src\KeyAnalysis.c"
  70  0023  0F03        	mov a,3
  70  0024  0200     E  	sub a,ra
  70  0025  3C0A        	sz c
  70  0026  2800     R  	jmp _L5
  72  0027              #line 72 "e:\x-sense_svn\htba45f5260-xp0456\src\KeyAnalysis.c"
  72  0027  0700     E  	mov a,rd
  72  0028  0080     E  	mov ra,a
  74  0029              #line 74 "e:\x-sense_svn\htba45f5260-xp0456\src\KeyAnalysis.c"
  74  0029  0F01        	mov a,1
  74  002A  0080     E  	mov rb,a
  74  002B  1F00     E  	clr rc
  73  002C              #line 73 "e:\x-sense_svn\htba45f5260-xp0456\src\KeyAnalysis.c"
  73  002C  0F01        	mov a,1
  73  002D  0080     E  	mov rd,a
  73  002E  2800     R  	jmp _L6
  73  002F              _L5:
  76  002F              #line 76 "e:\x-sense_svn\htba45f5260-xp0456\src\KeyAnalysis.c"
  76  002F  0700     E  	mov a,ra
  76  0030  0080     E  	mov rb,a
  76  0031  1F00     E  	clr rc
  76  0032  0700     E  	mov a,rb
  76  0033  0200     E  	sub a,rd
  76  0034  0700     E  	mov a,rc
  76  0035  1200     E  	sbc a,re
  76  0036  3B0A        	snz cz
  76  0037  2800     R  	jmp _L7
  79  0038              #line 79 "e:\x-sense_svn\htba45f5260-xp0456\src\KeyAnalysis.c"
  79  0038  0700     R  	mov a,___LastKeyInfo_2625[2]
  79  0039  0080     E  	mov rb,a
  79  003A  0700     R  	mov a,___LastKeyInfo_2625[3]
  79  003B  0080     E  	mov rc,a
  82  003C              #line 82 "e:\x-sense_svn\htba45f5260-xp0456\src\KeyAnalysis.c"
  82  003C  0700     E  	mov a,rb
  82  003D  0600     E  	and a,rc
文件：KeyAnalysis.c 编译器版本 HGASM 0202 页次4

  82  003E  0B01        	add a,1
  82  003F  3C0A        	sz c
  82  0040  2800     R  	jmp _L9
  84  0041              #line 84 "e:\x-sense_svn\htba45f5260-xp0456\src\KeyAnalysis.c"
  84  0041  1480     E  	inc rb
  84  0042  3D0A        	sz z
  84  0043  1480     E  	inc rc
  84  0044  2800     R  	jmp _L9
  84  0045              _L7:
  91  0045              #line 91 "e:\x-sense_svn\htba45f5260-xp0456\src\KeyAnalysis.c"
  91  0045  0700     R  	mov a,___LastKeyInfo_2625[2]
  91  0046  0080     E  	mov rb,a
  91  0047  0700     R  	mov a,___LastKeyInfo_2625[3]
  91  0048  0080     E  	mov rc,a
  91  0049  0FC7        	mov a,199
  91  004A  0200     E  	sub a,rb
  91  004B  0F00        	mov a,0
  91  004C  1200     E  	sbc a,rc
  91  004D  380A        	snz c
  91  004E  2800     R  	jmp _L10
  93  004F              #line 93 "e:\x-sense_svn\htba45f5260-xp0456\src\KeyAnalysis.c"
  93  004F  0700     E  	mov a,rd
  93  0050  0080     E  	mov ra,a
  95  0051              #line 95 "e:\x-sense_svn\htba45f5260-xp0456\src\KeyAnalysis.c"
  95  0051  0F01        	mov a,1
  95  0052  0080     E  	mov rb,a
  95  0053  1F00     E  	clr rc
  95  0054  2800     R  	jmp _L10
  95  0055              _L9:
  80  0055              #line 80 "e:\x-sense_svn\htba45f5260-xp0456\src\KeyAnalysis.c"
  80  0055  0F02        	mov a,2
  80  0056  0080     E  	mov rd,a
  80  0057  2800     R  	jmp _L6
  80  0058              _L10:
 101  0058              #line 101 "e:\x-sense_svn\htba45f5260-xp0456\src\KeyAnalysis.c"
 101  0058  0F03        	mov a,3
 101  0059  0080     E  	mov rd,a
 101  005A              _L6:
 105  005A              #line 105 "e:\x-sense_svn\htba45f5260-xp0456\src\KeyAnalysis.c"
 105  005A  0700     E  	mov a,ra
 105  005B  0080     R  	mov ___LastKeyInfo_2625[0],a
 105  005C  0700     E  	mov a,rd
 105  005D  0080     R  	mov ___LastKeyInfo_2625[1],a
 105  005E  0700     E  	mov a,rb
 105  005F  0080     R  	mov ___LastKeyInfo_2625[2],a
 105  0060  0700     E  	mov a,rc
 105  0061  0080     R  	mov ___LastKeyInfo_2625[3],a
 105  0062  2800     R  	jmp _L4
 105  0063              _L8:
  45  0063              #line 45 "e:\x-sense_svn\htba45f5260-xp0456\src\KeyAnalysis.c"
  45  0063  1F00     E  	clr rb
  45  0064  1F00     E  	clr rc
  65  0065              #line 65 "e:\x-sense_svn\htba45f5260-xp0456\src\KeyAnalysis.c"
  65  0065  1F00     E  	clr rd
  45  0066              #line 45 "e:\x-sense_svn\htba45f5260-xp0456\src\KeyAnalysis.c"
  45  0066  0F04        	mov a,4
  45  0067  0080     E  	mov ra,a
  45  0068              _L4:
  45  0068              #pragma debug scope 4 3
  45  0068              #pragma debug scope 3 1
文件：KeyAnalysis.c 编译器版本 HGASM 0202 页次5

 115  0068              #line 115 "e:\x-sense_svn\htba45f5260-xp0456\src\KeyAnalysis.c"
 115  0068  0700     E  	mov a,ra
 115  0069  0080     R  	mov _gSysKeyInfo[0],a
 115  006A  0700     E  	mov a,rd
 115  006B  0080     R  	mov _gSysKeyInfo[1],a
 115  006C  0700     E  	mov a,rb
 115  006D  0080     R  	mov _gSysKeyInfo[2],a
 115  006E  0700     E  	mov a,rc
 115  006F  0080     R  	mov _gSysKeyInfo[3],a
 115  0070  0003        	ret
 115  0071              _PollingKey endp
 115  0071              #line 115 "e:\x-sense_svn\htba45f5260-xp0456\src\KeyAnalysis.c"
 115  0071              #pragma debug scope 1 1
 115  0000              @HCCINIT	.section 'data'
  38  0000              #line 38 "e:\x-sense_svn\htba45f5260-xp0456\src\KeyAnalysis.c"
  38  0000              @HCCINIT___LastKeyInfo_2625 .section 'data'
  38  0000              ___LastKeyInfo_2625 label byte
  38  0000              #pragma debug struct_end
  38  0000              #pragma debug struct_end
  38  0000              #pragma debug variable 42 1 ___LastKeyInfo_2625 "__LastKeyInfo_2625"
  38  0000              	db 4
  38  0000              @ROMDATA_BASE .section inpage 'code'
  38  0000              	db 4
  38  0001              @HCCINIT___LastKeyInfo_2625 .section 'data'
  38  0001              	db 4
  38  0001              @ROMDATA_BASE .section inpage 'code'
  38  0001              	db 4
  38  0002              @HCCINIT___LastKeyInfo_2625 .section 'data'
  38  0002              	dw 0
  38  0001              @ROMDATA_BASE .section inpage 'code'
  38  0001  0000        	dc 0
  38  0004              @HCCINIT___LastKeyInfo_2625 .section 'data'
  20  0004              #line 20 "e:\x-sense_svn\htba45f5260-xp0456\src\KeyAnalysis.c"
  20  0000              @HCCINIT_gSysKeyInfo .section 'data'
  20  0000              _gSysKeyInfo label byte
  20  0000              #pragma debug variable 42 1 _gSysKeyInfo "gSysKeyInfo"
  20  0000              	db 4
  20  0002              @ROMDATA_BASE .section inpage 'code'
  20  0002              	db 4
  20  0001              @HCCINIT_gSysKeyInfo .section 'data'
  20  0001              	db 4
  20  0003              @ROMDATA_BASE .section inpage 'code'
  20  0003              	db 4
  20  0002              @HCCINIT_gSysKeyInfo .section 'data'
  20  0002              	dw 0
  20  0003              @ROMDATA_BASE .section inpage 'code'
  20  0003  0000        	dc 0
  20  0004              @HCCINIT_gSysKeyInfo .section 'data'
  20  0004              extern _GetKey:near
  20  0004              
  20  0004              ; 
  20  0004              ; Generated by holtek-gcc v3.19, Tue Mar 23 12:21:25 2021
  20  0004              ; Rebuild 718
  20  0004              ; end of file


        0 Errors, 0