文件：main.c       编译器版本 HGASM 0202 页次1


   1  0000              ; Generated by holtek-gcc v3.19, Wed Mar 01 19:42:18 2023
   2  0000              ; 
   3  0000              ; Configuration:
   4  0000              ;       with long instruction
   5  0000              ;       Multi-ROM, Multi-RAM
   6  0000              ;       bits_per_rom_unit:16
   7  0000              ;       with mp1
   8  0000              ;       with tbhp, address(0x9)
   9  0000              ;          Use tabrd-const
  10  0000              ;       
  11  0000              ; SFR address of long-instruction arch:
  12  0000              ;    mp0 = -1,1,0
  13  0000              ;    mp1 = 4,3,2
  14  0000              ;    mp2 = 14,13,12
  15  0000              ;    tbp = 9,7,8
  16  0000              ;    acc = 5
  17  0000              ;    pcl = 6
  18  0000              ;    status = 10
  19  0000              ;    bp = 11
  20  0000              ;    intc = 67
  21  0000              ;       
  22  0000              ;       
  23  0000              ; use 'tabrdc' instead of 'tabrd'
  24  0000              ;       
  25  0000              
  26  0000              #pragma translator "holtek-gcc 4.6.4" "3.19" "build 20130711"
  27  0000              ; Rebuild 718
  28  0000              
  29  0000              ir equ [2]
  30  0000              mp equ [3]
  31  0000              sbp equ [4]
  32  0000              acc equ [5]
  33  0000              bp equ [11]
  34  0000              tblp equ [7]
  35  0000              tbhp equ [9]
  36  0000              status equ [10]
  37  0000              c equ [10].0
  38  0000              ac equ [10].1
  39  0000              z equ [10].2
  40  0000              ov equ [10].3
  41  0000              cz equ [10].6
  42  0000              sc equ [10].7
  43  0000              intc equ [67]
  44  0000              
  45  0000              extern ra:byte
  46  0000              extern rb:byte
  47  0000              extern rc:byte
  48  0000              extern rd:byte
  49  0000              extern re:byte
  50  0000              extern rf:byte
  51  0000              extern rg:byte
  52  0000              extern rh:byte
  53  0000              extern _Crom2Prom:near
  54  0000              extern _Crom2PromNext:near
  55  0000              
  56  0000              RAMBANK 0 @BITDATASEC, @BITDATASEC1
  57  0000              @HCCINIT	.section 'data'
  58  0000              @HCCINIT0	.section 'data'
  59  0000              @BITDATASEC	 .section 'data'
文件：main.ASM     编译器版本 HGASM 0202 页次2

  60  0000              @BITDATASEC1	 .section 'data'
  61  0000              
  62  0000              #pragma debug scope 1 1
  63  0000              	extern __DELAY3:near
  64  0000              	extern __DELAYX3:near
  65  0000              	extern __DELAYX6:near
  66  0000              	extern __DELAYY5:near
  67  0000              	extern __DELAYY3:near
  68  0000              	extern _builtin_holtek_delay_2:byte
  69  0000              ___pscr equ [80]
  70  0000              ___tb0c equ [81]
  71  0000              ___intc2 equ [69]
  72  0000              public _TimerTb0Init
  73  0000              #pragma debug scope 2 1

 162  0000              #line 162 "e:\x-sense_svn\xp02\xp02\src\main.c"
 162  0000              _TimerTb0Init .section 'code'
 162  0000              _TimerTb0Init proc
 162  0000              public _TimerTb0Init_2
 162  0000  0002[           local _TimerTb0Init_2 db 2 dup(?)	; 2,0
            00
            ]
 162  0002              #pragma debug variable 12 2 _TimerTb0Init_2+0 "time"
 169  0002              #line 169 "e:\x-sense_svn\xp02\xp02\src\main.c"
 169  0000  0F03        	mov a,3
 169  0001  05D0        	orm a,[80]
 194  0002              #line 194 "e:\x-sense_svn\xp02\xp02\src\main.c"
 194  0002  0700     R  	mov a,_TimerTb0Init_2[0]
 194  0003  00D1        	mov [81],a
 196  0004              #line 196 "e:\x-sense_svn\xp02\xp02\src\main.c"
 196  0004  33D1        	set [81].7
 198  0005              #line 198 "e:\x-sense_svn\xp02\xp02\src\main.c"
 198  0005  30C5        	set [69].1
 198  0006  0003        	ret
 198  0007              _TimerTb0Init endp
 198  0007              #line 198 "e:\x-sense_svn\xp02\xp02\src\main.c"
 198  0007              #pragma debug scope 1 1
 198  0007              ___wdtc equ [33]
 198  0007              public _SysWakeUpInit
 198  0007              #pragma debug scope 3 1
 212  0007              #line 212 "e:\x-sense_svn\xp02\xp02\src\main.c"
 212  0000              _SysWakeUpInit .section 'code'
 212  0000              _SysWakeUpInit proc
 212  0000              public _SysWakeUpInit_2
 212  0000  0002[           local _SysWakeUpInit_2 db 2 dup(?)	; 2,0
            00
            ]
 212  0002              #pragma debug variable 12 3 _SysWakeUpInit_2+0 "time"
 217  0002              #line 217 "e:\x-sense_svn\xp02\xp02\src\main.c"
 217  0000  37A1        	clr [33].7
 218  0001              #line 218 "e:\x-sense_svn\xp02\xp02\src\main.c"
 218  0001  3321        	set [33].6
 219  0002              #line 219 "e:\x-sense_svn\xp02\xp02\src\main.c"
 219  0002  36A1        	clr [33].5
 220  0003              #line 220 "e:\x-sense_svn\xp02\xp02\src\main.c"
 220  0003  3221        	set [33].4
 221  0004              #line 221 "e:\x-sense_svn\xp02\xp02\src\main.c"
 221  0004  35A1        	clr [33].3
 235  0005              #line 235 "e:\x-sense_svn\xp02\xp02\src\main.c"
 235  0005  0721        	mov a,[33]
文件：main.c       编译器版本 HGASM 0202 页次3

 235  0006  0E50        	and a,80
 235  0007  0080     E  	mov ra,a
 235  0008  0700     E  	mov a,ra
 235  0009  0500     R  	or a,_SysWakeUpInit_2[0]
 235  000A  00A1        	mov [33],a
 235  000B  0003        	ret
 235  000C              _SysWakeUpInit endp
 235  000C              #line 235 "e:\x-sense_svn\xp02\xp02\src\main.c"
 235  000C              #pragma debug scope 1 1
 235  0000              @crom	.section 'crom'
 235  0000              _LC0:
 235  0000              	db 065h,065h,070h,072h,06fh,06dh,020h,064h,061h,074h
 235  0005              	db 061h,028h,030h,030h,02dh,046h,046h,029h,03ah,0dh
 235  000A              	db 0ah,00h
 235  000B              @crom	.section 'crom'
 235  000B              _LC1:
 235  000B              	db 025h,078h,03ah,00h
 235  000D              @crom	.section 'crom'
 235  000D              _LC2:
 235  000D              	db 025h,078h,020h,00h
 235  000F              @crom	.section 'crom'
 235  000F              _LC3:
 235  000F              	db 0ah,00h
 235  0010              public _E2promDisplay
 235  0010              #pragma debug scope 4 1
 561  0010              #line 561 "e:\x-sense_svn\xp02\xp02\src\main.c"
 561  0000              _E2promDisplay .section 'code'
 561  0000              _E2promDisplay proc
 561  0000  0004[           local _E2promDisplay_2 db 4 dup(?)	; 0,4
            00
            ]
 561  0004              #pragma debug variable 8 4 _E2promDisplay_2+1 "i"
 561  0004              #pragma debug variable 8 4 _E2promDisplay_2+0 "j"
 564  0004              #line 564 "e:\x-sense_svn\xp02\xp02\src\main.c"
 564  0000  0F00     R  	mov a,low offset _LC0
 564  0001  0080     E  	mov _printf_2[0],a
 564  0002  0F00     R  	mov a,high offset _LC0
 564  0003  0080     E  	mov _printf_2[1],a
 564  0004              	fcall _printf
 564  000B  0F08        	mov a,8
 564  000C  0080     R  	mov _E2promDisplay_2[2],a
 565  000D              #line 565 "e:\x-sense_svn\xp02\xp02\src\main.c"
 565  000D  1F00     R  	clr _E2promDisplay_2[1]
 565  000E              _L7:
 567  000E              #line 567 "e:\x-sense_svn\xp02\xp02\src\main.c"
 567  000E  0700     R  	mov a,_E2promDisplay_2[1]
 567  000F  0080     E  	mov rb,a
 567  0010  1F00     E  	clr rc
 567  0011  0700     E  	mov a,rb
 567  0012  0080     E  	mov _printf_2[2],a
 567  0013  0700     E  	mov a,rc
 567  0014  0080     E  	mov _printf_2[3],a
 567  0015  0F03        	mov a,3
 567  0016              _LI1:
 567  0016  340A        	clr c
 567  0017  1A80     E  	rlc _printf_2[2]
 567  0018  1A80     E  	rlc _printf_2[3]
 567  0019  1785        	sdz acc
 567  001A  2800     R  	jmp _LI1
 567  001B  0F00     R  	mov a,low offset _LC1
文件：main.c       编译器版本 HGASM 0202 页次4

 567  001C  0080     E  	mov _printf_2[0],a
 567  001D  0F00     R  	mov a,high offset _LC1
 567  001E  0080     E  	mov _printf_2[1],a
 567  001F              	fcall _printf
 570  0026              #line 570 "e:\x-sense_svn\xp02\xp02\src\main.c"
 570  0026  0700     R  	mov a,_E2promDisplay_2[1]
 570  0027  0080     E  	mov ra,a
 570  0028  1100     E  	swapa ra
 570  0029  1985        	rr acc
 570  002A  0EF8        	and a,0f8h
 570  002B  0080     E  	mov ra,a
 570  002C  0700     E  	mov a,ra
 570  002D  0080     R  	mov _E2promDisplay_2[3],a
 568  002E              #line 568 "e:\x-sense_svn\xp02\xp02\src\main.c"
 568  002E  1F00     R  	clr _E2promDisplay_2[0]
 568  002F              _L5:
 568  002F  0700     R  	mov a,_E2promDisplay_2[0]
 568  0030  0300     R  	add a,_E2promDisplay_2[3]
 568  0031  0080     E  	mov ra,a
 570  0032              #line 570 "e:\x-sense_svn\xp02\xp02\src\main.c"
 570  0032  0700     E  	mov a,ra
 570  0033              	fcall _E2promRead
 570  003A  0080     E  	mov ra,a
 570  003B  0700     E  	mov a,ra
 570  003C  0080     E  	mov _printf_2[2],a
 570  003D  1F00     E  	clr _printf_2[3]
 570  003E  0F00     R  	mov a,low offset _LC2
 570  003F  0080     E  	mov _printf_2[0],a
 570  0040  0F00     R  	mov a,high offset _LC2
 570  0041  0080     E  	mov _printf_2[1],a
 570  0042              	fcall _printf
 568  0049              #line 568 "e:\x-sense_svn\xp02\xp02\src\main.c"
 568  0049  1480     R  	inc _E2promDisplay_2[0]
 568  004A  0700     R  	mov a,_E2promDisplay_2[0]
 568  004B  0A08        	sub a,8
 568  004C  390A        	snz z
 568  004D  2800     R  	jmp _L5
 572  004E              #line 572 "e:\x-sense_svn\xp02\xp02\src\main.c"
 572  004E  0F00     R  	mov a,low offset _LC3
 572  004F  0080     E  	mov _printf_2[0],a
 572  0050  0F00     R  	mov a,high offset _LC3
 572  0051  0080     E  	mov _printf_2[1],a
 572  0052              	fcall _printf
 565  0059              #line 565 "e:\x-sense_svn\xp02\xp02\src\main.c"
 565  0059  1480     R  	inc _E2promDisplay_2[1]
 565  005A  1780     R  	sdz _E2promDisplay_2[2]
 565  005B  2800     R  	jmp _L7
 565  005C  0003        	ret
 565  005D              _E2promDisplay endp
 565  005D              #line 565 "e:\x-sense_svn\xp02\xp02\src\main.c"
 565  005D              #pragma debug scope 1 1
 565  005D              ___stm0dh equ [98]
 565  005D              ___stm0dl equ [97]
 565  005D              public _GetTicks
 565  005D              #pragma debug scope 5 1
 698  005D              #line 698 "e:\x-sense_svn\xp02\xp02\src\main.c"
 698  0000              _GetTicks .section 'code'
 698  0000              _GetTicks proc
 702  0000              #line 702 "e:\x-sense_svn\xp02\xp02\src\main.c"
 702  0000  0762        	mov a,[98]
文件：main.c       编译器版本 HGASM 0202 页次5

 702  0001  0080     E  	mov rc,a
 702  0002  1F00     E  	clr rb
 702  0003  0761        	mov a,[97]
 702  0004  0380     E  	addm a,rb
 702  0005  3C0A        	sz c
 702  0006  1480     E  	inc rc
 703  0007              #line 703 "e:\x-sense_svn\xp02\xp02\src\main.c"
 703  0007  0700     R  	mov a,___lastTick10ms_3194[0]
 703  0008  0080     E  	mov rd,a
 703  0009  0700     R  	mov a,___lastTick10ms_3194[1]
 703  000A  0080     E  	mov re,a
 703  000B  0700     E  	mov a,rb
 703  000C  0200     E  	sub a,rd
 703  000D  0700     E  	mov a,rc
 703  000E  1200     E  	sbc a,re
 703  000F  380A        	snz c
 703  0010  2800     R  	jmp _L10
 703  0011              #line 703 "e:\x-sense_svn\xp02\xp02\src\main.c"
 703  0011  0700     E  	mov a,rb
 703  0012  0280     E  	subm a,rd
 703  0013  0700     E  	mov a,rc
 703  0014  1280     E  	sbcm a,re
 703  0015  2800     R  	jmp _L11
 703  0016              _L10:
 703  0016  0FFF        	mov a,255
 703  0017  0280     E  	subm a,rd
 703  0018  0F03        	mov a,3
 703  0019  1280     E  	sbcm a,re
 703  001A  0700     E  	mov a,rb
 703  001B  0380     E  	addm a,rd
 703  001C  0700     E  	mov a,rc
 703  001D  1380     E  	adcm a,re
 703  001E              _L11:
 705  001E              #line 705 "e:\x-sense_svn\xp02\xp02\src\main.c"
 705  001E  0F3F        	mov a,63
 705  001F  0200     E  	sub a,rd
 705  0020  0F01        	mov a,1
 705  0021  1200     E  	sbc a,re
 705  0022  3C0A        	sz c
 705  0023  2800     R  	jmp _L15
 711  0024              #line 711 "e:\x-sense_svn\xp02\xp02\src\main.c"
 711  0024  1F00     E  	clr _builtin_holtek_udivmodhi4_2[6]
 711  0025  0700     E  	mov a,rd  
 711  0026  0080     E  	mov _builtin_holtek_udivmodhi4_2[0],a  
 711  0027  0700     E  	mov a,re  
 711  0028  0080     E  	mov _builtin_holtek_udivmodhi4_2[1],a
 711  0029  0F40        	mov a,64  
 711  002A  0080     E  	mov _builtin_holtek_udivmodhi4_2[2],a  
 711  002B  0F01        	mov a,1  
 711  002C  0080     E  	mov _builtin_holtek_udivmodhi4_2[3],a
 711  002D              	fcall _builtin_holtek_udivmodhi4
 711  0034  0700     E  	mov a,_builtin_holtek_udivmodhi4_2[0]  
 711  0035  0080     E  	mov rf,a  
 711  0036  0700     E  	mov a,_builtin_holtek_udivmodhi4_2[1]  
 711  0037  0080     E  	mov rg,a
 712  0038              #line 712 "e:\x-sense_svn\xp02\xp02\src\main.c"
 712  0038  1F00     E  	clr _builtin_holtek_udivmodhi4_2[6]
 712  0039  0700     E  	mov a,rd  
 712  003A  0080     E  	mov _builtin_holtek_udivmodhi4_2[0],a  
 712  003B  0700     E  	mov a,re  
文件：main.c       编译器版本 HGASM 0202 页次6

 712  003C  0080     E  	mov _builtin_holtek_udivmodhi4_2[1],a
 712  003D  0F40        	mov a,64  
 712  003E  0080     E  	mov _builtin_holtek_udivmodhi4_2[2],a  
 712  003F  0F01        	mov a,1  
 712  0040  0080     E  	mov _builtin_holtek_udivmodhi4_2[3],a
 712  0041              	fcall _builtin_holtek_udivmodhi4
 712  0048  0700     E  	mov a,_builtin_holtek_udivmodhi4_2[4]  
 712  0049  0080     E  	mov rd,a  
 712  004A  0700     E  	mov a,_builtin_holtek_udivmodhi4_2[5]  
 712  004B  0080     E  	mov re,a
 713  004C              #line 713 "e:\x-sense_svn\xp02\xp02\src\main.c"
 713  004C  0700     E  	mov a,rd
 713  004D  0200     E  	sub a,rb
 713  004E  0700     E  	mov a,re
 713  004F  1200     E  	sbc a,rc
 713  0050  380A        	snz c
 713  0051  2800     R  	jmp _L16
 713  0052  0FFF        	mov a,255
 713  0053  0380     E  	addm a,rb
 713  0054  0F03        	mov a,3
 713  0055  1380     E  	adcm a,rc
 713  0056              _L16:
 713  0056  0700     E  	mov a,rb
 713  0057  0200     E  	sub a,rd
 713  0058  0080     E  	mov rb,a
 713  0059  0700     E  	mov a,rc
 713  005A  1200     E  	sbc a,re
 713  005B  0080     E  	mov rc,a
 713  005C  0700     E  	mov a,rb
 713  005D  0080     R  	mov ___lastTick10ms_3194[0],a
 713  005E  0700     E  	mov a,rc
 713  005F  0080     R  	mov ___lastTick10ms_3194[1],a
 713  0060  2800     R  	jmp _L12
 713  0061              _L15:
 707  0061              #line 707 "e:\x-sense_svn\xp02\xp02\src\main.c"
 707  0061  1F00     E  	clr rf
 707  0062  1F00     E  	clr rg
 707  0063              _L12:
 716  0063              #line 716 "e:\x-sense_svn\xp02\xp02\src\main.c"
 716  0063  0700     E  	mov a,rf
 716  0064  0080     E  	mov ra,a
 716  0065  0700     E  	mov a,rg
 716  0066  0080     E  	mov rb,a
 716  0067  0003        	ret
 716  0068              _GetTicks endp
 716  0068              #line 716 "e:\x-sense_svn\xp02\xp02\src\main.c"
 716  0068              #pragma debug scope 1 1
 716  0068              ___pb equ [24]
 716  0068              ___pa equ [20]
 716  0068              ___pc equ [27]
 716  0068              public _ErrIndex
 716  0068              #pragma debug scope 6 1
 842  0068              #line 842 "e:\x-sense_svn\xp02\xp02\src\main.c"
 842  0000              _ErrIndex .section 'code'
 842  0000              _ErrIndex proc
 842  0000              public _ErrIndex_2
 842  0000  0003[           local _ErrIndex_2 db 3 dup(?)	; 2,1
            00
            ]
 842  0000  0080     R  	mov _ErrIndex_2[2],a
文件：main.c       编译器版本 HGASM 0202 页次7

 842  0001              #pragma debug variable 8 6 _ErrIndex_2+2 "LedFlag"
 842  0001              #pragma debug variable 8 6 _ErrIndex_2+0 "BeepFlag"
 842  0001              #pragma debug variable 8 6 _ErrIndex_2+1 "Num"
 844  0001              #line 844 "e:\x-sense_svn\xp02\xp02\src\main.c"
 844  0001  3618        	clr [24].4
 845  0002              #line 845 "e:\x-sense_svn\xp02\xp02\src\main.c"
 845  0002              ;# 845 "e:\x-sense_svn\xp02\xp02\src\main.c" 1
 845  0002              	IF 150000>263690
 845  0002              ;# 845 "e:\x-sense_svn\xp02\xp02\src\main.c" 1
 845  0002              	ERRMESSAGE 'the value 150000of the argument exceeds the maxinum 263690'
 845  0002              	ENDIF
 845  0002              ;# 845 "e:\x-sense_svn\xp02\xp02\src\main.c" 1
 845  0002              	IF 150000<0
 845  0002              ;# 845 "e:\x-sense_svn\xp02\xp02\src\main.c" 1
 845  0002              	ERRMESSAGE 'the value 150000 of the argument exceeds the mininum 0'
 845  0002              	ENDIF
 845  0002              ;# 845 "e:\x-sense_svn\xp02\xp02\src\main.c" 1
 845  0002              	IF 150000==0
 845  0002              ;# 845 "e:\x-sense_svn\xp02\xp02\src\main.c" 1
 845  0002              	JMP $
 845  0002              	ENDIF
 845  0002              ;# 845 "e:\x-sense_svn\xp02\xp02\src\main.c" 1
 845  0002              	IF (150000>=1) AND (150000<( 4 + __PBP__ * 2))
 845  0002              ;# 845 "e:\x-sense_svn\xp02\xp02\src\main.c" 1
 845  0002              	NOP
 845  0002              	ENDIF
 845  0002              ;# 845 "e:\x-sense_svn\xp02\xp02\src\main.c" 1
 845  0002              	IF (150000>=2) AND (150000<( 4 + __PBP__ * 2))
 845  0002              ;# 845 "e:\x-sense_svn\xp02\xp02\src\main.c" 1
 845  0002              	NOP
 845  0002              	ENDIF
 845  0002              ;# 845 "e:\x-sense_svn\xp02\xp02\src\main.c" 1
 845  0002              	IF (150000>=3) AND (150000<( 4 + __PBP__ * 2))
 845  0002              ;# 845 "e:\x-sense_svn\xp02\xp02\src\main.c" 1
 845  0002              	NOP
 845  0002              	ENDIF
 845  0002              ;# 845 "e:\x-sense_svn\xp02\xp02\src\main.c" 1
 845  0002              	IF (150000>=4) AND (150000<( 4 + __PBP__ * 2)) AND ( __PBP__ > 0 )
 845  0002              ;# 845 "e:\x-sense_svn\xp02\xp02\src\main.c" 1
 845  0002              	NOP
 845  0002              	ENDIF
 845  0002              ;# 845 "e:\x-sense_svn\xp02\xp02\src\main.c" 1
 845  0002              	IF (150000>=5) AND (150000<( 4 + __PBP__ * 2)) AND ( __PBP__ > 0 )
 845  0002              ;# 845 "e:\x-sense_svn\xp02\xp02\src\main.c" 1
 845  0002              	NOP
 845  0002              	ENDIF
 845  0002              ;# 845 "e:\x-sense_svn\xp02\xp02\src\main.c" 1
 845  0002              	IF (150000>=6) AND (150000<( 4 + __PBP__ * 2))  AND ( __PBP__ > 1 )
 845  0002              ;# 845 "e:\x-sense_svn\xp02\xp02\src\main.c" 1
 845  0002              	NOP
 845  0002              	ENDIF
 845  0002              ;# 845 "e:\x-sense_svn\xp02\xp02\src\main.c" 1
 845  0002              	IF (150000>=7) AND (150000<( 4 + __PBP__ * 2))  AND ( __PBP__ > 1 )
 845  0002              ;# 845 "e:\x-sense_svn\xp02\xp02\src\main.c" 1
 845  0002              	NOP
 845  0002              	ENDIF
 845  0002              ;# 845 "e:\x-sense_svn\xp02\xp02\src\main.c" 1
 845  0002              	IF (150000>=8) AND (150000<( 4 + __PBP__ * 2))  AND ( __PBP__ > 2 )
 845  0002              ;# 845 "e:\x-sense_svn\xp02\xp02\src\main.c" 1
 845  0002              	NOP
文件：main.c       编译器版本 HGASM 0202 页次8

 845  0002              	ENDIF
 845  0002              ;# 845 "e:\x-sense_svn\xp02\xp02\src\main.c" 1
 845  0002              	IF (150000==9)  AND ( __PBP__ > 2 )
 845  0002              ;# 845 "e:\x-sense_svn\xp02\xp02\src\main.c" 1
 845  0002              	NOP
 845  0002              	ENDIF
 845  0002              ;# 845 "e:\x-sense_svn\xp02\xp02\src\main.c" 1
 845  0002              	IF (150000< ( 8 + __PBP__ * 2)) AND (150000>( 3 + __PBP__ * 2))
 845  0002              ;# 845 "e:\x-sense_svn\xp02\xp02\src\main.c" 1
 845  0002              	fcall __DELAY3 + ( 7 + __PBP__ * 2) -150000
 845  0002              	ENDIF
 845  0002              ;# 845 "e:\x-sense_svn\xp02\xp02\src\main.c" 1
 845  0002              	IF (150000< ( 0404h + __PBP__ * 2)) AND (150000>( 7 + __PBP__ * 2))
 845  0002              ;# 845 "e:\x-sense_svn\xp02\xp02\src\main.c" 1
 845  0002              	MOV A,(150000-( 4 + __PBP__ * 2))/4
 845  0002              ;# 845 "e:\x-sense_svn\xp02\xp02\src\main.c" 1
 845  0002              	fcall __DELAYX3 + 3 -((150000-( 4 + __PBP__ * 2)) MOD 4) 
 845  0002              	ENDIF
 845  0002              ;# 845 "e:\x-sense_svn\xp02\xp02\src\main.c" 1
 845  0002              	IF (150000< ( 040bh + __PBP__ * 2)) AND (150000> ( 0403h + __PBP__ * 2))
 845  0002              ;# 845 "e:\x-sense_svn\xp02\xp02\src\main.c" 1
 845  0002              	MOV A,0 
 845  0002              ;# 845 "e:\x-sense_svn\xp02\xp02\src\main.c" 1
 845  0002              	fcall __DELAYX6 + ( 040ah + __PBP__ * 2) -150000
 845  0002              	ENDIF
 845  0002              ;# 845 "e:\x-sense_svn\xp02\xp02\src\main.c" 1
 845  0002              	IF (150000 >= ( 040bh + __PBP__ * 2)) AND ((((150000-( 9 + __PBP__ * 2))%0402h)/4+1)>256)
 845  0002              ;# 845 "e:\x-sense_svn\xp02\xp02\src\main.c" 1
 845  0002              	MOV A,(150000-( 9 + __PBP__ * 2))/0402h
 845  0002              ;# 845 "e:\x-sense_svn\xp02\xp02\src\main.c" 1
 845  0002              	MOV _builtin_holtek_delay_2,A
 845  0002              ;# 845 "e:\x-sense_svn\xp02\xp02\src\main.c" 1
 845  0002              	MOV A,0
 845  0002              ;# 845 "e:\x-sense_svn\xp02\xp02\src\main.c" 1
 845  0002              	fcall __DELAYY5 +5- (((150000-( 9 + __PBP__ * 2))%0402h)%6) 
 845  0002              	ENDIF
 845  0002              ;# 845 "e:\x-sense_svn\xp02\xp02\src\main.c" 1
 845  0002              	IF (150000 >= ( 040bh + __PBP__ * 2)) AND ((((150000-( 9 + __PBP__ * 2))%0402h)/4+1)<=256)
 845  0002              ;# 845 "e:\x-sense_svn\xp02\xp02\src\main.c" 1
 845  0002  0F92        	MOV A,(150000-( 9 + __PBP__ * 2))/0402h
 845  0003              ;# 845 "e:\x-sense_svn\xp02\xp02\src\main.c" 1
 845  0003  0080     E  	MOV _builtin_holtek_delay_2,A
 845  0004              ;# 845 "e:\x-sense_svn\xp02\xp02\src\main.c" 1
 845  0004  0F31        	MOV A,((150000-( 9 + __PBP__ * 2))%0402h)/4+1
 845  0005              ;# 845 "e:\x-sense_svn\xp02\xp02\src\main.c" 1
 845  0005              	fcall __DELAYY3 +3-(((150000-( 9 + __PBP__ * 2))%0402h)%4) 
 845  000C              	ENDIF
 846  000C              #line 846 "e:\x-sense_svn\xp02\xp02\src\main.c"
 846  000C  1F00     E  	clr ra
 846  000D  2800     R  	jmp _L18
 846  000E              _L23:
 848  000E              #line 848 "e:\x-sense_svn\xp02\xp02\src\main.c"
 848  000E  1E00     R  	snz _ErrIndex_2[2]
 848  000F  2800     R  	jmp _L19
 850  0010              #line 850 "e:\x-sense_svn\xp02\xp02\src\main.c"
 850  0010  3114        	set [20].2
 850  0011  3218        	set [24].4
 850  0012              _L19:
 852  0012              #line 852 "e:\x-sense_svn\xp02\xp02\src\main.c"
 852  0012  1E00     R  	snz _ErrIndex_2[0]
文件：main.c       编译器版本 HGASM 0202 页次9

 852  0013  2800     R  	jmp _L20
 854  0014              #line 854 "e:\x-sense_svn\xp02\xp02\src\main.c"
 854  0014  3694        	clr [20].5
 854  0015  321B        	set [27].4
 854  0016              _L20:
 856  0016              #line 856 "e:\x-sense_svn\xp02\xp02\src\main.c"
 856  0016              ;# 856 "e:\x-sense_svn\xp02\xp02\src\main.c" 1
 856  0016              	IF 30000>263690
 856  0016              ;# 856 "e:\x-sense_svn\xp02\xp02\src\main.c" 1
 856  0016              	ERRMESSAGE 'the value 30000of the argument exceeds the maxinum 263690'
 856  0016              	ENDIF
 856  0016              ;# 856 "e:\x-sense_svn\xp02\xp02\src\main.c" 1
 856  0016              	IF 30000<0
 856  0016              ;# 856 "e:\x-sense_svn\xp02\xp02\src\main.c" 1
 856  0016              	ERRMESSAGE 'the value 30000 of the argument exceeds the mininum 0'
 856  0016              	ENDIF
 856  0016              ;# 856 "e:\x-sense_svn\xp02\xp02\src\main.c" 1
 856  0016              	IF 30000==0
 856  0016              ;# 856 "e:\x-sense_svn\xp02\xp02\src\main.c" 1
 856  0016              	JMP $
 856  0016              	ENDIF
 856  0016              ;# 856 "e:\x-sense_svn\xp02\xp02\src\main.c" 1
 856  0016              	IF (30000>=1) AND (30000<( 4 + __PBP__ * 2))
 856  0016              ;# 856 "e:\x-sense_svn\xp02\xp02\src\main.c" 1
 856  0016              	NOP
 856  0016              	ENDIF
 856  0016              ;# 856 "e:\x-sense_svn\xp02\xp02\src\main.c" 1
 856  0016              	IF (30000>=2) AND (30000<( 4 + __PBP__ * 2))
 856  0016              ;# 856 "e:\x-sense_svn\xp02\xp02\src\main.c" 1
 856  0016              	NOP
 856  0016              	ENDIF
 856  0016              ;# 856 "e:\x-sense_svn\xp02\xp02\src\main.c" 1
 856  0016              	IF (30000>=3) AND (30000<( 4 + __PBP__ * 2))
 856  0016              ;# 856 "e:\x-sense_svn\xp02\xp02\src\main.c" 1
 856  0016              	NOP
 856  0016              	ENDIF
 856  0016              ;# 856 "e:\x-sense_svn\xp02\xp02\src\main.c" 1
 856  0016              	IF (30000>=4) AND (30000<( 4 + __PBP__ * 2)) AND ( __PBP__ > 0 )
 856  0016              ;# 856 "e:\x-sense_svn\xp02\xp02\src\main.c" 1
 856  0016              	NOP
 856  0016              	ENDIF
 856  0016              ;# 856 "e:\x-sense_svn\xp02\xp02\src\main.c" 1
 856  0016              	IF (30000>=5) AND (30000<( 4 + __PBP__ * 2)) AND ( __PBP__ > 0 )
 856  0016              ;# 856 "e:\x-sense_svn\xp02\xp02\src\main.c" 1
 856  0016              	NOP
 856  0016              	ENDIF
 856  0016              ;# 856 "e:\x-sense_svn\xp02\xp02\src\main.c" 1
 856  0016              	IF (30000>=6) AND (30000<( 4 + __PBP__ * 2))  AND ( __PBP__ > 1 )
 856  0016              ;# 856 "e:\x-sense_svn\xp02\xp02\src\main.c" 1
 856  0016              	NOP
 856  0016              	ENDIF
 856  0016              ;# 856 "e:\x-sense_svn\xp02\xp02\src\main.c" 1
 856  0016              	IF (30000>=7) AND (30000<( 4 + __PBP__ * 2))  AND ( __PBP__ > 1 )
 856  0016              ;# 856 "e:\x-sense_svn\xp02\xp02\src\main.c" 1
 856  0016              	NOP
 856  0016              	ENDIF
 856  0016              ;# 856 "e:\x-sense_svn\xp02\xp02\src\main.c" 1
 856  0016              	IF (30000>=8) AND (30000<( 4 + __PBP__ * 2))  AND ( __PBP__ > 2 )
 856  0016              ;# 856 "e:\x-sense_svn\xp02\xp02\src\main.c" 1
 856  0016              	NOP
文件：main.c       编译器版本 HGASM 0202 页次10

 856  0016              	ENDIF
 856  0016              ;# 856 "e:\x-sense_svn\xp02\xp02\src\main.c" 1
 856  0016              	IF (30000==9)  AND ( __PBP__ > 2 )
 856  0016              ;# 856 "e:\x-sense_svn\xp02\xp02\src\main.c" 1
 856  0016              	NOP
 856  0016              	ENDIF
 856  0016              ;# 856 "e:\x-sense_svn\xp02\xp02\src\main.c" 1
 856  0016              	IF (30000< ( 8 + __PBP__ * 2)) AND (30000>( 3 + __PBP__ * 2))
 856  0016              ;# 856 "e:\x-sense_svn\xp02\xp02\src\main.c" 1
 856  0016              	fcall __DELAY3 + ( 7 + __PBP__ * 2) -30000
 856  0016              	ENDIF
 856  0016              ;# 856 "e:\x-sense_svn\xp02\xp02\src\main.c" 1
 856  0016              	IF (30000< ( 0404h + __PBP__ * 2)) AND (30000>( 7 + __PBP__ * 2))
 856  0016              ;# 856 "e:\x-sense_svn\xp02\xp02\src\main.c" 1
 856  0016              	MOV A,(30000-( 4 + __PBP__ * 2))/4
 856  0016              ;# 856 "e:\x-sense_svn\xp02\xp02\src\main.c" 1
 856  0016              	fcall __DELAYX3 + 3 -((30000-( 4 + __PBP__ * 2)) MOD 4) 
 856  0016              	ENDIF
 856  0016              ;# 856 "e:\x-sense_svn\xp02\xp02\src\main.c" 1
 856  0016              	IF (30000< ( 040bh + __PBP__ * 2)) AND (30000> ( 0403h + __PBP__ * 2))
 856  0016              ;# 856 "e:\x-sense_svn\xp02\xp02\src\main.c" 1
 856  0016              	MOV A,0 
 856  0016              ;# 856 "e:\x-sense_svn\xp02\xp02\src\main.c" 1
 856  0016              	fcall __DELAYX6 + ( 040ah + __PBP__ * 2) -30000
 856  0016              	ENDIF
 856  0016              ;# 856 "e:\x-sense_svn\xp02\xp02\src\main.c" 1
 856  0016              	IF (30000 >= ( 040bh + __PBP__ * 2)) AND ((((30000-( 9 + __PBP__ * 2))%0402h)/4+1)>256)
 856  0016              ;# 856 "e:\x-sense_svn\xp02\xp02\src\main.c" 1
 856  0016              	MOV A,(30000-( 9 + __PBP__ * 2))/0402h
 856  0016              ;# 856 "e:\x-sense_svn\xp02\xp02\src\main.c" 1
 856  0016              	MOV _builtin_holtek_delay_2,A
 856  0016              ;# 856 "e:\x-sense_svn\xp02\xp02\src\main.c" 1
 856  0016              	MOV A,0
 856  0016              ;# 856 "e:\x-sense_svn\xp02\xp02\src\main.c" 1
 856  0016              	fcall __DELAYY5 +5- (((30000-( 9 + __PBP__ * 2))%0402h)%6) 
 856  0016              	ENDIF
 856  0016              ;# 856 "e:\x-sense_svn\xp02\xp02\src\main.c" 1
 856  0016              	IF (30000 >= ( 040bh + __PBP__ * 2)) AND ((((30000-( 9 + __PBP__ * 2))%0402h)/4+1)<=256)
 856  0016              ;# 856 "e:\x-sense_svn\xp02\xp02\src\main.c" 1
 856  0016  0F1D        	MOV A,(30000-( 9 + __PBP__ * 2))/0402h
 856  0017              ;# 856 "e:\x-sense_svn\xp02\xp02\src\main.c" 1
 856  0017  0080     E  	MOV _builtin_holtek_delay_2,A
 856  0018              ;# 856 "e:\x-sense_svn\xp02\xp02\src\main.c" 1
 856  0018  0F3B        	MOV A,((30000-( 9 + __PBP__ * 2))%0402h)/4+1
 856  0019              ;# 856 "e:\x-sense_svn\xp02\xp02\src\main.c" 1
 856  0019              	fcall __DELAYY3 +3-(((30000-( 9 + __PBP__ * 2))%0402h)%4) 
 856  0020              	ENDIF
 857  0020              #line 857 "e:\x-sense_svn\xp02\xp02\src\main.c"
 857  0020  1E00     R  	snz _ErrIndex_2[2]
 857  0021  2800     R  	jmp _L21
 859  0022              #line 859 "e:\x-sense_svn\xp02\xp02\src\main.c"
 859  0022  3514        	clr [20].2
 859  0023  3618        	clr [24].4
 859  0024              _L21:
 861  0024              #line 861 "e:\x-sense_svn\xp02\xp02\src\main.c"
 861  0024  1E00     R  	snz _ErrIndex_2[0]
 861  0025  2800     R  	jmp _L22
 863  0026              #line 863 "e:\x-sense_svn\xp02\xp02\src\main.c"
 863  0026  3294        	set [20].5
 863  0027  361B        	clr [27].4
文件：main.c       编译器版本 HGASM 0202 页次11

 863  0028              _L22:
 865  0028              #line 865 "e:\x-sense_svn\xp02\xp02\src\main.c"
 865  0028              ;# 865 "e:\x-sense_svn\xp02\xp02\src\main.c" 1
 865  0028              	IF 150000>263690
 865  0028              ;# 865 "e:\x-sense_svn\xp02\xp02\src\main.c" 1
 865  0028              	ERRMESSAGE 'the value 150000of the argument exceeds the maxinum 263690'
 865  0028              	ENDIF
 865  0028              ;# 865 "e:\x-sense_svn\xp02\xp02\src\main.c" 1
 865  0028              	IF 150000<0
 865  0028              ;# 865 "e:\x-sense_svn\xp02\xp02\src\main.c" 1
 865  0028              	ERRMESSAGE 'the value 150000 of the argument exceeds the mininum 0'
 865  0028              	ENDIF
 865  0028              ;# 865 "e:\x-sense_svn\xp02\xp02\src\main.c" 1
 865  0028              	IF 150000==0
 865  0028              ;# 865 "e:\x-sense_svn\xp02\xp02\src\main.c" 1
 865  0028              	JMP $
 865  0028              	ENDIF
 865  0028              ;# 865 "e:\x-sense_svn\xp02\xp02\src\main.c" 1
 865  0028              	IF (150000>=1) AND (150000<( 4 + __PBP__ * 2))
 865  0028              ;# 865 "e:\x-sense_svn\xp02\xp02\src\main.c" 1
 865  0028              	NOP
 865  0028              	ENDIF
 865  0028              ;# 865 "e:\x-sense_svn\xp02\xp02\src\main.c" 1
 865  0028              	IF (150000>=2) AND (150000<( 4 + __PBP__ * 2))
 865  0028              ;# 865 "e:\x-sense_svn\xp02\xp02\src\main.c" 1
 865  0028              	NOP
 865  0028              	ENDIF
 865  0028              ;# 865 "e:\x-sense_svn\xp02\xp02\src\main.c" 1
 865  0028              	IF (150000>=3) AND (150000<( 4 + __PBP__ * 2))
 865  0028              ;# 865 "e:\x-sense_svn\xp02\xp02\src\main.c" 1
 865  0028              	NOP
 865  0028              	ENDIF
 865  0028              ;# 865 "e:\x-sense_svn\xp02\xp02\src\main.c" 1
 865  0028              	IF (150000>=4) AND (150000<( 4 + __PBP__ * 2)) AND ( __PBP__ > 0 )
 865  0028              ;# 865 "e:\x-sense_svn\xp02\xp02\src\main.c" 1
 865  0028              	NOP
 865  0028              	ENDIF
 865  0028              ;# 865 "e:\x-sense_svn\xp02\xp02\src\main.c" 1
 865  0028              	IF (150000>=5) AND (150000<( 4 + __PBP__ * 2)) AND ( __PBP__ > 0 )
 865  0028              ;# 865 "e:\x-sense_svn\xp02\xp02\src\main.c" 1
 865  0028              	NOP
 865  0028              	ENDIF
 865  0028              ;# 865 "e:\x-sense_svn\xp02\xp02\src\main.c" 1
 865  0028              	IF (150000>=6) AND (150000<( 4 + __PBP__ * 2))  AND ( __PBP__ > 1 )
 865  0028              ;# 865 "e:\x-sense_svn\xp02\xp02\src\main.c" 1
 865  0028              	NOP
 865  0028              	ENDIF
 865  0028              ;# 865 "e:\x-sense_svn\xp02\xp02\src\main.c" 1
 865  0028              	IF (150000>=7) AND (150000<( 4 + __PBP__ * 2))  AND ( __PBP__ > 1 )
 865  0028              ;# 865 "e:\x-sense_svn\xp02\xp02\src\main.c" 1
 865  0028              	NOP
 865  0028              	ENDIF
 865  0028              ;# 865 "e:\x-sense_svn\xp02\xp02\src\main.c" 1
 865  0028              	IF (150000>=8) AND (150000<( 4 + __PBP__ * 2))  AND ( __PBP__ > 2 )
 865  0028              ;# 865 "e:\x-sense_svn\xp02\xp02\src\main.c" 1
 865  0028              	NOP
 865  0028              	ENDIF
 865  0028              ;# 865 "e:\x-sense_svn\xp02\xp02\src\main.c" 1
 865  0028              	IF (150000==9)  AND ( __PBP__ > 2 )
 865  0028              ;# 865 "e:\x-sense_svn\xp02\xp02\src\main.c" 1
文件：main.c       编译器版本 HGASM 0202 页次12

 865  0028              	NOP
 865  0028              	ENDIF
 865  0028              ;# 865 "e:\x-sense_svn\xp02\xp02\src\main.c" 1
 865  0028              	IF (150000< ( 8 + __PBP__ * 2)) AND (150000>( 3 + __PBP__ * 2))
 865  0028              ;# 865 "e:\x-sense_svn\xp02\xp02\src\main.c" 1
 865  0028              	fcall __DELAY3 + ( 7 + __PBP__ * 2) -150000
 865  0028              	ENDIF
 865  0028              ;# 865 "e:\x-sense_svn\xp02\xp02\src\main.c" 1
 865  0028              	IF (150000< ( 0404h + __PBP__ * 2)) AND (150000>( 7 + __PBP__ * 2))
 865  0028              ;# 865 "e:\x-sense_svn\xp02\xp02\src\main.c" 1
 865  0028              	MOV A,(150000-( 4 + __PBP__ * 2))/4
 865  0028              ;# 865 "e:\x-sense_svn\xp02\xp02\src\main.c" 1
 865  0028              	fcall __DELAYX3 + 3 -((150000-( 4 + __PBP__ * 2)) MOD 4) 
 865  0028              	ENDIF
 865  0028              ;# 865 "e:\x-sense_svn\xp02\xp02\src\main.c" 1
 865  0028              	IF (150000< ( 040bh + __PBP__ * 2)) AND (150000> ( 0403h + __PBP__ * 2))
 865  0028              ;# 865 "e:\x-sense_svn\xp02\xp02\src\main.c" 1
 865  0028              	MOV A,0 
 865  0028              ;# 865 "e:\x-sense_svn\xp02\xp02\src\main.c" 1
 865  0028              	fcall __DELAYX6 + ( 040ah + __PBP__ * 2) -150000
 865  0028              	ENDIF
 865  0028              ;# 865 "e:\x-sense_svn\xp02\xp02\src\main.c" 1
 865  0028              	IF (150000 >= ( 040bh + __PBP__ * 2)) AND ((((150000-( 9 + __PBP__ * 2))%0402h)/4+1)>256)
 865  0028              ;# 865 "e:\x-sense_svn\xp02\xp02\src\main.c" 1
 865  0028              	MOV A,(150000-( 9 + __PBP__ * 2))/0402h
 865  0028              ;# 865 "e:\x-sense_svn\xp02\xp02\src\main.c" 1
 865  0028              	MOV _builtin_holtek_delay_2,A
 865  0028              ;# 865 "e:\x-sense_svn\xp02\xp02\src\main.c" 1
 865  0028              	MOV A,0
 865  0028              ;# 865 "e:\x-sense_svn\xp02\xp02\src\main.c" 1
 865  0028              	fcall __DELAYY5 +5- (((150000-( 9 + __PBP__ * 2))%0402h)%6) 
 865  0028              	ENDIF
 865  0028              ;# 865 "e:\x-sense_svn\xp02\xp02\src\main.c" 1
 865  0028              	IF (150000 >= ( 040bh + __PBP__ * 2)) AND ((((150000-( 9 + __PBP__ * 2))%0402h)/4+1)<=256)
 865  0028              ;# 865 "e:\x-sense_svn\xp02\xp02\src\main.c" 1
 865  0028  0F92        	MOV A,(150000-( 9 + __PBP__ * 2))/0402h
 865  0029              ;# 865 "e:\x-sense_svn\xp02\xp02\src\main.c" 1
 865  0029  0080     E  	MOV _builtin_holtek_delay_2,A
 865  002A              ;# 865 "e:\x-sense_svn\xp02\xp02\src\main.c" 1
 865  002A  0F31        	MOV A,((150000-( 9 + __PBP__ * 2))%0402h)/4+1
 865  002B              ;# 865 "e:\x-sense_svn\xp02\xp02\src\main.c" 1
 865  002B              	fcall __DELAYY3 +3-(((150000-( 9 + __PBP__ * 2))%0402h)%4) 
 865  0032              	ENDIF
 866  0032              #line 866 "e:\x-sense_svn\xp02\xp02\src\main.c"
 866  0032              ;# 866 "e:\x-sense_svn\xp02\xp02\src\main.c" 1
 866  0032              	IF 150000>263690
 866  0032              ;# 866 "e:\x-sense_svn\xp02\xp02\src\main.c" 1
 866  0032              	ERRMESSAGE 'the value 150000of the argument exceeds the maxinum 263690'
 866  0032              	ENDIF
 866  0032              ;# 866 "e:\x-sense_svn\xp02\xp02\src\main.c" 1
 866  0032              	IF 150000<0
 866  0032              ;# 866 "e:\x-sense_svn\xp02\xp02\src\main.c" 1
 866  0032              	ERRMESSAGE 'the value 150000 of the argument exceeds the mininum 0'
 866  0032              	ENDIF
 866  0032              ;# 866 "e:\x-sense_svn\xp02\xp02\src\main.c" 1
 866  0032              	IF 150000==0
 866  0032              ;# 866 "e:\x-sense_svn\xp02\xp02\src\main.c" 1
 866  0032              	JMP $
 866  0032              	ENDIF
 866  0032              ;# 866 "e:\x-sense_svn\xp02\xp02\src\main.c" 1
文件：main.c       编译器版本 HGASM 0202 页次13

 866  0032              	IF (150000>=1) AND (150000<( 4 + __PBP__ * 2))
 866  0032              ;# 866 "e:\x-sense_svn\xp02\xp02\src\main.c" 1
 866  0032              	NOP
 866  0032              	ENDIF
 866  0032              ;# 866 "e:\x-sense_svn\xp02\xp02\src\main.c" 1
 866  0032              	IF (150000>=2) AND (150000<( 4 + __PBP__ * 2))
 866  0032              ;# 866 "e:\x-sense_svn\xp02\xp02\src\main.c" 1
 866  0032              	NOP
 866  0032              	ENDIF
 866  0032              ;# 866 "e:\x-sense_svn\xp02\xp02\src\main.c" 1
 866  0032              	IF (150000>=3) AND (150000<( 4 + __PBP__ * 2))
 866  0032              ;# 866 "e:\x-sense_svn\xp02\xp02\src\main.c" 1
 866  0032              	NOP
 866  0032              	ENDIF
 866  0032              ;# 866 "e:\x-sense_svn\xp02\xp02\src\main.c" 1
 866  0032              	IF (150000>=4) AND (150000<( 4 + __PBP__ * 2)) AND ( __PBP__ > 0 )
 866  0032              ;# 866 "e:\x-sense_svn\xp02\xp02\src\main.c" 1
 866  0032              	NOP
 866  0032              	ENDIF
 866  0032              ;# 866 "e:\x-sense_svn\xp02\xp02\src\main.c" 1
 866  0032              	IF (150000>=5) AND (150000<( 4 + __PBP__ * 2)) AND ( __PBP__ > 0 )
 866  0032              ;# 866 "e:\x-sense_svn\xp02\xp02\src\main.c" 1
 866  0032              	NOP
 866  0032              	ENDIF
 866  0032              ;# 866 "e:\x-sense_svn\xp02\xp02\src\main.c" 1
 866  0032              	IF (150000>=6) AND (150000<( 4 + __PBP__ * 2))  AND ( __PBP__ > 1 )
 866  0032              ;# 866 "e:\x-sense_svn\xp02\xp02\src\main.c" 1
 866  0032              	NOP
 866  0032              	ENDIF
 866  0032              ;# 866 "e:\x-sense_svn\xp02\xp02\src\main.c" 1
 866  0032              	IF (150000>=7) AND (150000<( 4 + __PBP__ * 2))  AND ( __PBP__ > 1 )
 866  0032              ;# 866 "e:\x-sense_svn\xp02\xp02\src\main.c" 1
 866  0032              	NOP
 866  0032              	ENDIF
 866  0032              ;# 866 "e:\x-sense_svn\xp02\xp02\src\main.c" 1
 866  0032              	IF (150000>=8) AND (150000<( 4 + __PBP__ * 2))  AND ( __PBP__ > 2 )
 866  0032              ;# 866 "e:\x-sense_svn\xp02\xp02\src\main.c" 1
 866  0032              	NOP
 866  0032              	ENDIF
 866  0032              ;# 866 "e:\x-sense_svn\xp02\xp02\src\main.c" 1
 866  0032              	IF (150000==9)  AND ( __PBP__ > 2 )
 866  0032              ;# 866 "e:\x-sense_svn\xp02\xp02\src\main.c" 1
 866  0032              	NOP
 866  0032              	ENDIF
 866  0032              ;# 866 "e:\x-sense_svn\xp02\xp02\src\main.c" 1
 866  0032              	IF (150000< ( 8 + __PBP__ * 2)) AND (150000>( 3 + __PBP__ * 2))
 866  0032              ;# 866 "e:\x-sense_svn\xp02\xp02\src\main.c" 1
 866  0032              	fcall __DELAY3 + ( 7 + __PBP__ * 2) -150000
 866  0032              	ENDIF
 866  0032              ;# 866 "e:\x-sense_svn\xp02\xp02\src\main.c" 1
 866  0032              	IF (150000< ( 0404h + __PBP__ * 2)) AND (150000>( 7 + __PBP__ * 2))
 866  0032              ;# 866 "e:\x-sense_svn\xp02\xp02\src\main.c" 1
 866  0032              	MOV A,(150000-( 4 + __PBP__ * 2))/4
 866  0032              ;# 866 "e:\x-sense_svn\xp02\xp02\src\main.c" 1
 866  0032              	fcall __DELAYX3 + 3 -((150000-( 4 + __PBP__ * 2)) MOD 4) 
 866  0032              	ENDIF
 866  0032              ;# 866 "e:\x-sense_svn\xp02\xp02\src\main.c" 1
 866  0032              	IF (150000< ( 040bh + __PBP__ * 2)) AND (150000> ( 0403h + __PBP__ * 2))
 866  0032              ;# 866 "e:\x-sense_svn\xp02\xp02\src\main.c" 1
 866  0032              	MOV A,0 
文件：main.c       编译器版本 HGASM 0202 页次14

 866  0032              ;# 866 "e:\x-sense_svn\xp02\xp02\src\main.c" 1
 866  0032              	fcall __DELAYX6 + ( 040ah + __PBP__ * 2) -150000
 866  0032              	ENDIF
 866  0032              ;# 866 "e:\x-sense_svn\xp02\xp02\src\main.c" 1
 866  0032              	IF (150000 >= ( 040bh + __PBP__ * 2)) AND ((((150000-( 9 + __PBP__ * 2))%0402h)/4+1)>256)
 866  0032              ;# 866 "e:\x-sense_svn\xp02\xp02\src\main.c" 1
 866  0032              	MOV A,(150000-( 9 + __PBP__ * 2))/0402h
 866  0032              ;# 866 "e:\x-sense_svn\xp02\xp02\src\main.c" 1
 866  0032              	MOV _builtin_holtek_delay_2,A
 866  0032              ;# 866 "e:\x-sense_svn\xp02\xp02\src\main.c" 1
 866  0032              	MOV A,0
 866  0032              ;# 866 "e:\x-sense_svn\xp02\xp02\src\main.c" 1
 866  0032              	fcall __DELAYY5 +5- (((150000-( 9 + __PBP__ * 2))%0402h)%6) 
 866  0032              	ENDIF
 866  0032              ;# 866 "e:\x-sense_svn\xp02\xp02\src\main.c" 1
 866  0032              	IF (150000 >= ( 040bh + __PBP__ * 2)) AND ((((150000-( 9 + __PBP__ * 2))%0402h)/4+1)<=256)
 866  0032              ;# 866 "e:\x-sense_svn\xp02\xp02\src\main.c" 1
 866  0032  0F92        	MOV A,(150000-( 9 + __PBP__ * 2))/0402h
 866  0033              ;# 866 "e:\x-sense_svn\xp02\xp02\src\main.c" 1
 866  0033  0080     E  	MOV _builtin_holtek_delay_2,A
 866  0034              ;# 866 "e:\x-sense_svn\xp02\xp02\src\main.c" 1
 866  0034  0F31        	MOV A,((150000-( 9 + __PBP__ * 2))%0402h)/4+1
 866  0035              ;# 866 "e:\x-sense_svn\xp02\xp02\src\main.c" 1
 866  0035              	fcall __DELAYY3 +3-(((150000-( 9 + __PBP__ * 2))%0402h)%4) 
 866  003C              	ENDIF
 846  003C              #line 846 "e:\x-sense_svn\xp02\xp02\src\main.c"
 846  003C  1480     E  	inc ra
 846  003D              _L18:
 846  003D  0700     E  	mov a,ra
 846  003E  0200     R  	sub a,_ErrIndex_2[1]
 846  003F  390A        	snz z
 846  0040  2800     R  	jmp _L23
 846  0041  0003        	ret
 846  0042              _ErrIndex endp
 846  0042              #line 846 "e:\x-sense_svn\xp02\xp02\src\main.c"
 846  0042              #pragma debug scope 1 1
 846  0042              public _PowerOnDisplay
 846  0042              #pragma debug scope 7 1
 879  0042              #line 879 "e:\x-sense_svn\xp02\xp02\src\main.c"
 879  0000              _PowerOnDisplay .section 'code'
 879  0000              _PowerOnDisplay proc
 879  0000  0F08        	mov a,8
 879  0001  0080     E  	mov ra,a
 879  0002              _L26:
 883  0002              #line 883 "e:\x-sense_svn\xp02\xp02\src\main.c"
 883  0002  3114        	set [20].2
 883  0003  3218        	set [24].4
 884  0004              #line 884 "e:\x-sense_svn\xp02\xp02\src\main.c"
 884  0004              ;# 884 "e:\x-sense_svn\xp02\xp02\src\main.c" 1
 884  0004  0001        	clr wdt
 885  0005              #line 885 "e:\x-sense_svn\xp02\xp02\src\main.c"
 885  0005              ;# 885 "e:\x-sense_svn\xp02\xp02\src\main.c" 1
 885  0005              	IF 250000>263690
 885  0005              ;# 885 "e:\x-sense_svn\xp02\xp02\src\main.c" 1
 885  0005              	ERRMESSAGE 'the value 250000of the argument exceeds the maxinum 263690'
 885  0005              	ENDIF
 885  0005              ;# 885 "e:\x-sense_svn\xp02\xp02\src\main.c" 1
 885  0005              	IF 250000<0
 885  0005              ;# 885 "e:\x-sense_svn\xp02\xp02\src\main.c" 1
 885  0005              	ERRMESSAGE 'the value 250000 of the argument exceeds the mininum 0'
文件：main.c       编译器版本 HGASM 0202 页次15

 885  0005              	ENDIF
 885  0005              ;# 885 "e:\x-sense_svn\xp02\xp02\src\main.c" 1
 885  0005              	IF 250000==0
 885  0005              ;# 885 "e:\x-sense_svn\xp02\xp02\src\main.c" 1
 885  0005              	JMP $
 885  0005              	ENDIF
 885  0005              ;# 885 "e:\x-sense_svn\xp02\xp02\src\main.c" 1
 885  0005              	IF (250000>=1) AND (250000<( 4 + __PBP__ * 2))
 885  0005              ;# 885 "e:\x-sense_svn\xp02\xp02\src\main.c" 1
 885  0005              	NOP
 885  0005              	ENDIF
 885  0005              ;# 885 "e:\x-sense_svn\xp02\xp02\src\main.c" 1
 885  0005              	IF (250000>=2) AND (250000<( 4 + __PBP__ * 2))
 885  0005              ;# 885 "e:\x-sense_svn\xp02\xp02\src\main.c" 1
 885  0005              	NOP
 885  0005              	ENDIF
 885  0005              ;# 885 "e:\x-sense_svn\xp02\xp02\src\main.c" 1
 885  0005              	IF (250000>=3) AND (250000<( 4 + __PBP__ * 2))
 885  0005              ;# 885 "e:\x-sense_svn\xp02\xp02\src\main.c" 1
 885  0005              	NOP
 885  0005              	ENDIF
 885  0005              ;# 885 "e:\x-sense_svn\xp02\xp02\src\main.c" 1
 885  0005              	IF (250000>=4) AND (250000<( 4 + __PBP__ * 2)) AND ( __PBP__ > 0 )
 885  0005              ;# 885 "e:\x-sense_svn\xp02\xp02\src\main.c" 1
 885  0005              	NOP
 885  0005              	ENDIF
 885  0005              ;# 885 "e:\x-sense_svn\xp02\xp02\src\main.c" 1
 885  0005              	IF (250000>=5) AND (250000<( 4 + __PBP__ * 2)) AND ( __PBP__ > 0 )
 885  0005              ;# 885 "e:\x-sense_svn\xp02\xp02\src\main.c" 1
 885  0005              	NOP
 885  0005              	ENDIF
 885  0005              ;# 885 "e:\x-sense_svn\xp02\xp02\src\main.c" 1
 885  0005              	IF (250000>=6) AND (250000<( 4 + __PBP__ * 2))  AND ( __PBP__ > 1 )
 885  0005              ;# 885 "e:\x-sense_svn\xp02\xp02\src\main.c" 1
 885  0005              	NOP
 885  0005              	ENDIF
 885  0005              ;# 885 "e:\x-sense_svn\xp02\xp02\src\main.c" 1
 885  0005              	IF (250000>=7) AND (250000<( 4 + __PBP__ * 2))  AND ( __PBP__ > 1 )
 885  0005              ;# 885 "e:\x-sense_svn\xp02\xp02\src\main.c" 1
 885  0005              	NOP
 885  0005              	ENDIF
 885  0005              ;# 885 "e:\x-sense_svn\xp02\xp02\src\main.c" 1
 885  0005              	IF (250000>=8) AND (250000<( 4 + __PBP__ * 2))  AND ( __PBP__ > 2 )
 885  0005              ;# 885 "e:\x-sense_svn\xp02\xp02\src\main.c" 1
 885  0005              	NOP
 885  0005              	ENDIF
 885  0005              ;# 885 "e:\x-sense_svn\xp02\xp02\src\main.c" 1
 885  0005              	IF (250000==9)  AND ( __PBP__ > 2 )
 885  0005              ;# 885 "e:\x-sense_svn\xp02\xp02\src\main.c" 1
 885  0005              	NOP
 885  0005              	ENDIF
 885  0005              ;# 885 "e:\x-sense_svn\xp02\xp02\src\main.c" 1
 885  0005              	IF (250000< ( 8 + __PBP__ * 2)) AND (250000>( 3 + __PBP__ * 2))
 885  0005              ;# 885 "e:\x-sense_svn\xp02\xp02\src\main.c" 1
 885  0005              	fcall __DELAY3 + ( 7 + __PBP__ * 2) -250000
 885  0005              	ENDIF
 885  0005              ;# 885 "e:\x-sense_svn\xp02\xp02\src\main.c" 1
 885  0005              	IF (250000< ( 0404h + __PBP__ * 2)) AND (250000>( 7 + __PBP__ * 2))
 885  0005              ;# 885 "e:\x-sense_svn\xp02\xp02\src\main.c" 1
 885  0005              	MOV A,(250000-( 4 + __PBP__ * 2))/4
文件：main.c       编译器版本 HGASM 0202 页次16

 885  0005              ;# 885 "e:\x-sense_svn\xp02\xp02\src\main.c" 1
 885  0005              	fcall __DELAYX3 + 3 -((250000-( 4 + __PBP__ * 2)) MOD 4) 
 885  0005              	ENDIF
 885  0005              ;# 885 "e:\x-sense_svn\xp02\xp02\src\main.c" 1
 885  0005              	IF (250000< ( 040bh + __PBP__ * 2)) AND (250000> ( 0403h + __PBP__ * 2))
 885  0005              ;# 885 "e:\x-sense_svn\xp02\xp02\src\main.c" 1
 885  0005              	MOV A,0 
 885  0005              ;# 885 "e:\x-sense_svn\xp02\xp02\src\main.c" 1
 885  0005              	fcall __DELAYX6 + ( 040ah + __PBP__ * 2) -250000
 885  0005              	ENDIF
 885  0005              ;# 885 "e:\x-sense_svn\xp02\xp02\src\main.c" 1
 885  0005              	IF (250000 >= ( 040bh + __PBP__ * 2)) AND ((((250000-( 9 + __PBP__ * 2))%0402h)/4+1)>256)
 885  0005              ;# 885 "e:\x-sense_svn\xp02\xp02\src\main.c" 1
 885  0005              	MOV A,(250000-( 9 + __PBP__ * 2))/0402h
 885  0005              ;# 885 "e:\x-sense_svn\xp02\xp02\src\main.c" 1
 885  0005              	MOV _builtin_holtek_delay_2,A
 885  0005              ;# 885 "e:\x-sense_svn\xp02\xp02\src\main.c" 1
 885  0005              	MOV A,0
 885  0005              ;# 885 "e:\x-sense_svn\xp02\xp02\src\main.c" 1
 885  0005              	fcall __DELAYY5 +5- (((250000-( 9 + __PBP__ * 2))%0402h)%6) 
 885  0005              	ENDIF
 885  0005              ;# 885 "e:\x-sense_svn\xp02\xp02\src\main.c" 1
 885  0005              	IF (250000 >= ( 040bh + __PBP__ * 2)) AND ((((250000-( 9 + __PBP__ * 2))%0402h)/4+1)<=256)
 885  0005              ;# 885 "e:\x-sense_svn\xp02\xp02\src\main.c" 1
 885  0005  0FF3        	MOV A,(250000-( 9 + __PBP__ * 2))/0402h
 885  0006              ;# 885 "e:\x-sense_svn\xp02\xp02\src\main.c" 1
 885  0006  0080     E  	MOV _builtin_holtek_delay_2,A
 885  0007              ;# 885 "e:\x-sense_svn\xp02\xp02\src\main.c" 1
 885  0007  0FA8        	MOV A,((250000-( 9 + __PBP__ * 2))%0402h)/4+1
 885  0008              ;# 885 "e:\x-sense_svn\xp02\xp02\src\main.c" 1
 885  0008              	fcall __DELAYY3 +3-(((250000-( 9 + __PBP__ * 2))%0402h)%4) 
 885  000F              	ENDIF
 886  000F              #line 886 "e:\x-sense_svn\xp02\xp02\src\main.c"
 886  000F              ;# 886 "e:\x-sense_svn\xp02\xp02\src\main.c" 1
 886  000F              	IF 250000>263690
 886  000F              ;# 886 "e:\x-sense_svn\xp02\xp02\src\main.c" 1
 886  000F              	ERRMESSAGE 'the value 250000of the argument exceeds the maxinum 263690'
 886  000F              	ENDIF
 886  000F              ;# 886 "e:\x-sense_svn\xp02\xp02\src\main.c" 1
 886  000F              	IF 250000<0
 886  000F              ;# 886 "e:\x-sense_svn\xp02\xp02\src\main.c" 1
 886  000F              	ERRMESSAGE 'the value 250000 of the argument exceeds the mininum 0'
 886  000F              	ENDIF
 886  000F              ;# 886 "e:\x-sense_svn\xp02\xp02\src\main.c" 1
 886  000F              	IF 250000==0
 886  000F              ;# 886 "e:\x-sense_svn\xp02\xp02\src\main.c" 1
 886  000F              	JMP $
 886  000F              	ENDIF
 886  000F              ;# 886 "e:\x-sense_svn\xp02\xp02\src\main.c" 1
 886  000F              	IF (250000>=1) AND (250000<( 4 + __PBP__ * 2))
 886  000F              ;# 886 "e:\x-sense_svn\xp02\xp02\src\main.c" 1
 886  000F              	NOP
 886  000F              	ENDIF
 886  000F              ;# 886 "e:\x-sense_svn\xp02\xp02\src\main.c" 1
 886  000F              	IF (250000>=2) AND (250000<( 4 + __PBP__ * 2))
 886  000F              ;# 886 "e:\x-sense_svn\xp02\xp02\src\main.c" 1
 886  000F              	NOP
 886  000F              	ENDIF
 886  000F              ;# 886 "e:\x-sense_svn\xp02\xp02\src\main.c" 1
 886  000F              	IF (250000>=3) AND (250000<( 4 + __PBP__ * 2))
文件：main.c       编译器版本 HGASM 0202 页次17

 886  000F              ;# 886 "e:\x-sense_svn\xp02\xp02\src\main.c" 1
 886  000F              	NOP
 886  000F              	ENDIF
 886  000F              ;# 886 "e:\x-sense_svn\xp02\xp02\src\main.c" 1
 886  000F              	IF (250000>=4) AND (250000<( 4 + __PBP__ * 2)) AND ( __PBP__ > 0 )
 886  000F              ;# 886 "e:\x-sense_svn\xp02\xp02\src\main.c" 1
 886  000F              	NOP
 886  000F              	ENDIF
 886  000F              ;# 886 "e:\x-sense_svn\xp02\xp02\src\main.c" 1
 886  000F              	IF (250000>=5) AND (250000<( 4 + __PBP__ * 2)) AND ( __PBP__ > 0 )
 886  000F              ;# 886 "e:\x-sense_svn\xp02\xp02\src\main.c" 1
 886  000F              	NOP
 886  000F              	ENDIF
 886  000F              ;# 886 "e:\x-sense_svn\xp02\xp02\src\main.c" 1
 886  000F              	IF (250000>=6) AND (250000<( 4 + __PBP__ * 2))  AND ( __PBP__ > 1 )
 886  000F              ;# 886 "e:\x-sense_svn\xp02\xp02\src\main.c" 1
 886  000F              	NOP
 886  000F              	ENDIF
 886  000F              ;# 886 "e:\x-sense_svn\xp02\xp02\src\main.c" 1
 886  000F              	IF (250000>=7) AND (250000<( 4 + __PBP__ * 2))  AND ( __PBP__ > 1 )
 886  000F              ;# 886 "e:\x-sense_svn\xp02\xp02\src\main.c" 1
 886  000F              	NOP
 886  000F              	ENDIF
 886  000F              ;# 886 "e:\x-sense_svn\xp02\xp02\src\main.c" 1
 886  000F              	IF (250000>=8) AND (250000<( 4 + __PBP__ * 2))  AND ( __PBP__ > 2 )
 886  000F              ;# 886 "e:\x-sense_svn\xp02\xp02\src\main.c" 1
 886  000F              	NOP
 886  000F              	ENDIF
 886  000F              ;# 886 "e:\x-sense_svn\xp02\xp02\src\main.c" 1
 886  000F              	IF (250000==9)  AND ( __PBP__ > 2 )
 886  000F              ;# 886 "e:\x-sense_svn\xp02\xp02\src\main.c" 1
 886  000F              	NOP
 886  000F              	ENDIF
 886  000F              ;# 886 "e:\x-sense_svn\xp02\xp02\src\main.c" 1
 886  000F              	IF (250000< ( 8 + __PBP__ * 2)) AND (250000>( 3 + __PBP__ * 2))
 886  000F              ;# 886 "e:\x-sense_svn\xp02\xp02\src\main.c" 1
 886  000F              	fcall __DELAY3 + ( 7 + __PBP__ * 2) -250000
 886  000F              	ENDIF
 886  000F              ;# 886 "e:\x-sense_svn\xp02\xp02\src\main.c" 1
 886  000F              	IF (250000< ( 0404h + __PBP__ * 2)) AND (250000>( 7 + __PBP__ * 2))
 886  000F              ;# 886 "e:\x-sense_svn\xp02\xp02\src\main.c" 1
 886  000F              	MOV A,(250000-( 4 + __PBP__ * 2))/4
 886  000F              ;# 886 "e:\x-sense_svn\xp02\xp02\src\main.c" 1
 886  000F              	fcall __DELAYX3 + 3 -((250000-( 4 + __PBP__ * 2)) MOD 4) 
 886  000F              	ENDIF
 886  000F              ;# 886 "e:\x-sense_svn\xp02\xp02\src\main.c" 1
 886  000F              	IF (250000< ( 040bh + __PBP__ * 2)) AND (250000> ( 0403h + __PBP__ * 2))
 886  000F              ;# 886 "e:\x-sense_svn\xp02\xp02\src\main.c" 1
 886  000F              	MOV A,0 
 886  000F              ;# 886 "e:\x-sense_svn\xp02\xp02\src\main.c" 1
 886  000F              	fcall __DELAYX6 + ( 040ah + __PBP__ * 2) -250000
 886  000F              	ENDIF
 886  000F              ;# 886 "e:\x-sense_svn\xp02\xp02\src\main.c" 1
 886  000F              	IF (250000 >= ( 040bh + __PBP__ * 2)) AND ((((250000-( 9 + __PBP__ * 2))%0402h)/4+1)>256)
 886  000F              ;# 886 "e:\x-sense_svn\xp02\xp02\src\main.c" 1
 886  000F              	MOV A,(250000-( 9 + __PBP__ * 2))/0402h
 886  000F              ;# 886 "e:\x-sense_svn\xp02\xp02\src\main.c" 1
 886  000F              	MOV _builtin_holtek_delay_2,A
 886  000F              ;# 886 "e:\x-sense_svn\xp02\xp02\src\main.c" 1
 886  000F              	MOV A,0
文件：main.c       编译器版本 HGASM 0202 页次18

 886  000F              ;# 886 "e:\x-sense_svn\xp02\xp02\src\main.c" 1
 886  000F              	fcall __DELAYY5 +5- (((250000-( 9 + __PBP__ * 2))%0402h)%6) 
 886  000F              	ENDIF
 886  000F              ;# 886 "e:\x-sense_svn\xp02\xp02\src\main.c" 1
 886  000F              	IF (250000 >= ( 040bh + __PBP__ * 2)) AND ((((250000-( 9 + __PBP__ * 2))%0402h)/4+1)<=256)
 886  000F              ;# 886 "e:\x-sense_svn\xp02\xp02\src\main.c" 1
 886  000F  0FF3        	MOV A,(250000-( 9 + __PBP__ * 2))/0402h
 886  0010              ;# 886 "e:\x-sense_svn\xp02\xp02\src\main.c" 1
 886  0010  0080     E  	MOV _builtin_holtek_delay_2,A
 886  0011              ;# 886 "e:\x-sense_svn\xp02\xp02\src\main.c" 1
 886  0011  0FA8        	MOV A,((250000-( 9 + __PBP__ * 2))%0402h)/4+1
 886  0012              ;# 886 "e:\x-sense_svn\xp02\xp02\src\main.c" 1
 886  0012              	fcall __DELAYY3 +3-(((250000-( 9 + __PBP__ * 2))%0402h)%4) 
 886  0019              	ENDIF
 887  0019              #line 887 "e:\x-sense_svn\xp02\xp02\src\main.c"
 887  0019  3514        	clr [20].2
 887  001A  3618        	clr [24].4
 889  001B              #line 889 "e:\x-sense_svn\xp02\xp02\src\main.c"
 889  001B  3218        	set [24].4
 890  001C              #line 890 "e:\x-sense_svn\xp02\xp02\src\main.c"
 890  001C              ;# 890 "e:\x-sense_svn\xp02\xp02\src\main.c" 1
 890  001C  0001        	clr wdt
 891  001D              #line 891 "e:\x-sense_svn\xp02\xp02\src\main.c"
 891  001D              ;# 891 "e:\x-sense_svn\xp02\xp02\src\main.c" 1
 891  001D              	IF 250000>263690
 891  001D              ;# 891 "e:\x-sense_svn\xp02\xp02\src\main.c" 1
 891  001D              	ERRMESSAGE 'the value 250000of the argument exceeds the maxinum 263690'
 891  001D              	ENDIF
 891  001D              ;# 891 "e:\x-sense_svn\xp02\xp02\src\main.c" 1
 891  001D              	IF 250000<0
 891  001D              ;# 891 "e:\x-sense_svn\xp02\xp02\src\main.c" 1
 891  001D              	ERRMESSAGE 'the value 250000 of the argument exceeds the mininum 0'
 891  001D              	ENDIF
 891  001D              ;# 891 "e:\x-sense_svn\xp02\xp02\src\main.c" 1
 891  001D              	IF 250000==0
 891  001D              ;# 891 "e:\x-sense_svn\xp02\xp02\src\main.c" 1
 891  001D              	JMP $
 891  001D              	ENDIF
 891  001D              ;# 891 "e:\x-sense_svn\xp02\xp02\src\main.c" 1
 891  001D              	IF (250000>=1) AND (250000<( 4 + __PBP__ * 2))
 891  001D              ;# 891 "e:\x-sense_svn\xp02\xp02\src\main.c" 1
 891  001D              	NOP
 891  001D              	ENDIF
 891  001D              ;# 891 "e:\x-sense_svn\xp02\xp02\src\main.c" 1
 891  001D              	IF (250000>=2) AND (250000<( 4 + __PBP__ * 2))
 891  001D              ;# 891 "e:\x-sense_svn\xp02\xp02\src\main.c" 1
 891  001D              	NOP
 891  001D              	ENDIF
 891  001D              ;# 891 "e:\x-sense_svn\xp02\xp02\src\main.c" 1
 891  001D              	IF (250000>=3) AND (250000<( 4 + __PBP__ * 2))
 891  001D              ;# 891 "e:\x-sense_svn\xp02\xp02\src\main.c" 1
 891  001D              	NOP
 891  001D              	ENDIF
 891  001D              ;# 891 "e:\x-sense_svn\xp02\xp02\src\main.c" 1
 891  001D              	IF (250000>=4) AND (250000<( 4 + __PBP__ * 2)) AND ( __PBP__ > 0 )
 891  001D              ;# 891 "e:\x-sense_svn\xp02\xp02\src\main.c" 1
 891  001D              	NOP
 891  001D              	ENDIF
 891  001D              ;# 891 "e:\x-sense_svn\xp02\xp02\src\main.c" 1
 891  001D              	IF (250000>=5) AND (250000<( 4 + __PBP__ * 2)) AND ( __PBP__ > 0 )
文件：main.c       编译器版本 HGASM 0202 页次19

 891  001D              ;# 891 "e:\x-sense_svn\xp02\xp02\src\main.c" 1
 891  001D              	NOP
 891  001D              	ENDIF
 891  001D              ;# 891 "e:\x-sense_svn\xp02\xp02\src\main.c" 1
 891  001D              	IF (250000>=6) AND (250000<( 4 + __PBP__ * 2))  AND ( __PBP__ > 1 )
 891  001D              ;# 891 "e:\x-sense_svn\xp02\xp02\src\main.c" 1
 891  001D              	NOP
 891  001D              	ENDIF
 891  001D              ;# 891 "e:\x-sense_svn\xp02\xp02\src\main.c" 1
 891  001D              	IF (250000>=7) AND (250000<( 4 + __PBP__ * 2))  AND ( __PBP__ > 1 )
 891  001D              ;# 891 "e:\x-sense_svn\xp02\xp02\src\main.c" 1
 891  001D              	NOP
 891  001D              	ENDIF
 891  001D              ;# 891 "e:\x-sense_svn\xp02\xp02\src\main.c" 1
 891  001D              	IF (250000>=8) AND (250000<( 4 + __PBP__ * 2))  AND ( __PBP__ > 2 )
 891  001D              ;# 891 "e:\x-sense_svn\xp02\xp02\src\main.c" 1
 891  001D              	NOP
 891  001D              	ENDIF
 891  001D              ;# 891 "e:\x-sense_svn\xp02\xp02\src\main.c" 1
 891  001D              	IF (250000==9)  AND ( __PBP__ > 2 )
 891  001D              ;# 891 "e:\x-sense_svn\xp02\xp02\src\main.c" 1
 891  001D              	NOP
 891  001D              	ENDIF
 891  001D              ;# 891 "e:\x-sense_svn\xp02\xp02\src\main.c" 1
 891  001D              	IF (250000< ( 8 + __PBP__ * 2)) AND (250000>( 3 + __PBP__ * 2))
 891  001D              ;# 891 "e:\x-sense_svn\xp02\xp02\src\main.c" 1
 891  001D              	fcall __DELAY3 + ( 7 + __PBP__ * 2) -250000
 891  001D              	ENDIF
 891  001D              ;# 891 "e:\x-sense_svn\xp02\xp02\src\main.c" 1
 891  001D              	IF (250000< ( 0404h + __PBP__ * 2)) AND (250000>( 7 + __PBP__ * 2))
 891  001D              ;# 891 "e:\x-sense_svn\xp02\xp02\src\main.c" 1
 891  001D              	MOV A,(250000-( 4 + __PBP__ * 2))/4
 891  001D              ;# 891 "e:\x-sense_svn\xp02\xp02\src\main.c" 1
 891  001D              	fcall __DELAYX3 + 3 -((250000-( 4 + __PBP__ * 2)) MOD 4) 
 891  001D              	ENDIF
 891  001D              ;# 891 "e:\x-sense_svn\xp02\xp02\src\main.c" 1
 891  001D              	IF (250000< ( 040bh + __PBP__ * 2)) AND (250000> ( 0403h + __PBP__ * 2))
 891  001D              ;# 891 "e:\x-sense_svn\xp02\xp02\src\main.c" 1
 891  001D              	MOV A,0 
 891  001D              ;# 891 "e:\x-sense_svn\xp02\xp02\src\main.c" 1
 891  001D              	fcall __DELAYX6 + ( 040ah + __PBP__ * 2) -250000
 891  001D              	ENDIF
 891  001D              ;# 891 "e:\x-sense_svn\xp02\xp02\src\main.c" 1
 891  001D              	IF (250000 >= ( 040bh + __PBP__ * 2)) AND ((((250000-( 9 + __PBP__ * 2))%0402h)/4+1)>256)
 891  001D              ;# 891 "e:\x-sense_svn\xp02\xp02\src\main.c" 1
 891  001D              	MOV A,(250000-( 9 + __PBP__ * 2))/0402h
 891  001D              ;# 891 "e:\x-sense_svn\xp02\xp02\src\main.c" 1
 891  001D              	MOV _builtin_holtek_delay_2,A
 891  001D              ;# 891 "e:\x-sense_svn\xp02\xp02\src\main.c" 1
 891  001D              	MOV A,0
 891  001D              ;# 891 "e:\x-sense_svn\xp02\xp02\src\main.c" 1
 891  001D              	fcall __DELAYY5 +5- (((250000-( 9 + __PBP__ * 2))%0402h)%6) 
 891  001D              	ENDIF
 891  001D              ;# 891 "e:\x-sense_svn\xp02\xp02\src\main.c" 1
 891  001D              	IF (250000 >= ( 040bh + __PBP__ * 2)) AND ((((250000-( 9 + __PBP__ * 2))%0402h)/4+1)<=256)
 891  001D              ;# 891 "e:\x-sense_svn\xp02\xp02\src\main.c" 1
 891  001D  0FF3        	MOV A,(250000-( 9 + __PBP__ * 2))/0402h
 891  001E              ;# 891 "e:\x-sense_svn\xp02\xp02\src\main.c" 1
 891  001E  0080     E  	MOV _builtin_holtek_delay_2,A
 891  001F              ;# 891 "e:\x-sense_svn\xp02\xp02\src\main.c" 1
文件：main.c       编译器版本 HGASM 0202 页次20

 891  001F  0FA8        	MOV A,((250000-( 9 + __PBP__ * 2))%0402h)/4+1
 891  0020              ;# 891 "e:\x-sense_svn\xp02\xp02\src\main.c" 1
 891  0020              	fcall __DELAYY3 +3-(((250000-( 9 + __PBP__ * 2))%0402h)%4) 
 891  0027              	ENDIF
 892  0027              #line 892 "e:\x-sense_svn\xp02\xp02\src\main.c"
 892  0027              ;# 892 "e:\x-sense_svn\xp02\xp02\src\main.c" 1
 892  0027              	IF 250000>263690
 892  0027              ;# 892 "e:\x-sense_svn\xp02\xp02\src\main.c" 1
 892  0027              	ERRMESSAGE 'the value 250000of the argument exceeds the maxinum 263690'
 892  0027              	ENDIF
 892  0027              ;# 892 "e:\x-sense_svn\xp02\xp02\src\main.c" 1
 892  0027              	IF 250000<0
 892  0027              ;# 892 "e:\x-sense_svn\xp02\xp02\src\main.c" 1
 892  0027              	ERRMESSAGE 'the value 250000 of the argument exceeds the mininum 0'
 892  0027              	ENDIF
 892  0027              ;# 892 "e:\x-sense_svn\xp02\xp02\src\main.c" 1
 892  0027              	IF 250000==0
 892  0027              ;# 892 "e:\x-sense_svn\xp02\xp02\src\main.c" 1
 892  0027              	JMP $
 892  0027              	ENDIF
 892  0027              ;# 892 "e:\x-sense_svn\xp02\xp02\src\main.c" 1
 892  0027              	IF (250000>=1) AND (250000<( 4 + __PBP__ * 2))
 892  0027              ;# 892 "e:\x-sense_svn\xp02\xp02\src\main.c" 1
 892  0027              	NOP
 892  0027              	ENDIF
 892  0027              ;# 892 "e:\x-sense_svn\xp02\xp02\src\main.c" 1
 892  0027              	IF (250000>=2) AND (250000<( 4 + __PBP__ * 2))
 892  0027              ;# 892 "e:\x-sense_svn\xp02\xp02\src\main.c" 1
 892  0027              	NOP
 892  0027              	ENDIF
 892  0027              ;# 892 "e:\x-sense_svn\xp02\xp02\src\main.c" 1
 892  0027              	IF (250000>=3) AND (250000<( 4 + __PBP__ * 2))
 892  0027              ;# 892 "e:\x-sense_svn\xp02\xp02\src\main.c" 1
 892  0027              	NOP
 892  0027              	ENDIF
 892  0027              ;# 892 "e:\x-sense_svn\xp02\xp02\src\main.c" 1
 892  0027              	IF (250000>=4) AND (250000<( 4 + __PBP__ * 2)) AND ( __PBP__ > 0 )
 892  0027              ;# 892 "e:\x-sense_svn\xp02\xp02\src\main.c" 1
 892  0027              	NOP
 892  0027              	ENDIF
 892  0027              ;# 892 "e:\x-sense_svn\xp02\xp02\src\main.c" 1
 892  0027              	IF (250000>=5) AND (250000<( 4 + __PBP__ * 2)) AND ( __PBP__ > 0 )
 892  0027              ;# 892 "e:\x-sense_svn\xp02\xp02\src\main.c" 1
 892  0027              	NOP
 892  0027              	ENDIF
 892  0027              ;# 892 "e:\x-sense_svn\xp02\xp02\src\main.c" 1
 892  0027              	IF (250000>=6) AND (250000<( 4 + __PBP__ * 2))  AND ( __PBP__ > 1 )
 892  0027              ;# 892 "e:\x-sense_svn\xp02\xp02\src\main.c" 1
 892  0027              	NOP
 892  0027              	ENDIF
 892  0027              ;# 892 "e:\x-sense_svn\xp02\xp02\src\main.c" 1
 892  0027              	IF (250000>=7) AND (250000<( 4 + __PBP__ * 2))  AND ( __PBP__ > 1 )
 892  0027              ;# 892 "e:\x-sense_svn\xp02\xp02\src\main.c" 1
 892  0027              	NOP
 892  0027              	ENDIF
 892  0027              ;# 892 "e:\x-sense_svn\xp02\xp02\src\main.c" 1
 892  0027              	IF (250000>=8) AND (250000<( 4 + __PBP__ * 2))  AND ( __PBP__ > 2 )
 892  0027              ;# 892 "e:\x-sense_svn\xp02\xp02\src\main.c" 1
 892  0027              	NOP
 892  0027              	ENDIF
文件：main.c       编译器版本 HGASM 0202 页次21

 892  0027              ;# 892 "e:\x-sense_svn\xp02\xp02\src\main.c" 1
 892  0027              	IF (250000==9)  AND ( __PBP__ > 2 )
 892  0027              ;# 892 "e:\x-sense_svn\xp02\xp02\src\main.c" 1
 892  0027              	NOP
 892  0027              	ENDIF
 892  0027              ;# 892 "e:\x-sense_svn\xp02\xp02\src\main.c" 1
 892  0027              	IF (250000< ( 8 + __PBP__ * 2)) AND (250000>( 3 + __PBP__ * 2))
 892  0027              ;# 892 "e:\x-sense_svn\xp02\xp02\src\main.c" 1
 892  0027              	fcall __DELAY3 + ( 7 + __PBP__ * 2) -250000
 892  0027              	ENDIF
 892  0027              ;# 892 "e:\x-sense_svn\xp02\xp02\src\main.c" 1
 892  0027              	IF (250000< ( 0404h + __PBP__ * 2)) AND (250000>( 7 + __PBP__ * 2))
 892  0027              ;# 892 "e:\x-sense_svn\xp02\xp02\src\main.c" 1
 892  0027              	MOV A,(250000-( 4 + __PBP__ * 2))/4
 892  0027              ;# 892 "e:\x-sense_svn\xp02\xp02\src\main.c" 1
 892  0027              	fcall __DELAYX3 + 3 -((250000-( 4 + __PBP__ * 2)) MOD 4) 
 892  0027              	ENDIF
 892  0027              ;# 892 "e:\x-sense_svn\xp02\xp02\src\main.c" 1
 892  0027              	IF (250000< ( 040bh + __PBP__ * 2)) AND (250000> ( 0403h + __PBP__ * 2))
 892  0027              ;# 892 "e:\x-sense_svn\xp02\xp02\src\main.c" 1
 892  0027              	MOV A,0 
 892  0027              ;# 892 "e:\x-sense_svn\xp02\xp02\src\main.c" 1
 892  0027              	fcall __DELAYX6 + ( 040ah + __PBP__ * 2) -250000
 892  0027              	ENDIF
 892  0027              ;# 892 "e:\x-sense_svn\xp02\xp02\src\main.c" 1
 892  0027              	IF (250000 >= ( 040bh + __PBP__ * 2)) AND ((((250000-( 9 + __PBP__ * 2))%0402h)/4+1)>256)
 892  0027              ;# 892 "e:\x-sense_svn\xp02\xp02\src\main.c" 1
 892  0027              	MOV A,(250000-( 9 + __PBP__ * 2))/0402h
 892  0027              ;# 892 "e:\x-sense_svn\xp02\xp02\src\main.c" 1
 892  0027              	MOV _builtin_holtek_delay_2,A
 892  0027              ;# 892 "e:\x-sense_svn\xp02\xp02\src\main.c" 1
 892  0027              	MOV A,0
 892  0027              ;# 892 "e:\x-sense_svn\xp02\xp02\src\main.c" 1
 892  0027              	fcall __DELAYY5 +5- (((250000-( 9 + __PBP__ * 2))%0402h)%6) 
 892  0027              	ENDIF
 892  0027              ;# 892 "e:\x-sense_svn\xp02\xp02\src\main.c" 1
 892  0027              	IF (250000 >= ( 040bh + __PBP__ * 2)) AND ((((250000-( 9 + __PBP__ * 2))%0402h)/4+1)<=256)
 892  0027              ;# 892 "e:\x-sense_svn\xp02\xp02\src\main.c" 1
 892  0027  0FF3        	MOV A,(250000-( 9 + __PBP__ * 2))/0402h
 892  0028              ;# 892 "e:\x-sense_svn\xp02\xp02\src\main.c" 1
 892  0028  0080     E  	MOV _builtin_holtek_delay_2,A
 892  0029              ;# 892 "e:\x-sense_svn\xp02\xp02\src\main.c" 1
 892  0029  0FA8        	MOV A,((250000-( 9 + __PBP__ * 2))%0402h)/4+1
 892  002A              ;# 892 "e:\x-sense_svn\xp02\xp02\src\main.c" 1
 892  002A              	fcall __DELAYY3 +3-(((250000-( 9 + __PBP__ * 2))%0402h)%4) 
 892  0031              	ENDIF
 893  0031              #line 893 "e:\x-sense_svn\xp02\xp02\src\main.c"
 893  0031  3618        	clr [24].4
 895  0032              #line 895 "e:\x-sense_svn\xp02\xp02\src\main.c"
 895  0032  3114        	set [20].2
 896  0033              #line 896 "e:\x-sense_svn\xp02\xp02\src\main.c"
 896  0033              ;# 896 "e:\x-sense_svn\xp02\xp02\src\main.c" 1
 896  0033  0001        	clr wdt
 897  0034              #line 897 "e:\x-sense_svn\xp02\xp02\src\main.c"
 897  0034              ;# 897 "e:\x-sense_svn\xp02\xp02\src\main.c" 1
 897  0034              	IF 250000>263690
 897  0034              ;# 897 "e:\x-sense_svn\xp02\xp02\src\main.c" 1
 897  0034              	ERRMESSAGE 'the value 250000of the argument exceeds the maxinum 263690'
 897  0034              	ENDIF
 897  0034              ;# 897 "e:\x-sense_svn\xp02\xp02\src\main.c" 1
文件：main.c       编译器版本 HGASM 0202 页次22

 897  0034              	IF 250000<0
 897  0034              ;# 897 "e:\x-sense_svn\xp02\xp02\src\main.c" 1
 897  0034              	ERRMESSAGE 'the value 250000 of the argument exceeds the mininum 0'
 897  0034              	ENDIF
 897  0034              ;# 897 "e:\x-sense_svn\xp02\xp02\src\main.c" 1
 897  0034              	IF 250000==0
 897  0034              ;# 897 "e:\x-sense_svn\xp02\xp02\src\main.c" 1
 897  0034              	JMP $
 897  0034              	ENDIF
 897  0034              ;# 897 "e:\x-sense_svn\xp02\xp02\src\main.c" 1
 897  0034              	IF (250000>=1) AND (250000<( 4 + __PBP__ * 2))
 897  0034              ;# 897 "e:\x-sense_svn\xp02\xp02\src\main.c" 1
 897  0034              	NOP
 897  0034              	ENDIF
 897  0034              ;# 897 "e:\x-sense_svn\xp02\xp02\src\main.c" 1
 897  0034              	IF (250000>=2) AND (250000<( 4 + __PBP__ * 2))
 897  0034              ;# 897 "e:\x-sense_svn\xp02\xp02\src\main.c" 1
 897  0034              	NOP
 897  0034              	ENDIF
 897  0034              ;# 897 "e:\x-sense_svn\xp02\xp02\src\main.c" 1
 897  0034              	IF (250000>=3) AND (250000<( 4 + __PBP__ * 2))
 897  0034              ;# 897 "e:\x-sense_svn\xp02\xp02\src\main.c" 1
 897  0034              	NOP
 897  0034              	ENDIF
 897  0034              ;# 897 "e:\x-sense_svn\xp02\xp02\src\main.c" 1
 897  0034              	IF (250000>=4) AND (250000<( 4 + __PBP__ * 2)) AND ( __PBP__ > 0 )
 897  0034              ;# 897 "e:\x-sense_svn\xp02\xp02\src\main.c" 1
 897  0034              	NOP
 897  0034              	ENDIF
 897  0034              ;# 897 "e:\x-sense_svn\xp02\xp02\src\main.c" 1
 897  0034              	IF (250000>=5) AND (250000<( 4 + __PBP__ * 2)) AND ( __PBP__ > 0 )
 897  0034              ;# 897 "e:\x-sense_svn\xp02\xp02\src\main.c" 1
 897  0034              	NOP
 897  0034              	ENDIF
 897  0034              ;# 897 "e:\x-sense_svn\xp02\xp02\src\main.c" 1
 897  0034              	IF (250000>=6) AND (250000<( 4 + __PBP__ * 2))  AND ( __PBP__ > 1 )
 897  0034              ;# 897 "e:\x-sense_svn\xp02\xp02\src\main.c" 1
 897  0034              	NOP
 897  0034              	ENDIF
 897  0034              ;# 897 "e:\x-sense_svn\xp02\xp02\src\main.c" 1
 897  0034              	IF (250000>=7) AND (250000<( 4 + __PBP__ * 2))  AND ( __PBP__ > 1 )
 897  0034              ;# 897 "e:\x-sense_svn\xp02\xp02\src\main.c" 1
 897  0034              	NOP
 897  0034              	ENDIF
 897  0034              ;# 897 "e:\x-sense_svn\xp02\xp02\src\main.c" 1
 897  0034              	IF (250000>=8) AND (250000<( 4 + __PBP__ * 2))  AND ( __PBP__ > 2 )
 897  0034              ;# 897 "e:\x-sense_svn\xp02\xp02\src\main.c" 1
 897  0034              	NOP
 897  0034              	ENDIF
 897  0034              ;# 897 "e:\x-sense_svn\xp02\xp02\src\main.c" 1
 897  0034              	IF (250000==9)  AND ( __PBP__ > 2 )
 897  0034              ;# 897 "e:\x-sense_svn\xp02\xp02\src\main.c" 1
 897  0034              	NOP
 897  0034              	ENDIF
 897  0034              ;# 897 "e:\x-sense_svn\xp02\xp02\src\main.c" 1
 897  0034              	IF (250000< ( 8 + __PBP__ * 2)) AND (250000>( 3 + __PBP__ * 2))
 897  0034              ;# 897 "e:\x-sense_svn\xp02\xp02\src\main.c" 1
 897  0034              	fcall __DELAY3 + ( 7 + __PBP__ * 2) -250000
 897  0034              	ENDIF
 897  0034              ;# 897 "e:\x-sense_svn\xp02\xp02\src\main.c" 1
文件：main.c       编译器版本 HGASM 0202 页次23

 897  0034              	IF (250000< ( 0404h + __PBP__ * 2)) AND (250000>( 7 + __PBP__ * 2))
 897  0034              ;# 897 "e:\x-sense_svn\xp02\xp02\src\main.c" 1
 897  0034              	MOV A,(250000-( 4 + __PBP__ * 2))/4
 897  0034              ;# 897 "e:\x-sense_svn\xp02\xp02\src\main.c" 1
 897  0034              	fcall __DELAYX3 + 3 -((250000-( 4 + __PBP__ * 2)) MOD 4) 
 897  0034              	ENDIF
 897  0034              ;# 897 "e:\x-sense_svn\xp02\xp02\src\main.c" 1
 897  0034              	IF (250000< ( 040bh + __PBP__ * 2)) AND (250000> ( 0403h + __PBP__ * 2))
 897  0034              ;# 897 "e:\x-sense_svn\xp02\xp02\src\main.c" 1
 897  0034              	MOV A,0 
 897  0034              ;# 897 "e:\x-sense_svn\xp02\xp02\src\main.c" 1
 897  0034              	fcall __DELAYX6 + ( 040ah + __PBP__ * 2) -250000
 897  0034              	ENDIF
 897  0034              ;# 897 "e:\x-sense_svn\xp02\xp02\src\main.c" 1
 897  0034              	IF (250000 >= ( 040bh + __PBP__ * 2)) AND ((((250000-( 9 + __PBP__ * 2))%0402h)/4+1)>256)
 897  0034              ;# 897 "e:\x-sense_svn\xp02\xp02\src\main.c" 1
 897  0034              	MOV A,(250000-( 9 + __PBP__ * 2))/0402h
 897  0034              ;# 897 "e:\x-sense_svn\xp02\xp02\src\main.c" 1
 897  0034              	MOV _builtin_holtek_delay_2,A
 897  0034              ;# 897 "e:\x-sense_svn\xp02\xp02\src\main.c" 1
 897  0034              	MOV A,0
 897  0034              ;# 897 "e:\x-sense_svn\xp02\xp02\src\main.c" 1
 897  0034              	fcall __DELAYY5 +5- (((250000-( 9 + __PBP__ * 2))%0402h)%6) 
 897  0034              	ENDIF
 897  0034              ;# 897 "e:\x-sense_svn\xp02\xp02\src\main.c" 1
 897  0034              	IF (250000 >= ( 040bh + __PBP__ * 2)) AND ((((250000-( 9 + __PBP__ * 2))%0402h)/4+1)<=256)
 897  0034              ;# 897 "e:\x-sense_svn\xp02\xp02\src\main.c" 1
 897  0034  0FF3        	MOV A,(250000-( 9 + __PBP__ * 2))/0402h
 897  0035              ;# 897 "e:\x-sense_svn\xp02\xp02\src\main.c" 1
 897  0035  0080     E  	MOV _builtin_holtek_delay_2,A
 897  0036              ;# 897 "e:\x-sense_svn\xp02\xp02\src\main.c" 1
 897  0036  0FA8        	MOV A,((250000-( 9 + __PBP__ * 2))%0402h)/4+1
 897  0037              ;# 897 "e:\x-sense_svn\xp02\xp02\src\main.c" 1
 897  0037              	fcall __DELAYY3 +3-(((250000-( 9 + __PBP__ * 2))%0402h)%4) 
 897  003E              	ENDIF
 898  003E              #line 898 "e:\x-sense_svn\xp02\xp02\src\main.c"
 898  003E              ;# 898 "e:\x-sense_svn\xp02\xp02\src\main.c" 1
 898  003E              	IF 250000>263690
 898  003E              ;# 898 "e:\x-sense_svn\xp02\xp02\src\main.c" 1
 898  003E              	ERRMESSAGE 'the value 250000of the argument exceeds the maxinum 263690'
 898  003E              	ENDIF
 898  003E              ;# 898 "e:\x-sense_svn\xp02\xp02\src\main.c" 1
 898  003E              	IF 250000<0
 898  003E              ;# 898 "e:\x-sense_svn\xp02\xp02\src\main.c" 1
 898  003E              	ERRMESSAGE 'the value 250000 of the argument exceeds the mininum 0'
 898  003E              	ENDIF
 898  003E              ;# 898 "e:\x-sense_svn\xp02\xp02\src\main.c" 1
 898  003E              	IF 250000==0
 898  003E              ;# 898 "e:\x-sense_svn\xp02\xp02\src\main.c" 1
 898  003E              	JMP $
 898  003E              	ENDIF
 898  003E              ;# 898 "e:\x-sense_svn\xp02\xp02\src\main.c" 1
 898  003E              	IF (250000>=1) AND (250000<( 4 + __PBP__ * 2))
 898  003E              ;# 898 "e:\x-sense_svn\xp02\xp02\src\main.c" 1
 898  003E              	NOP
 898  003E              	ENDIF
 898  003E              ;# 898 "e:\x-sense_svn\xp02\xp02\src\main.c" 1
 898  003E              	IF (250000>=2) AND (250000<( 4 + __PBP__ * 2))
 898  003E              ;# 898 "e:\x-sense_svn\xp02\xp02\src\main.c" 1
 898  003E              	NOP
文件：main.c       编译器版本 HGASM 0202 页次24

 898  003E              	ENDIF
 898  003E              ;# 898 "e:\x-sense_svn\xp02\xp02\src\main.c" 1
 898  003E              	IF (250000>=3) AND (250000<( 4 + __PBP__ * 2))
 898  003E              ;# 898 "e:\x-sense_svn\xp02\xp02\src\main.c" 1
 898  003E              	NOP
 898  003E              	ENDIF
 898  003E              ;# 898 "e:\x-sense_svn\xp02\xp02\src\main.c" 1
 898  003E              	IF (250000>=4) AND (250000<( 4 + __PBP__ * 2)) AND ( __PBP__ > 0 )
 898  003E              ;# 898 "e:\x-sense_svn\xp02\xp02\src\main.c" 1
 898  003E              	NOP
 898  003E              	ENDIF
 898  003E              ;# 898 "e:\x-sense_svn\xp02\xp02\src\main.c" 1
 898  003E              	IF (250000>=5) AND (250000<( 4 + __PBP__ * 2)) AND ( __PBP__ > 0 )
 898  003E              ;# 898 "e:\x-sense_svn\xp02\xp02\src\main.c" 1
 898  003E              	NOP
 898  003E              	ENDIF
 898  003E              ;# 898 "e:\x-sense_svn\xp02\xp02\src\main.c" 1
 898  003E              	IF (250000>=6) AND (250000<( 4 + __PBP__ * 2))  AND ( __PBP__ > 1 )
 898  003E              ;# 898 "e:\x-sense_svn\xp02\xp02\src\main.c" 1
 898  003E              	NOP
 898  003E              	ENDIF
 898  003E              ;# 898 "e:\x-sense_svn\xp02\xp02\src\main.c" 1
 898  003E              	IF (250000>=7) AND (250000<( 4 + __PBP__ * 2))  AND ( __PBP__ > 1 )
 898  003E              ;# 898 "e:\x-sense_svn\xp02\xp02\src\main.c" 1
 898  003E              	NOP
 898  003E              	ENDIF
 898  003E              ;# 898 "e:\x-sense_svn\xp02\xp02\src\main.c" 1
 898  003E              	IF (250000>=8) AND (250000<( 4 + __PBP__ * 2))  AND ( __PBP__ > 2 )
 898  003E              ;# 898 "e:\x-sense_svn\xp02\xp02\src\main.c" 1
 898  003E              	NOP
 898  003E              	ENDIF
 898  003E              ;# 898 "e:\x-sense_svn\xp02\xp02\src\main.c" 1
 898  003E              	IF (250000==9)  AND ( __PBP__ > 2 )
 898  003E              ;# 898 "e:\x-sense_svn\xp02\xp02\src\main.c" 1
 898  003E              	NOP
 898  003E              	ENDIF
 898  003E              ;# 898 "e:\x-sense_svn\xp02\xp02\src\main.c" 1
 898  003E              	IF (250000< ( 8 + __PBP__ * 2)) AND (250000>( 3 + __PBP__ * 2))
 898  003E              ;# 898 "e:\x-sense_svn\xp02\xp02\src\main.c" 1
 898  003E              	fcall __DELAY3 + ( 7 + __PBP__ * 2) -250000
 898  003E              	ENDIF
 898  003E              ;# 898 "e:\x-sense_svn\xp02\xp02\src\main.c" 1
 898  003E              	IF (250000< ( 0404h + __PBP__ * 2)) AND (250000>( 7 + __PBP__ * 2))
 898  003E              ;# 898 "e:\x-sense_svn\xp02\xp02\src\main.c" 1
 898  003E              	MOV A,(250000-( 4 + __PBP__ * 2))/4
 898  003E              ;# 898 "e:\x-sense_svn\xp02\xp02\src\main.c" 1
 898  003E              	fcall __DELAYX3 + 3 -((250000-( 4 + __PBP__ * 2)) MOD 4) 
 898  003E              	ENDIF
 898  003E              ;# 898 "e:\x-sense_svn\xp02\xp02\src\main.c" 1
 898  003E              	IF (250000< ( 040bh + __PBP__ * 2)) AND (250000> ( 0403h + __PBP__ * 2))
 898  003E              ;# 898 "e:\x-sense_svn\xp02\xp02\src\main.c" 1
 898  003E              	MOV A,0 
 898  003E              ;# 898 "e:\x-sense_svn\xp02\xp02\src\main.c" 1
 898  003E              	fcall __DELAYX6 + ( 040ah + __PBP__ * 2) -250000
 898  003E              	ENDIF
 898  003E              ;# 898 "e:\x-sense_svn\xp02\xp02\src\main.c" 1
 898  003E              	IF (250000 >= ( 040bh + __PBP__ * 2)) AND ((((250000-( 9 + __PBP__ * 2))%0402h)/4+1)>256)
 898  003E              ;# 898 "e:\x-sense_svn\xp02\xp02\src\main.c" 1
 898  003E              	MOV A,(250000-( 9 + __PBP__ * 2))/0402h
 898  003E              ;# 898 "e:\x-sense_svn\xp02\xp02\src\main.c" 1
文件：main.c       编译器版本 HGASM 0202 页次25

 898  003E              	MOV _builtin_holtek_delay_2,A
 898  003E              ;# 898 "e:\x-sense_svn\xp02\xp02\src\main.c" 1
 898  003E              	MOV A,0
 898  003E              ;# 898 "e:\x-sense_svn\xp02\xp02\src\main.c" 1
 898  003E              	fcall __DELAYY5 +5- (((250000-( 9 + __PBP__ * 2))%0402h)%6) 
 898  003E              	ENDIF
 898  003E              ;# 898 "e:\x-sense_svn\xp02\xp02\src\main.c" 1
 898  003E              	IF (250000 >= ( 040bh + __PBP__ * 2)) AND ((((250000-( 9 + __PBP__ * 2))%0402h)/4+1)<=256)
 898  003E              ;# 898 "e:\x-sense_svn\xp02\xp02\src\main.c" 1
 898  003E  0FF3        	MOV A,(250000-( 9 + __PBP__ * 2))/0402h
 898  003F              ;# 898 "e:\x-sense_svn\xp02\xp02\src\main.c" 1
 898  003F  0080     E  	MOV _builtin_holtek_delay_2,A
 898  0040              ;# 898 "e:\x-sense_svn\xp02\xp02\src\main.c" 1
 898  0040  0FA8        	MOV A,((250000-( 9 + __PBP__ * 2))%0402h)/4+1
 898  0041              ;# 898 "e:\x-sense_svn\xp02\xp02\src\main.c" 1
 898  0041              	fcall __DELAYY3 +3-(((250000-( 9 + __PBP__ * 2))%0402h)%4) 
 898  0048              	ENDIF
 899  0048              #line 899 "e:\x-sense_svn\xp02\xp02\src\main.c"
 899  0048  3514        	clr [20].2
 901  0049              #line 901 "e:\x-sense_svn\xp02\xp02\src\main.c"
 901  0049              ;# 901 "e:\x-sense_svn\xp02\xp02\src\main.c" 1
 901  0049  0001        	clr wdt
 902  004A              #line 902 "e:\x-sense_svn\xp02\xp02\src\main.c"
 902  004A              ;# 902 "e:\x-sense_svn\xp02\xp02\src\main.c" 1
 902  004A              	IF 250000>263690
 902  004A              ;# 902 "e:\x-sense_svn\xp02\xp02\src\main.c" 1
 902  004A              	ERRMESSAGE 'the value 250000of the argument exceeds the maxinum 263690'
 902  004A              	ENDIF
 902  004A              ;# 902 "e:\x-sense_svn\xp02\xp02\src\main.c" 1
 902  004A              	IF 250000<0
 902  004A              ;# 902 "e:\x-sense_svn\xp02\xp02\src\main.c" 1
 902  004A              	ERRMESSAGE 'the value 250000 of the argument exceeds the mininum 0'
 902  004A              	ENDIF
 902  004A              ;# 902 "e:\x-sense_svn\xp02\xp02\src\main.c" 1
 902  004A              	IF 250000==0
 902  004A              ;# 902 "e:\x-sense_svn\xp02\xp02\src\main.c" 1
 902  004A              	JMP $
 902  004A              	ENDIF
 902  004A              ;# 902 "e:\x-sense_svn\xp02\xp02\src\main.c" 1
 902  004A              	IF (250000>=1) AND (250000<( 4 + __PBP__ * 2))
 902  004A              ;# 902 "e:\x-sense_svn\xp02\xp02\src\main.c" 1
 902  004A              	NOP
 902  004A              	ENDIF
 902  004A              ;# 902 "e:\x-sense_svn\xp02\xp02\src\main.c" 1
 902  004A              	IF (250000>=2) AND (250000<( 4 + __PBP__ * 2))
 902  004A              ;# 902 "e:\x-sense_svn\xp02\xp02\src\main.c" 1
 902  004A              	NOP
 902  004A              	ENDIF
 902  004A              ;# 902 "e:\x-sense_svn\xp02\xp02\src\main.c" 1
 902  004A              	IF (250000>=3) AND (250000<( 4 + __PBP__ * 2))
 902  004A              ;# 902 "e:\x-sense_svn\xp02\xp02\src\main.c" 1
 902  004A              	NOP
 902  004A              	ENDIF
 902  004A              ;# 902 "e:\x-sense_svn\xp02\xp02\src\main.c" 1
 902  004A              	IF (250000>=4) AND (250000<( 4 + __PBP__ * 2)) AND ( __PBP__ > 0 )
 902  004A              ;# 902 "e:\x-sense_svn\xp02\xp02\src\main.c" 1
 902  004A              	NOP
 902  004A              	ENDIF
 902  004A              ;# 902 "e:\x-sense_svn\xp02\xp02\src\main.c" 1
 902  004A              	IF (250000>=5) AND (250000<( 4 + __PBP__ * 2)) AND ( __PBP__ > 0 )
文件：main.c       编译器版本 HGASM 0202 页次26

 902  004A              ;# 902 "e:\x-sense_svn\xp02\xp02\src\main.c" 1
 902  004A              	NOP
 902  004A              	ENDIF
 902  004A              ;# 902 "e:\x-sense_svn\xp02\xp02\src\main.c" 1
 902  004A              	IF (250000>=6) AND (250000<( 4 + __PBP__ * 2))  AND ( __PBP__ > 1 )
 902  004A              ;# 902 "e:\x-sense_svn\xp02\xp02\src\main.c" 1
 902  004A              	NOP
 902  004A              	ENDIF
 902  004A              ;# 902 "e:\x-sense_svn\xp02\xp02\src\main.c" 1
 902  004A              	IF (250000>=7) AND (250000<( 4 + __PBP__ * 2))  AND ( __PBP__ > 1 )
 902  004A              ;# 902 "e:\x-sense_svn\xp02\xp02\src\main.c" 1
 902  004A              	NOP
 902  004A              	ENDIF
 902  004A              ;# 902 "e:\x-sense_svn\xp02\xp02\src\main.c" 1
 902  004A              	IF (250000>=8) AND (250000<( 4 + __PBP__ * 2))  AND ( __PBP__ > 2 )
 902  004A              ;# 902 "e:\x-sense_svn\xp02\xp02\src\main.c" 1
 902  004A              	NOP
 902  004A              	ENDIF
 902  004A              ;# 902 "e:\x-sense_svn\xp02\xp02\src\main.c" 1
 902  004A              	IF (250000==9)  AND ( __PBP__ > 2 )
 902  004A              ;# 902 "e:\x-sense_svn\xp02\xp02\src\main.c" 1
 902  004A              	NOP
 902  004A              	ENDIF
 902  004A              ;# 902 "e:\x-sense_svn\xp02\xp02\src\main.c" 1
 902  004A              	IF (250000< ( 8 + __PBP__ * 2)) AND (250000>( 3 + __PBP__ * 2))
 902  004A              ;# 902 "e:\x-sense_svn\xp02\xp02\src\main.c" 1
 902  004A              	fcall __DELAY3 + ( 7 + __PBP__ * 2) -250000
 902  004A              	ENDIF
 902  004A              ;# 902 "e:\x-sense_svn\xp02\xp02\src\main.c" 1
 902  004A              	IF (250000< ( 0404h + __PBP__ * 2)) AND (250000>( 7 + __PBP__ * 2))
 902  004A              ;# 902 "e:\x-sense_svn\xp02\xp02\src\main.c" 1
 902  004A              	MOV A,(250000-( 4 + __PBP__ * 2))/4
 902  004A              ;# 902 "e:\x-sense_svn\xp02\xp02\src\main.c" 1
 902  004A              	fcall __DELAYX3 + 3 -((250000-( 4 + __PBP__ * 2)) MOD 4) 
 902  004A              	ENDIF
 902  004A              ;# 902 "e:\x-sense_svn\xp02\xp02\src\main.c" 1
 902  004A              	IF (250000< ( 040bh + __PBP__ * 2)) AND (250000> ( 0403h + __PBP__ * 2))
 902  004A              ;# 902 "e:\x-sense_svn\xp02\xp02\src\main.c" 1
 902  004A              	MOV A,0 
 902  004A              ;# 902 "e:\x-sense_svn\xp02\xp02\src\main.c" 1
 902  004A              	fcall __DELAYX6 + ( 040ah + __PBP__ * 2) -250000
 902  004A              	ENDIF
 902  004A              ;# 902 "e:\x-sense_svn\xp02\xp02\src\main.c" 1
 902  004A              	IF (250000 >= ( 040bh + __PBP__ * 2)) AND ((((250000-( 9 + __PBP__ * 2))%0402h)/4+1)>256)
 902  004A              ;# 902 "e:\x-sense_svn\xp02\xp02\src\main.c" 1
 902  004A              	MOV A,(250000-( 9 + __PBP__ * 2))/0402h
 902  004A              ;# 902 "e:\x-sense_svn\xp02\xp02\src\main.c" 1
 902  004A              	MOV _builtin_holtek_delay_2,A
 902  004A              ;# 902 "e:\x-sense_svn\xp02\xp02\src\main.c" 1
 902  004A              	MOV A,0
 902  004A              ;# 902 "e:\x-sense_svn\xp02\xp02\src\main.c" 1
 902  004A              	fcall __DELAYY5 +5- (((250000-( 9 + __PBP__ * 2))%0402h)%6) 
 902  004A              	ENDIF
 902  004A              ;# 902 "e:\x-sense_svn\xp02\xp02\src\main.c" 1
 902  004A              	IF (250000 >= ( 040bh + __PBP__ * 2)) AND ((((250000-( 9 + __PBP__ * 2))%0402h)/4+1)<=256)
 902  004A              ;# 902 "e:\x-sense_svn\xp02\xp02\src\main.c" 1
 902  004A  0FF3        	MOV A,(250000-( 9 + __PBP__ * 2))/0402h
 902  004B              ;# 902 "e:\x-sense_svn\xp02\xp02\src\main.c" 1
 902  004B  0080     E  	MOV _builtin_holtek_delay_2,A
 902  004C              ;# 902 "e:\x-sense_svn\xp02\xp02\src\main.c" 1
文件：main.c       编译器版本 HGASM 0202 页次27

 902  004C  0FA8        	MOV A,((250000-( 9 + __PBP__ * 2))%0402h)/4+1
 902  004D              ;# 902 "e:\x-sense_svn\xp02\xp02\src\main.c" 1
 902  004D              	fcall __DELAYY3 +3-(((250000-( 9 + __PBP__ * 2))%0402h)%4) 
 902  0054              	ENDIF
 903  0054              #line 903 "e:\x-sense_svn\xp02\xp02\src\main.c"
 903  0054              ;# 903 "e:\x-sense_svn\xp02\xp02\src\main.c" 1
 903  0054              	IF 250000>263690
 903  0054              ;# 903 "e:\x-sense_svn\xp02\xp02\src\main.c" 1
 903  0054              	ERRMESSAGE 'the value 250000of the argument exceeds the maxinum 263690'
 903  0054              	ENDIF
 903  0054              ;# 903 "e:\x-sense_svn\xp02\xp02\src\main.c" 1
 903  0054              	IF 250000<0
 903  0054              ;# 903 "e:\x-sense_svn\xp02\xp02\src\main.c" 1
 903  0054              	ERRMESSAGE 'the value 250000 of the argument exceeds the mininum 0'
 903  0054              	ENDIF
 903  0054              ;# 903 "e:\x-sense_svn\xp02\xp02\src\main.c" 1
 903  0054              	IF 250000==0
 903  0054              ;# 903 "e:\x-sense_svn\xp02\xp02\src\main.c" 1
 903  0054              	JMP $
 903  0054              	ENDIF
 903  0054              ;# 903 "e:\x-sense_svn\xp02\xp02\src\main.c" 1
 903  0054              	IF (250000>=1) AND (250000<( 4 + __PBP__ * 2))
 903  0054              ;# 903 "e:\x-sense_svn\xp02\xp02\src\main.c" 1
 903  0054              	NOP
 903  0054              	ENDIF
 903  0054              ;# 903 "e:\x-sense_svn\xp02\xp02\src\main.c" 1
 903  0054              	IF (250000>=2) AND (250000<( 4 + __PBP__ * 2))
 903  0054              ;# 903 "e:\x-sense_svn\xp02\xp02\src\main.c" 1
 903  0054              	NOP
 903  0054              	ENDIF
 903  0054              ;# 903 "e:\x-sense_svn\xp02\xp02\src\main.c" 1
 903  0054              	IF (250000>=3) AND (250000<( 4 + __PBP__ * 2))
 903  0054              ;# 903 "e:\x-sense_svn\xp02\xp02\src\main.c" 1
 903  0054              	NOP
 903  0054              	ENDIF
 903  0054              ;# 903 "e:\x-sense_svn\xp02\xp02\src\main.c" 1
 903  0054              	IF (250000>=4) AND (250000<( 4 + __PBP__ * 2)) AND ( __PBP__ > 0 )
 903  0054              ;# 903 "e:\x-sense_svn\xp02\xp02\src\main.c" 1
 903  0054              	NOP
 903  0054              	ENDIF
 903  0054              ;# 903 "e:\x-sense_svn\xp02\xp02\src\main.c" 1
 903  0054              	IF (250000>=5) AND (250000<( 4 + __PBP__ * 2)) AND ( __PBP__ > 0 )
 903  0054              ;# 903 "e:\x-sense_svn\xp02\xp02\src\main.c" 1
 903  0054              	NOP
 903  0054              	ENDIF
 903  0054              ;# 903 "e:\x-sense_svn\xp02\xp02\src\main.c" 1
 903  0054              	IF (250000>=6) AND (250000<( 4 + __PBP__ * 2))  AND ( __PBP__ > 1 )
 903  0054              ;# 903 "e:\x-sense_svn\xp02\xp02\src\main.c" 1
 903  0054              	NOP
 903  0054              	ENDIF
 903  0054              ;# 903 "e:\x-sense_svn\xp02\xp02\src\main.c" 1
 903  0054              	IF (250000>=7) AND (250000<( 4 + __PBP__ * 2))  AND ( __PBP__ > 1 )
 903  0054              ;# 903 "e:\x-sense_svn\xp02\xp02\src\main.c" 1
 903  0054              	NOP
 903  0054              	ENDIF
 903  0054              ;# 903 "e:\x-sense_svn\xp02\xp02\src\main.c" 1
 903  0054              	IF (250000>=8) AND (250000<( 4 + __PBP__ * 2))  AND ( __PBP__ > 2 )
 903  0054              ;# 903 "e:\x-sense_svn\xp02\xp02\src\main.c" 1
 903  0054              	NOP
 903  0054              	ENDIF
文件：main.c       编译器版本 HGASM 0202 页次28

 903  0054              ;# 903 "e:\x-sense_svn\xp02\xp02\src\main.c" 1
 903  0054              	IF (250000==9)  AND ( __PBP__ > 2 )
 903  0054              ;# 903 "e:\x-sense_svn\xp02\xp02\src\main.c" 1
 903  0054              	NOP
 903  0054              	ENDIF
 903  0054              ;# 903 "e:\x-sense_svn\xp02\xp02\src\main.c" 1
 903  0054              	IF (250000< ( 8 + __PBP__ * 2)) AND (250000>( 3 + __PBP__ * 2))
 903  0054              ;# 903 "e:\x-sense_svn\xp02\xp02\src\main.c" 1
 903  0054              	fcall __DELAY3 + ( 7 + __PBP__ * 2) -250000
 903  0054              	ENDIF
 903  0054              ;# 903 "e:\x-sense_svn\xp02\xp02\src\main.c" 1
 903  0054              	IF (250000< ( 0404h + __PBP__ * 2)) AND (250000>( 7 + __PBP__ * 2))
 903  0054              ;# 903 "e:\x-sense_svn\xp02\xp02\src\main.c" 1
 903  0054              	MOV A,(250000-( 4 + __PBP__ * 2))/4
 903  0054              ;# 903 "e:\x-sense_svn\xp02\xp02\src\main.c" 1
 903  0054              	fcall __DELAYX3 + 3 -((250000-( 4 + __PBP__ * 2)) MOD 4) 
 903  0054              	ENDIF
 903  0054              ;# 903 "e:\x-sense_svn\xp02\xp02\src\main.c" 1
 903  0054              	IF (250000< ( 040bh + __PBP__ * 2)) AND (250000> ( 0403h + __PBP__ * 2))
 903  0054              ;# 903 "e:\x-sense_svn\xp02\xp02\src\main.c" 1
 903  0054              	MOV A,0 
 903  0054              ;# 903 "e:\x-sense_svn\xp02\xp02\src\main.c" 1
 903  0054              	fcall __DELAYX6 + ( 040ah + __PBP__ * 2) -250000
 903  0054              	ENDIF
 903  0054              ;# 903 "e:\x-sense_svn\xp02\xp02\src\main.c" 1
 903  0054              	IF (250000 >= ( 040bh + __PBP__ * 2)) AND ((((250000-( 9 + __PBP__ * 2))%0402h)/4+1)>256)
 903  0054              ;# 903 "e:\x-sense_svn\xp02\xp02\src\main.c" 1
 903  0054              	MOV A,(250000-( 9 + __PBP__ * 2))/0402h
 903  0054              ;# 903 "e:\x-sense_svn\xp02\xp02\src\main.c" 1
 903  0054              	MOV _builtin_holtek_delay_2,A
 903  0054              ;# 903 "e:\x-sense_svn\xp02\xp02\src\main.c" 1
 903  0054              	MOV A,0
 903  0054              ;# 903 "e:\x-sense_svn\xp02\xp02\src\main.c" 1
 903  0054              	fcall __DELAYY5 +5- (((250000-( 9 + __PBP__ * 2))%0402h)%6) 
 903  0054              	ENDIF
 903  0054              ;# 903 "e:\x-sense_svn\xp02\xp02\src\main.c" 1
 903  0054              	IF (250000 >= ( 040bh + __PBP__ * 2)) AND ((((250000-( 9 + __PBP__ * 2))%0402h)/4+1)<=256)
 903  0054              ;# 903 "e:\x-sense_svn\xp02\xp02\src\main.c" 1
 903  0054  0FF3        	MOV A,(250000-( 9 + __PBP__ * 2))/0402h
 903  0055              ;# 903 "e:\x-sense_svn\xp02\xp02\src\main.c" 1
 903  0055  0080     E  	MOV _builtin_holtek_delay_2,A
 903  0056              ;# 903 "e:\x-sense_svn\xp02\xp02\src\main.c" 1
 903  0056  0FA8        	MOV A,((250000-( 9 + __PBP__ * 2))%0402h)/4+1
 903  0057              ;# 903 "e:\x-sense_svn\xp02\xp02\src\main.c" 1
 903  0057              	fcall __DELAYY3 +3-(((250000-( 9 + __PBP__ * 2))%0402h)%4) 
 903  005E              	ENDIF
 903  005E  1780     E  	sdz ra
 903  005F  2800     R  	jmp _L26
 903  0060  0003        	ret
 903  0061              _PowerOnDisplay endp
 903  0061              #line 903 "e:\x-sense_svn\xp02\xp02\src\main.c"
 903  0061              #pragma debug scope 1 1
 903  0061              public _PowerOnWelcomeAndDisplay
 903  0061              #pragma debug scope 8 1
 916  0061              #line 916 "e:\x-sense_svn\xp02\xp02\src\main.c"
 916  0000              _PowerOnWelcomeAndDisplay .section 'code'
 916  0000              _PowerOnWelcomeAndDisplay proc
 917  0000              #line 917 "e:\x-sense_svn\xp02\xp02\src\main.c"
 917  0000  0700     R  	mov a,_SysAO[18]
 917  0001  0500     R  	or a,_SysAO[19]
文件：main.c       编译器版本 HGASM 0202 页次29

 917  0002  390A        	snz z
 917  0003  2800     R  	jmp _L27
 919  0004              #line 919 "e:\x-sense_svn\xp02\xp02\src\main.c"
 919  0004              	fcall _PowerOnDisplay
 921  000B              #line 921 "e:\x-sense_svn\xp02\xp02\src\main.c"
 921  000B  0F01        	mov a,1
 921  000C              	fcall _SpeakerSendCmdForPowerOn
 922  0013              #line 922 "e:\x-sense_svn\xp02\xp02\src\main.c"
 922  0013  0700     E  	mov a,_RfAO[12]
 922  0014  0A17        	sub a,23
 922  0015  390A        	snz z
 922  0016  2800     R  	jmp _L29
 924  0017              #line 924 "e:\x-sense_svn\xp02\xp02\src\main.c"
 924  0017  0F02        	mov a,2
 924  0018  2800     R  	jmp _L30
 924  0019              _L29:
 928  0019              #line 928 "e:\x-sense_svn\xp02\xp02\src\main.c"
 928  0019  0F03        	mov a,3
 928  001A              _L30:
 928  001A              	fcall _SpeakerSendCmdForPowerOn
 928  0021              _L27:
 928  0021  0003        	ret
 928  0022              _PowerOnWelcomeAndDisplay endp
 928  0022              #line 928 "e:\x-sense_svn\xp02\xp02\src\main.c"
 928  0022              #pragma debug scope 1 1
 928  0022              public _CailRes
 928  0022              #pragma debug scope 9 1
 942  0022              #line 942 "e:\x-sense_svn\xp02\xp02\src\main.c"
 942  0000              _CailRes .section 'code'
 942  0000              _CailRes proc
 942  0000              public _CailRes_2
 942  0000  0003[           local _CailRes_2 db 3 dup(?)	; 2,1
            00
            ]
 942  0000  0080     R  	mov _CailRes_2[2],a
 942  0001              #pragma debug variable 8 9 _CailRes_2+2 "Res"
 942  0001              #pragma debug variable 12 9 _CailRes_2+0 "eStep"
 944  0001              #line 944 "e:\x-sense_svn\xp02\xp02\src\main.c"
 944  0001  3618        	clr [24].4
 945  0002              #line 945 "e:\x-sense_svn\xp02\xp02\src\main.c"
 945  0002  3514        	clr [20].2
 947  0003              #line 947 "e:\x-sense_svn\xp02\xp02\src\main.c"
 947  0003  0F07        	mov a,7
 947  0004  0080     E  	mov _PwrAO[11],a
 948  0005              #line 948 "e:\x-sense_svn\xp02\xp02\src\main.c"
 948  0005              	fcall _EnteryLowPower
 949  000C              #line 949 "e:\x-sense_svn\xp02\xp02\src\main.c"
 949  000C              ;# 949 "e:\x-sense_svn\xp02\xp02\src\main.c" 1
 949  000C  0001        	clr wdt
 950  000D              #line 950 "e:\x-sense_svn\xp02\xp02\src\main.c"
 950  000D  1E00     R  	snz _CailRes_2[2]
 950  000E  2800     R  	jmp _L32
 950  000F              #line 950 "e:\x-sense_svn\xp02\xp02\src\main.c"
 950  000F  1F00     E  	clr ra
 950  0010  2800     R  	jmp _L33
 950  0011              _L32:
 952  0011              #line 952 "e:\x-sense_svn\xp02\xp02\src\main.c"
 952  0011  0700     R  	mov a,_CailRes_2[0]
 952  0012  0C01        	xor a,1
 952  0013  0500     R  	or a,_CailRes_2[1]
文件：main.c       编译器版本 HGASM 0202 页次30

 952  0014  3D0A        	sz z
 952  0015  2800     R  	jmp _L45
 952  0016  0700     R  	mov a,_CailRes_2[0]
 952  0017  0C02        	xor a,2
 952  0018  0500     R  	or a,_CailRes_2[1]
 952  0019  3D0A        	sz z
 952  001A  2800     R  	jmp _L36
 952  001B  0700     R  	mov a,_CailRes_2[0]
 952  001C  0C03        	xor a,3
 952  001D  0500     R  	or a,_CailRes_2[1]
 952  001E  3D0A        	sz z
 952  001F  2800     R  	jmp _L37
 952  0020  0700     R  	mov a,_CailRes_2[0]
 952  0021  0C04        	xor a,4
 952  0022  0500     R  	or a,_CailRes_2[1]
 952  0023  3D0A        	sz z
 952  0024  2800     R  	jmp _L38
 952  0025  0700     R  	mov a,_CailRes_2[0]
 952  0026  0C05        	xor a,5
 952  0027  0500     R  	or a,_CailRes_2[1]
 952  0028  3D0A        	sz z
 952  0029  2800     R  	jmp _L39
 952  002A  0700     R  	mov a,_CailRes_2[0]
 952  002B  0C06        	xor a,6
 952  002C  0500     R  	or a,_CailRes_2[1]
 952  002D  390A        	snz z
 952  002E  2800     R  	jmp _L31
1010  002F              #line 1010 "e:\x-sense_svn\xp02\xp02\src\main.c"
1010  002F  3114        	set [20].2
1011  0030              #line 1011 "e:\x-sense_svn\xp02\xp02\src\main.c"
1011  0030              ;# 1011 "e:\x-sense_svn\xp02\xp02\src\main.c" 1
1011  0030              	IF 50000>263690
1011  0030              ;# 1011 "e:\x-sense_svn\xp02\xp02\src\main.c" 1
1011  0030              	ERRMESSAGE 'the value 50000of the argument exceeds the maxinum 263690'
1011  0030              	ENDIF
1011  0030              ;# 1011 "e:\x-sense_svn\xp02\xp02\src\main.c" 1
1011  0030              	IF 50000<0
1011  0030              ;# 1011 "e:\x-sense_svn\xp02\xp02\src\main.c" 1
1011  0030              	ERRMESSAGE 'the value 50000 of the argument exceeds the mininum 0'
1011  0030              	ENDIF
1011  0030              ;# 1011 "e:\x-sense_svn\xp02\xp02\src\main.c" 1
1011  0030              	IF 50000==0
1011  0030              ;# 1011 "e:\x-sense_svn\xp02\xp02\src\main.c" 1
1011  0030              	JMP $
1011  0030              	ENDIF
1011  0030              ;# 1011 "e:\x-sense_svn\xp02\xp02\src\main.c" 1
1011  0030              	IF (50000>=1) AND (50000<( 4 + __PBP__ * 2))
1011  0030              ;# 1011 "e:\x-sense_svn\xp02\xp02\src\main.c" 1
1011  0030              	NOP
1011  0030              	ENDIF
1011  0030              ;# 1011 "e:\x-sense_svn\xp02\xp02\src\main.c" 1
1011  0030              	IF (50000>=2) AND (50000<( 4 + __PBP__ * 2))
1011  0030              ;# 1011 "e:\x-sense_svn\xp02\xp02\src\main.c" 1
1011  0030              	NOP
1011  0030              	ENDIF
1011  0030              ;# 1011 "e:\x-sense_svn\xp02\xp02\src\main.c" 1
1011  0030              	IF (50000>=3) AND (50000<( 4 + __PBP__ * 2))
1011  0030              ;# 1011 "e:\x-sense_svn\xp02\xp02\src\main.c" 1
1011  0030              	NOP
1011  0030              	ENDIF
文件：main.c       编译器版本 HGASM 0202 页次31

1011  0030              ;# 1011 "e:\x-sense_svn\xp02\xp02\src\main.c" 1
1011  0030              	IF (50000>=4) AND (50000<( 4 + __PBP__ * 2)) AND ( __PBP__ > 0 )
1011  0030              ;# 1011 "e:\x-sense_svn\xp02\xp02\src\main.c" 1
1011  0030              	NOP
1011  0030              	ENDIF
1011  0030              ;# 1011 "e:\x-sense_svn\xp02\xp02\src\main.c" 1
1011  0030              	IF (50000>=5) AND (50000<( 4 + __PBP__ * 2)) AND ( __PBP__ > 0 )
1011  0030              ;# 1011 "e:\x-sense_svn\xp02\xp02\src\main.c" 1
1011  0030              	NOP
1011  0030              	ENDIF
1011  0030              ;# 1011 "e:\x-sense_svn\xp02\xp02\src\main.c" 1
1011  0030              	IF (50000>=6) AND (50000<( 4 + __PBP__ * 2))  AND ( __PBP__ > 1 )
1011  0030              ;# 1011 "e:\x-sense_svn\xp02\xp02\src\main.c" 1
1011  0030              	NOP
1011  0030              	ENDIF
1011  0030              ;# 1011 "e:\x-sense_svn\xp02\xp02\src\main.c" 1
1011  0030              	IF (50000>=7) AND (50000<( 4 + __PBP__ * 2))  AND ( __PBP__ > 1 )
1011  0030              ;# 1011 "e:\x-sense_svn\xp02\xp02\src\main.c" 1
1011  0030              	NOP
1011  0030              	ENDIF
1011  0030              ;# 1011 "e:\x-sense_svn\xp02\xp02\src\main.c" 1
1011  0030              	IF (50000>=8) AND (50000<( 4 + __PBP__ * 2))  AND ( __PBP__ > 2 )
1011  0030              ;# 1011 "e:\x-sense_svn\xp02\xp02\src\main.c" 1
1011  0030              	NOP
1011  0030              	ENDIF
1011  0030              ;# 1011 "e:\x-sense_svn\xp02\xp02\src\main.c" 1
1011  0030              	IF (50000==9)  AND ( __PBP__ > 2 )
1011  0030              ;# 1011 "e:\x-sense_svn\xp02\xp02\src\main.c" 1
1011  0030              	NOP
1011  0030              	ENDIF
1011  0030              ;# 1011 "e:\x-sense_svn\xp02\xp02\src\main.c" 1
1011  0030              	IF (50000< ( 8 + __PBP__ * 2)) AND (50000>( 3 + __PBP__ * 2))
1011  0030              ;# 1011 "e:\x-sense_svn\xp02\xp02\src\main.c" 1
1011  0030              	fcall __DELAY3 + ( 7 + __PBP__ * 2) -50000
1011  0030              	ENDIF
1011  0030              ;# 1011 "e:\x-sense_svn\xp02\xp02\src\main.c" 1
1011  0030              	IF (50000< ( 0404h + __PBP__ * 2)) AND (50000>( 7 + __PBP__ * 2))
1011  0030              ;# 1011 "e:\x-sense_svn\xp02\xp02\src\main.c" 1
1011  0030              	MOV A,(50000-( 4 + __PBP__ * 2))/4
1011  0030              ;# 1011 "e:\x-sense_svn\xp02\xp02\src\main.c" 1
1011  0030              	fcall __DELAYX3 + 3 -((50000-( 4 + __PBP__ * 2)) MOD 4) 
1011  0030              	ENDIF
1011  0030              ;# 1011 "e:\x-sense_svn\xp02\xp02\src\main.c" 1
1011  0030              	IF (50000< ( 040bh + __PBP__ * 2)) AND (50000> ( 0403h + __PBP__ * 2))
1011  0030              ;# 1011 "e:\x-sense_svn\xp02\xp02\src\main.c" 1
1011  0030              	MOV A,0 
1011  0030              ;# 1011 "e:\x-sense_svn\xp02\xp02\src\main.c" 1
1011  0030              	fcall __DELAYX6 + ( 040ah + __PBP__ * 2) -50000
1011  0030              	ENDIF
1011  0030              ;# 1011 "e:\x-sense_svn\xp02\xp02\src\main.c" 1
1011  0030              	IF (50000 >= ( 040bh + __PBP__ * 2)) AND ((((50000-( 9 + __PBP__ * 2))%0402h)/4+1)>256)
1011  0030              ;# 1011 "e:\x-sense_svn\xp02\xp02\src\main.c" 1
1011  0030              	MOV A,(50000-( 9 + __PBP__ * 2))/0402h
1011  0030              ;# 1011 "e:\x-sense_svn\xp02\xp02\src\main.c" 1
1011  0030              	MOV _builtin_holtek_delay_2,A
1011  0030              ;# 1011 "e:\x-sense_svn\xp02\xp02\src\main.c" 1
1011  0030              	MOV A,0
1011  0030              ;# 1011 "e:\x-sense_svn\xp02\xp02\src\main.c" 1
1011  0030              	fcall __DELAYY5 +5- (((50000-( 9 + __PBP__ * 2))%0402h)%6) 
1011  0030              	ENDIF
文件：main.c       编译器版本 HGASM 0202 页次32

1011  0030              ;# 1011 "e:\x-sense_svn\xp02\xp02\src\main.c" 1
1011  0030              	IF (50000 >= ( 040bh + __PBP__ * 2)) AND ((((50000-( 9 + __PBP__ * 2))%0402h)/4+1)<=256)
1011  0030              ;# 1011 "e:\x-sense_svn\xp02\xp02\src\main.c" 1
1011  0030  0F30        	MOV A,(50000-( 9 + __PBP__ * 2))/0402h
1011  0031              ;# 1011 "e:\x-sense_svn\xp02\xp02\src\main.c" 1
1011  0031  0080     E  	MOV _builtin_holtek_delay_2,A
1011  0032              ;# 1011 "e:\x-sense_svn\xp02\xp02\src\main.c" 1
1011  0032  0FBA        	MOV A,((50000-( 9 + __PBP__ * 2))%0402h)/4+1
1011  0033              ;# 1011 "e:\x-sense_svn\xp02\xp02\src\main.c" 1
1011  0033              	fcall __DELAYY3 +3-(((50000-( 9 + __PBP__ * 2))%0402h)%4) 
1011  003A              	ENDIF
1012  003A              #line 1012 "e:\x-sense_svn\xp02\xp02\src\main.c"
1012  003A  3514        	clr [20].2
1013  003B              #line 1013 "e:\x-sense_svn\xp02\xp02\src\main.c"
1013  003B              ;# 1013 "e:\x-sense_svn\xp02\xp02\src\main.c" 1
1013  003B              	IF 150000>263690
1013  003B              ;# 1013 "e:\x-sense_svn\xp02\xp02\src\main.c" 1
1013  003B              	ERRMESSAGE 'the value 150000of the argument exceeds the maxinum 263690'
1013  003B              	ENDIF
1013  003B              ;# 1013 "e:\x-sense_svn\xp02\xp02\src\main.c" 1
1013  003B              	IF 150000<0
1013  003B              ;# 1013 "e:\x-sense_svn\xp02\xp02\src\main.c" 1
1013  003B              	ERRMESSAGE 'the value 150000 of the argument exceeds the mininum 0'
1013  003B              	ENDIF
1013  003B              ;# 1013 "e:\x-sense_svn\xp02\xp02\src\main.c" 1
1013  003B              	IF 150000==0
1013  003B              ;# 1013 "e:\x-sense_svn\xp02\xp02\src\main.c" 1
1013  003B              	JMP $
1013  003B              	ENDIF
1013  003B              ;# 1013 "e:\x-sense_svn\xp02\xp02\src\main.c" 1
1013  003B              	IF (150000>=1) AND (150000<( 4 + __PBP__ * 2))
1013  003B              ;# 1013 "e:\x-sense_svn\xp02\xp02\src\main.c" 1
1013  003B              	NOP
1013  003B              	ENDIF
1013  003B              ;# 1013 "e:\x-sense_svn\xp02\xp02\src\main.c" 1
1013  003B              	IF (150000>=2) AND (150000<( 4 + __PBP__ * 2))
1013  003B              ;# 1013 "e:\x-sense_svn\xp02\xp02\src\main.c" 1
1013  003B              	NOP
1013  003B              	ENDIF
1013  003B              ;# 1013 "e:\x-sense_svn\xp02\xp02\src\main.c" 1
1013  003B              	IF (150000>=3) AND (150000<( 4 + __PBP__ * 2))
1013  003B              ;# 1013 "e:\x-sense_svn\xp02\xp02\src\main.c" 1
1013  003B              	NOP
1013  003B              	ENDIF
1013  003B              ;# 1013 "e:\x-sense_svn\xp02\xp02\src\main.c" 1
1013  003B              	IF (150000>=4) AND (150000<( 4 + __PBP__ * 2)) AND ( __PBP__ > 0 )
1013  003B              ;# 1013 "e:\x-sense_svn\xp02\xp02\src\main.c" 1
1013  003B              	NOP
1013  003B              	ENDIF
1013  003B              ;# 1013 "e:\x-sense_svn\xp02\xp02\src\main.c" 1
1013  003B              	IF (150000>=5) AND (150000<( 4 + __PBP__ * 2)) AND ( __PBP__ > 0 )
1013  003B              ;# 1013 "e:\x-sense_svn\xp02\xp02\src\main.c" 1
1013  003B              	NOP
1013  003B              	ENDIF
1013  003B              ;# 1013 "e:\x-sense_svn\xp02\xp02\src\main.c" 1
1013  003B              	IF (150000>=6) AND (150000<( 4 + __PBP__ * 2))  AND ( __PBP__ > 1 )
1013  003B              ;# 1013 "e:\x-sense_svn\xp02\xp02\src\main.c" 1
1013  003B              	NOP
1013  003B              	ENDIF
1013  003B              ;# 1013 "e:\x-sense_svn\xp02\xp02\src\main.c" 1
文件：main.c       编译器版本 HGASM 0202 页次33

1013  003B              	IF (150000>=7) AND (150000<( 4 + __PBP__ * 2))  AND ( __PBP__ > 1 )
1013  003B              ;# 1013 "e:\x-sense_svn\xp02\xp02\src\main.c" 1
1013  003B              	NOP
1013  003B              	ENDIF
1013  003B              ;# 1013 "e:\x-sense_svn\xp02\xp02\src\main.c" 1
1013  003B              	IF (150000>=8) AND (150000<( 4 + __PBP__ * 2))  AND ( __PBP__ > 2 )
1013  003B              ;# 1013 "e:\x-sense_svn\xp02\xp02\src\main.c" 1
1013  003B              	NOP
1013  003B              	ENDIF
1013  003B              ;# 1013 "e:\x-sense_svn\xp02\xp02\src\main.c" 1
1013  003B              	IF (150000==9)  AND ( __PBP__ > 2 )
1013  003B              ;# 1013 "e:\x-sense_svn\xp02\xp02\src\main.c" 1
1013  003B              	NOP
1013  003B              	ENDIF
1013  003B              ;# 1013 "e:\x-sense_svn\xp02\xp02\src\main.c" 1
1013  003B              	IF (150000< ( 8 + __PBP__ * 2)) AND (150000>( 3 + __PBP__ * 2))
1013  003B              ;# 1013 "e:\x-sense_svn\xp02\xp02\src\main.c" 1
1013  003B              	fcall __DELAY3 + ( 7 + __PBP__ * 2) -150000
1013  003B              	ENDIF
1013  003B              ;# 1013 "e:\x-sense_svn\xp02\xp02\src\main.c" 1
1013  003B              	IF (150000< ( 0404h + __PBP__ * 2)) AND (150000>( 7 + __PBP__ * 2))
1013  003B              ;# 1013 "e:\x-sense_svn\xp02\xp02\src\main.c" 1
1013  003B              	MOV A,(150000-( 4 + __PBP__ * 2))/4
1013  003B              ;# 1013 "e:\x-sense_svn\xp02\xp02\src\main.c" 1
1013  003B              	fcall __DELAYX3 + 3 -((150000-( 4 + __PBP__ * 2)) MOD 4) 
1013  003B              	ENDIF
1013  003B              ;# 1013 "e:\x-sense_svn\xp02\xp02\src\main.c" 1
1013  003B              	IF (150000< ( 040bh + __PBP__ * 2)) AND (150000> ( 0403h + __PBP__ * 2))
1013  003B              ;# 1013 "e:\x-sense_svn\xp02\xp02\src\main.c" 1
1013  003B              	MOV A,0 
1013  003B              ;# 1013 "e:\x-sense_svn\xp02\xp02\src\main.c" 1
1013  003B              	fcall __DELAYX6 + ( 040ah + __PBP__ * 2) -150000
1013  003B              	ENDIF
1013  003B              ;# 1013 "e:\x-sense_svn\xp02\xp02\src\main.c" 1
1013  003B              	IF (150000 >= ( 040bh + __PBP__ * 2)) AND ((((150000-( 9 + __PBP__ * 2))%0402h)/4+1)>256)
1013  003B              ;# 1013 "e:\x-sense_svn\xp02\xp02\src\main.c" 1
1013  003B              	MOV A,(150000-( 9 + __PBP__ * 2))/0402h
1013  003B              ;# 1013 "e:\x-sense_svn\xp02\xp02\src\main.c" 1
1013  003B              	MOV _builtin_holtek_delay_2,A
1013  003B              ;# 1013 "e:\x-sense_svn\xp02\xp02\src\main.c" 1
1013  003B              	MOV A,0
1013  003B              ;# 1013 "e:\x-sense_svn\xp02\xp02\src\main.c" 1
1013  003B              	fcall __DELAYY5 +5- (((150000-( 9 + __PBP__ * 2))%0402h)%6) 
1013  003B              	ENDIF
1013  003B              ;# 1013 "e:\x-sense_svn\xp02\xp02\src\main.c" 1
1013  003B              	IF (150000 >= ( 040bh + __PBP__ * 2)) AND ((((150000-( 9 + __PBP__ * 2))%0402h)/4+1)<=256)
1013  003B              ;# 1013 "e:\x-sense_svn\xp02\xp02\src\main.c" 1
1013  003B  0F92        	MOV A,(150000-( 9 + __PBP__ * 2))/0402h
1013  003C              ;# 1013 "e:\x-sense_svn\xp02\xp02\src\main.c" 1
1013  003C  0080     E  	MOV _builtin_holtek_delay_2,A
1013  003D              ;# 1013 "e:\x-sense_svn\xp02\xp02\src\main.c" 1
1013  003D  0F31        	MOV A,((150000-( 9 + __PBP__ * 2))%0402h)/4+1
1013  003E              ;# 1013 "e:\x-sense_svn\xp02\xp02\src\main.c" 1
1013  003E              	fcall __DELAYY3 +3-(((150000-( 9 + __PBP__ * 2))%0402h)%4) 
1013  0045              	ENDIF
1014  0045              #line 1014 "e:\x-sense_svn\xp02\xp02\src\main.c"
1014  0045              ;# 1014 "e:\x-sense_svn\xp02\xp02\src\main.c" 1
1014  0045              	IF 150000>263690
1014  0045              ;# 1014 "e:\x-sense_svn\xp02\xp02\src\main.c" 1
1014  0045              	ERRMESSAGE 'the value 150000of the argument exceeds the maxinum 263690'
文件：main.c       编译器版本 HGASM 0202 页次34

1014  0045              	ENDIF
1014  0045              ;# 1014 "e:\x-sense_svn\xp02\xp02\src\main.c" 1
1014  0045              	IF 150000<0
1014  0045              ;# 1014 "e:\x-sense_svn\xp02\xp02\src\main.c" 1
1014  0045              	ERRMESSAGE 'the value 150000 of the argument exceeds the mininum 0'
1014  0045              	ENDIF
1014  0045              ;# 1014 "e:\x-sense_svn\xp02\xp02\src\main.c" 1
1014  0045              	IF 150000==0
1014  0045              ;# 1014 "e:\x-sense_svn\xp02\xp02\src\main.c" 1
1014  0045              	JMP $
1014  0045              	ENDIF
1014  0045              ;# 1014 "e:\x-sense_svn\xp02\xp02\src\main.c" 1
1014  0045              	IF (150000>=1) AND (150000<( 4 + __PBP__ * 2))
1014  0045              ;# 1014 "e:\x-sense_svn\xp02\xp02\src\main.c" 1
1014  0045              	NOP
1014  0045              	ENDIF
1014  0045              ;# 1014 "e:\x-sense_svn\xp02\xp02\src\main.c" 1
1014  0045              	IF (150000>=2) AND (150000<( 4 + __PBP__ * 2))
1014  0045              ;# 1014 "e:\x-sense_svn\xp02\xp02\src\main.c" 1
1014  0045              	NOP
1014  0045              	ENDIF
1014  0045              ;# 1014 "e:\x-sense_svn\xp02\xp02\src\main.c" 1
1014  0045              	IF (150000>=3) AND (150000<( 4 + __PBP__ * 2))
1014  0045              ;# 1014 "e:\x-sense_svn\xp02\xp02\src\main.c" 1
1014  0045              	NOP
1014  0045              	ENDIF
1014  0045              ;# 1014 "e:\x-sense_svn\xp02\xp02\src\main.c" 1
1014  0045              	IF (150000>=4) AND (150000<( 4 + __PBP__ * 2)) AND ( __PBP__ > 0 )
1014  0045              ;# 1014 "e:\x-sense_svn\xp02\xp02\src\main.c" 1
1014  0045              	NOP
1014  0045              	ENDIF
1014  0045              ;# 1014 "e:\x-sense_svn\xp02\xp02\src\main.c" 1
1014  0045              	IF (150000>=5) AND (150000<( 4 + __PBP__ * 2)) AND ( __PBP__ > 0 )
1014  0045              ;# 1014 "e:\x-sense_svn\xp02\xp02\src\main.c" 1
1014  0045              	NOP
1014  0045              	ENDIF
1014  0045              ;# 1014 "e:\x-sense_svn\xp02\xp02\src\main.c" 1
1014  0045              	IF (150000>=6) AND (150000<( 4 + __PBP__ * 2))  AND ( __PBP__ > 1 )
1014  0045              ;# 1014 "e:\x-sense_svn\xp02\xp02\src\main.c" 1
1014  0045              	NOP
1014  0045              	ENDIF
1014  0045              ;# 1014 "e:\x-sense_svn\xp02\xp02\src\main.c" 1
1014  0045              	IF (150000>=7) AND (150000<( 4 + __PBP__ * 2))  AND ( __PBP__ > 1 )
1014  0045              ;# 1014 "e:\x-sense_svn\xp02\xp02\src\main.c" 1
1014  0045              	NOP
1014  0045              	ENDIF
1014  0045              ;# 1014 "e:\x-sense_svn\xp02\xp02\src\main.c" 1
1014  0045              	IF (150000>=8) AND (150000<( 4 + __PBP__ * 2))  AND ( __PBP__ > 2 )
1014  0045              ;# 1014 "e:\x-sense_svn\xp02\xp02\src\main.c" 1
1014  0045              	NOP
1014  0045              	ENDIF
1014  0045              ;# 1014 "e:\x-sense_svn\xp02\xp02\src\main.c" 1
1014  0045              	IF (150000==9)  AND ( __PBP__ > 2 )
1014  0045              ;# 1014 "e:\x-sense_svn\xp02\xp02\src\main.c" 1
1014  0045              	NOP
1014  0045              	ENDIF
1014  0045              ;# 1014 "e:\x-sense_svn\xp02\xp02\src\main.c" 1
1014  0045              	IF (150000< ( 8 + __PBP__ * 2)) AND (150000>( 3 + __PBP__ * 2))
1014  0045              ;# 1014 "e:\x-sense_svn\xp02\xp02\src\main.c" 1
1014  0045              	fcall __DELAY3 + ( 7 + __PBP__ * 2) -150000
文件：main.c       编译器版本 HGASM 0202 页次35

1014  0045              	ENDIF
1014  0045              ;# 1014 "e:\x-sense_svn\xp02\xp02\src\main.c" 1
1014  0045              	IF (150000< ( 0404h + __PBP__ * 2)) AND (150000>( 7 + __PBP__ * 2))
1014  0045              ;# 1014 "e:\x-sense_svn\xp02\xp02\src\main.c" 1
1014  0045              	MOV A,(150000-( 4 + __PBP__ * 2))/4
1014  0045              ;# 1014 "e:\x-sense_svn\xp02\xp02\src\main.c" 1
1014  0045              	fcall __DELAYX3 + 3 -((150000-( 4 + __PBP__ * 2)) MOD 4) 
1014  0045              	ENDIF
1014  0045              ;# 1014 "e:\x-sense_svn\xp02\xp02\src\main.c" 1
1014  0045              	IF (150000< ( 040bh + __PBP__ * 2)) AND (150000> ( 0403h + __PBP__ * 2))
1014  0045              ;# 1014 "e:\x-sense_svn\xp02\xp02\src\main.c" 1
1014  0045              	MOV A,0 
1014  0045              ;# 1014 "e:\x-sense_svn\xp02\xp02\src\main.c" 1
1014  0045              	fcall __DELAYX6 + ( 040ah + __PBP__ * 2) -150000
1014  0045              	ENDIF
1014  0045              ;# 1014 "e:\x-sense_svn\xp02\xp02\src\main.c" 1
1014  0045              	IF (150000 >= ( 040bh + __PBP__ * 2)) AND ((((150000-( 9 + __PBP__ * 2))%0402h)/4+1)>256)
1014  0045              ;# 1014 "e:\x-sense_svn\xp02\xp02\src\main.c" 1
1014  0045              	MOV A,(150000-( 9 + __PBP__ * 2))/0402h
1014  0045              ;# 1014 "e:\x-sense_svn\xp02\xp02\src\main.c" 1
1014  0045              	MOV _builtin_holtek_delay_2,A
1014  0045              ;# 1014 "e:\x-sense_svn\xp02\xp02\src\main.c" 1
1014  0045              	MOV A,0
1014  0045              ;# 1014 "e:\x-sense_svn\xp02\xp02\src\main.c" 1
1014  0045              	fcall __DELAYY5 +5- (((150000-( 9 + __PBP__ * 2))%0402h)%6) 
1014  0045              	ENDIF
1014  0045              ;# 1014 "e:\x-sense_svn\xp02\xp02\src\main.c" 1
1014  0045              	IF (150000 >= ( 040bh + __PBP__ * 2)) AND ((((150000-( 9 + __PBP__ * 2))%0402h)/4+1)<=256)
1014  0045              ;# 1014 "e:\x-sense_svn\xp02\xp02\src\main.c" 1
1014  0045  0F92        	MOV A,(150000-( 9 + __PBP__ * 2))/0402h
1014  0046              ;# 1014 "e:\x-sense_svn\xp02\xp02\src\main.c" 1
1014  0046  0080     E  	MOV _builtin_holtek_delay_2,A
1014  0047              ;# 1014 "e:\x-sense_svn\xp02\xp02\src\main.c" 1
1014  0047  0F31        	MOV A,((150000-( 9 + __PBP__ * 2))%0402h)/4+1
1014  0048              ;# 1014 "e:\x-sense_svn\xp02\xp02\src\main.c" 1
1014  0048              	fcall __DELAYY3 +3-(((150000-( 9 + __PBP__ * 2))%0402h)%4) 
1014  004F              	ENDIF
1014  004F  2800     R  	jmp _L45
1014  0050              _L36:
 966  0050              #line 966 "e:\x-sense_svn\xp02\xp02\src\main.c"
 966  0050  3218        	set [24].4
 967  0051              #line 967 "e:\x-sense_svn\xp02\xp02\src\main.c"
 967  0051              ;# 967 "e:\x-sense_svn\xp02\xp02\src\main.c" 1
 967  0051              	IF 50000>263690
 967  0051              ;# 967 "e:\x-sense_svn\xp02\xp02\src\main.c" 1
 967  0051              	ERRMESSAGE 'the value 50000of the argument exceeds the maxinum 263690'
 967  0051              	ENDIF
 967  0051              ;# 967 "e:\x-sense_svn\xp02\xp02\src\main.c" 1
 967  0051              	IF 50000<0
 967  0051              ;# 967 "e:\x-sense_svn\xp02\xp02\src\main.c" 1
 967  0051              	ERRMESSAGE 'the value 50000 of the argument exceeds the mininum 0'
 967  0051              	ENDIF
 967  0051              ;# 967 "e:\x-sense_svn\xp02\xp02\src\main.c" 1
 967  0051              	IF 50000==0
 967  0051              ;# 967 "e:\x-sense_svn\xp02\xp02\src\main.c" 1
 967  0051              	JMP $
 967  0051              	ENDIF
 967  0051              ;# 967 "e:\x-sense_svn\xp02\xp02\src\main.c" 1
 967  0051              	IF (50000>=1) AND (50000<( 4 + __PBP__ * 2))
 967  0051              ;# 967 "e:\x-sense_svn\xp02\xp02\src\main.c" 1
文件：main.c       编译器版本 HGASM 0202 页次36

 967  0051              	NOP
 967  0051              	ENDIF
 967  0051              ;# 967 "e:\x-sense_svn\xp02\xp02\src\main.c" 1
 967  0051              	IF (50000>=2) AND (50000<( 4 + __PBP__ * 2))
 967  0051              ;# 967 "e:\x-sense_svn\xp02\xp02\src\main.c" 1
 967  0051              	NOP
 967  0051              	ENDIF
 967  0051              ;# 967 "e:\x-sense_svn\xp02\xp02\src\main.c" 1
 967  0051              	IF (50000>=3) AND (50000<( 4 + __PBP__ * 2))
 967  0051              ;# 967 "e:\x-sense_svn\xp02\xp02\src\main.c" 1
 967  0051              	NOP
 967  0051              	ENDIF
 967  0051              ;# 967 "e:\x-sense_svn\xp02\xp02\src\main.c" 1
 967  0051              	IF (50000>=4) AND (50000<( 4 + __PBP__ * 2)) AND ( __PBP__ > 0 )
 967  0051              ;# 967 "e:\x-sense_svn\xp02\xp02\src\main.c" 1
 967  0051              	NOP
 967  0051              	ENDIF
 967  0051              ;# 967 "e:\x-sense_svn\xp02\xp02\src\main.c" 1
 967  0051              	IF (50000>=5) AND (50000<( 4 + __PBP__ * 2)) AND ( __PBP__ > 0 )
 967  0051              ;# 967 "e:\x-sense_svn\xp02\xp02\src\main.c" 1
 967  0051              	NOP
 967  0051              	ENDIF
 967  0051              ;# 967 "e:\x-sense_svn\xp02\xp02\src\main.c" 1
 967  0051              	IF (50000>=6) AND (50000<( 4 + __PBP__ * 2))  AND ( __PBP__ > 1 )
 967  0051              ;# 967 "e:\x-sense_svn\xp02\xp02\src\main.c" 1
 967  0051              	NOP
 967  0051              	ENDIF
 967  0051              ;# 967 "e:\x-sense_svn\xp02\xp02\src\main.c" 1
 967  0051              	IF (50000>=7) AND (50000<( 4 + __PBP__ * 2))  AND ( __PBP__ > 1 )
 967  0051              ;# 967 "e:\x-sense_svn\xp02\xp02\src\main.c" 1
 967  0051              	NOP
 967  0051              	ENDIF
 967  0051              ;# 967 "e:\x-sense_svn\xp02\xp02\src\main.c" 1
 967  0051              	IF (50000>=8) AND (50000<( 4 + __PBP__ * 2))  AND ( __PBP__ > 2 )
 967  0051              ;# 967 "e:\x-sense_svn\xp02\xp02\src\main.c" 1
 967  0051              	NOP
 967  0051              	ENDIF
 967  0051              ;# 967 "e:\x-sense_svn\xp02\xp02\src\main.c" 1
 967  0051              	IF (50000==9)  AND ( __PBP__ > 2 )
 967  0051              ;# 967 "e:\x-sense_svn\xp02\xp02\src\main.c" 1
 967  0051              	NOP
 967  0051              	ENDIF
 967  0051              ;# 967 "e:\x-sense_svn\xp02\xp02\src\main.c" 1
 967  0051              	IF (50000< ( 8 + __PBP__ * 2)) AND (50000>( 3 + __PBP__ * 2))
 967  0051              ;# 967 "e:\x-sense_svn\xp02\xp02\src\main.c" 1
 967  0051              	fcall __DELAY3 + ( 7 + __PBP__ * 2) -50000
 967  0051              	ENDIF
 967  0051              ;# 967 "e:\x-sense_svn\xp02\xp02\src\main.c" 1
 967  0051              	IF (50000< ( 0404h + __PBP__ * 2)) AND (50000>( 7 + __PBP__ * 2))
 967  0051              ;# 967 "e:\x-sense_svn\xp02\xp02\src\main.c" 1
 967  0051              	MOV A,(50000-( 4 + __PBP__ * 2))/4
 967  0051              ;# 967 "e:\x-sense_svn\xp02\xp02\src\main.c" 1
 967  0051              	fcall __DELAYX3 + 3 -((50000-( 4 + __PBP__ * 2)) MOD 4) 
 967  0051              	ENDIF
 967  0051              ;# 967 "e:\x-sense_svn\xp02\xp02\src\main.c" 1
 967  0051              	IF (50000< ( 040bh + __PBP__ * 2)) AND (50000> ( 0403h + __PBP__ * 2))
 967  0051              ;# 967 "e:\x-sense_svn\xp02\xp02\src\main.c" 1
 967  0051              	MOV A,0 
 967  0051              ;# 967 "e:\x-sense_svn\xp02\xp02\src\main.c" 1
 967  0051              	fcall __DELAYX6 + ( 040ah + __PBP__ * 2) -50000
文件：main.c       编译器版本 HGASM 0202 页次37

 967  0051              	ENDIF
 967  0051              ;# 967 "e:\x-sense_svn\xp02\xp02\src\main.c" 1
 967  0051              	IF (50000 >= ( 040bh + __PBP__ * 2)) AND ((((50000-( 9 + __PBP__ * 2))%0402h)/4+1)>256)
 967  0051              ;# 967 "e:\x-sense_svn\xp02\xp02\src\main.c" 1
 967  0051              	MOV A,(50000-( 9 + __PBP__ * 2))/0402h
 967  0051              ;# 967 "e:\x-sense_svn\xp02\xp02\src\main.c" 1
 967  0051              	MOV _builtin_holtek_delay_2,A
 967  0051              ;# 967 "e:\x-sense_svn\xp02\xp02\src\main.c" 1
 967  0051              	MOV A,0
 967  0051              ;# 967 "e:\x-sense_svn\xp02\xp02\src\main.c" 1
 967  0051              	fcall __DELAYY5 +5- (((50000-( 9 + __PBP__ * 2))%0402h)%6) 
 967  0051              	ENDIF
 967  0051              ;# 967 "e:\x-sense_svn\xp02\xp02\src\main.c" 1
 967  0051              	IF (50000 >= ( 040bh + __PBP__ * 2)) AND ((((50000-( 9 + __PBP__ * 2))%0402h)/4+1)<=256)
 967  0051              ;# 967 "e:\x-sense_svn\xp02\xp02\src\main.c" 1
 967  0051  0F30        	MOV A,(50000-( 9 + __PBP__ * 2))/0402h
 967  0052              ;# 967 "e:\x-sense_svn\xp02\xp02\src\main.c" 1
 967  0052  0080     E  	MOV _builtin_holtek_delay_2,A
 967  0053              ;# 967 "e:\x-sense_svn\xp02\xp02\src\main.c" 1
 967  0053  0FBA        	MOV A,((50000-( 9 + __PBP__ * 2))%0402h)/4+1
 967  0054              ;# 967 "e:\x-sense_svn\xp02\xp02\src\main.c" 1
 967  0054              	fcall __DELAYY3 +3-(((50000-( 9 + __PBP__ * 2))%0402h)%4) 
 967  005B              	ENDIF
 967  005B  2800     R  	jmp _L44
 967  005C              _L37:
 977  005C              #line 977 "e:\x-sense_svn\xp02\xp02\src\main.c"
 977  005C  3114        	set [20].2
 978  005D              #line 978 "e:\x-sense_svn\xp02\xp02\src\main.c"
 978  005D              ;# 978 "e:\x-sense_svn\xp02\xp02\src\main.c" 1
 978  005D              	IF 50000>263690
 978  005D              ;# 978 "e:\x-sense_svn\xp02\xp02\src\main.c" 1
 978  005D              	ERRMESSAGE 'the value 50000of the argument exceeds the maxinum 263690'
 978  005D              	ENDIF
 978  005D              ;# 978 "e:\x-sense_svn\xp02\xp02\src\main.c" 1
 978  005D              	IF 50000<0
 978  005D              ;# 978 "e:\x-sense_svn\xp02\xp02\src\main.c" 1
 978  005D              	ERRMESSAGE 'the value 50000 of the argument exceeds the mininum 0'
 978  005D              	ENDIF
 978  005D              ;# 978 "e:\x-sense_svn\xp02\xp02\src\main.c" 1
 978  005D              	IF 50000==0
 978  005D              ;# 978 "e:\x-sense_svn\xp02\xp02\src\main.c" 1
 978  005D              	JMP $
 978  005D              	ENDIF
 978  005D              ;# 978 "e:\x-sense_svn\xp02\xp02\src\main.c" 1
 978  005D              	IF (50000>=1) AND (50000<( 4 + __PBP__ * 2))
 978  005D              ;# 978 "e:\x-sense_svn\xp02\xp02\src\main.c" 1
 978  005D              	NOP
 978  005D              	ENDIF
 978  005D              ;# 978 "e:\x-sense_svn\xp02\xp02\src\main.c" 1
 978  005D              	IF (50000>=2) AND (50000<( 4 + __PBP__ * 2))
 978  005D              ;# 978 "e:\x-sense_svn\xp02\xp02\src\main.c" 1
 978  005D              	NOP
 978  005D              	ENDIF
 978  005D              ;# 978 "e:\x-sense_svn\xp02\xp02\src\main.c" 1
 978  005D              	IF (50000>=3) AND (50000<( 4 + __PBP__ * 2))
 978  005D              ;# 978 "e:\x-sense_svn\xp02\xp02\src\main.c" 1
 978  005D              	NOP
 978  005D              	ENDIF
 978  005D              ;# 978 "e:\x-sense_svn\xp02\xp02\src\main.c" 1
 978  005D              	IF (50000>=4) AND (50000<( 4 + __PBP__ * 2)) AND ( __PBP__ > 0 )
文件：main.c       编译器版本 HGASM 0202 页次38

 978  005D              ;# 978 "e:\x-sense_svn\xp02\xp02\src\main.c" 1
 978  005D              	NOP
 978  005D              	ENDIF
 978  005D              ;# 978 "e:\x-sense_svn\xp02\xp02\src\main.c" 1
 978  005D              	IF (50000>=5) AND (50000<( 4 + __PBP__ * 2)) AND ( __PBP__ > 0 )
 978  005D              ;# 978 "e:\x-sense_svn\xp02\xp02\src\main.c" 1
 978  005D              	NOP
 978  005D              	ENDIF
 978  005D              ;# 978 "e:\x-sense_svn\xp02\xp02\src\main.c" 1
 978  005D              	IF (50000>=6) AND (50000<( 4 + __PBP__ * 2))  AND ( __PBP__ > 1 )
 978  005D              ;# 978 "e:\x-sense_svn\xp02\xp02\src\main.c" 1
 978  005D              	NOP
 978  005D              	ENDIF
 978  005D              ;# 978 "e:\x-sense_svn\xp02\xp02\src\main.c" 1
 978  005D              	IF (50000>=7) AND (50000<( 4 + __PBP__ * 2))  AND ( __PBP__ > 1 )
 978  005D              ;# 978 "e:\x-sense_svn\xp02\xp02\src\main.c" 1
 978  005D              	NOP
 978  005D              	ENDIF
 978  005D              ;# 978 "e:\x-sense_svn\xp02\xp02\src\main.c" 1
 978  005D              	IF (50000>=8) AND (50000<( 4 + __PBP__ * 2))  AND ( __PBP__ > 2 )
 978  005D              ;# 978 "e:\x-sense_svn\xp02\xp02\src\main.c" 1
 978  005D              	NOP
 978  005D              	ENDIF
 978  005D              ;# 978 "e:\x-sense_svn\xp02\xp02\src\main.c" 1
 978  005D              	IF (50000==9)  AND ( __PBP__ > 2 )
 978  005D              ;# 978 "e:\x-sense_svn\xp02\xp02\src\main.c" 1
 978  005D              	NOP
 978  005D              	ENDIF
 978  005D              ;# 978 "e:\x-sense_svn\xp02\xp02\src\main.c" 1
 978  005D              	IF (50000< ( 8 + __PBP__ * 2)) AND (50000>( 3 + __PBP__ * 2))
 978  005D              ;# 978 "e:\x-sense_svn\xp02\xp02\src\main.c" 1
 978  005D              	fcall __DELAY3 + ( 7 + __PBP__ * 2) -50000
 978  005D              	ENDIF
 978  005D              ;# 978 "e:\x-sense_svn\xp02\xp02\src\main.c" 1
 978  005D              	IF (50000< ( 0404h + __PBP__ * 2)) AND (50000>( 7 + __PBP__ * 2))
 978  005D              ;# 978 "e:\x-sense_svn\xp02\xp02\src\main.c" 1
 978  005D              	MOV A,(50000-( 4 + __PBP__ * 2))/4
 978  005D              ;# 978 "e:\x-sense_svn\xp02\xp02\src\main.c" 1
 978  005D              	fcall __DELAYX3 + 3 -((50000-( 4 + __PBP__ * 2)) MOD 4) 
 978  005D              	ENDIF
 978  005D              ;# 978 "e:\x-sense_svn\xp02\xp02\src\main.c" 1
 978  005D              	IF (50000< ( 040bh + __PBP__ * 2)) AND (50000> ( 0403h + __PBP__ * 2))
 978  005D              ;# 978 "e:\x-sense_svn\xp02\xp02\src\main.c" 1
 978  005D              	MOV A,0 
 978  005D              ;# 978 "e:\x-sense_svn\xp02\xp02\src\main.c" 1
 978  005D              	fcall __DELAYX6 + ( 040ah + __PBP__ * 2) -50000
 978  005D              	ENDIF
 978  005D              ;# 978 "e:\x-sense_svn\xp02\xp02\src\main.c" 1
 978  005D              	IF (50000 >= ( 040bh + __PBP__ * 2)) AND ((((50000-( 9 + __PBP__ * 2))%0402h)/4+1)>256)
 978  005D              ;# 978 "e:\x-sense_svn\xp02\xp02\src\main.c" 1
 978  005D              	MOV A,(50000-( 9 + __PBP__ * 2))/0402h
 978  005D              ;# 978 "e:\x-sense_svn\xp02\xp02\src\main.c" 1
 978  005D              	MOV _builtin_holtek_delay_2,A
 978  005D              ;# 978 "e:\x-sense_svn\xp02\xp02\src\main.c" 1
 978  005D              	MOV A,0
 978  005D              ;# 978 "e:\x-sense_svn\xp02\xp02\src\main.c" 1
 978  005D              	fcall __DELAYY5 +5- (((50000-( 9 + __PBP__ * 2))%0402h)%6) 
 978  005D              	ENDIF
 978  005D              ;# 978 "e:\x-sense_svn\xp02\xp02\src\main.c" 1
 978  005D              	IF (50000 >= ( 040bh + __PBP__ * 2)) AND ((((50000-( 9 + __PBP__ * 2))%0402h)/4+1)<=256)
文件：main.c       编译器版本 HGASM 0202 页次39

 978  005D              ;# 978 "e:\x-sense_svn\xp02\xp02\src\main.c" 1
 978  005D  0F30        	MOV A,(50000-( 9 + __PBP__ * 2))/0402h
 978  005E              ;# 978 "e:\x-sense_svn\xp02\xp02\src\main.c" 1
 978  005E  0080     E  	MOV _builtin_holtek_delay_2,A
 978  005F              ;# 978 "e:\x-sense_svn\xp02\xp02\src\main.c" 1
 978  005F  0FBA        	MOV A,((50000-( 9 + __PBP__ * 2))%0402h)/4+1
 978  0060              ;# 978 "e:\x-sense_svn\xp02\xp02\src\main.c" 1
 978  0060              	fcall __DELAYY3 +3-(((50000-( 9 + __PBP__ * 2))%0402h)%4) 
 978  0067              	ENDIF
 979  0067              #line 979 "e:\x-sense_svn\xp02\xp02\src\main.c"
 979  0067  3514        	clr [20].2
 979  0068              _L42:
 980  0068              #line 980 "e:\x-sense_svn\xp02\xp02\src\main.c"
 980  0068              ;# 980 "e:\x-sense_svn\xp02\xp02\src\main.c" 1
 980  0068              	IF 150000>263690
 980  0068              ;# 980 "e:\x-sense_svn\xp02\xp02\src\main.c" 1
 980  0068              	ERRMESSAGE 'the value 150000of the argument exceeds the maxinum 263690'
 980  0068              	ENDIF
 980  0068              ;# 980 "e:\x-sense_svn\xp02\xp02\src\main.c" 1
 980  0068              	IF 150000<0
 980  0068              ;# 980 "e:\x-sense_svn\xp02\xp02\src\main.c" 1
 980  0068              	ERRMESSAGE 'the value 150000 of the argument exceeds the mininum 0'
 980  0068              	ENDIF
 980  0068              ;# 980 "e:\x-sense_svn\xp02\xp02\src\main.c" 1
 980  0068              	IF 150000==0
 980  0068              ;# 980 "e:\x-sense_svn\xp02\xp02\src\main.c" 1
 980  0068              	JMP $
 980  0068              	ENDIF
 980  0068              ;# 980 "e:\x-sense_svn\xp02\xp02\src\main.c" 1
 980  0068              	IF (150000>=1) AND (150000<( 4 + __PBP__ * 2))
 980  0068              ;# 980 "e:\x-sense_svn\xp02\xp02\src\main.c" 1
 980  0068              	NOP
 980  0068              	ENDIF
 980  0068              ;# 980 "e:\x-sense_svn\xp02\xp02\src\main.c" 1
 980  0068              	IF (150000>=2) AND (150000<( 4 + __PBP__ * 2))
 980  0068              ;# 980 "e:\x-sense_svn\xp02\xp02\src\main.c" 1
 980  0068              	NOP
 980  0068              	ENDIF
 980  0068              ;# 980 "e:\x-sense_svn\xp02\xp02\src\main.c" 1
 980  0068              	IF (150000>=3) AND (150000<( 4 + __PBP__ * 2))
 980  0068              ;# 980 "e:\x-sense_svn\xp02\xp02\src\main.c" 1
 980  0068              	NOP
 980  0068              	ENDIF
 980  0068              ;# 980 "e:\x-sense_svn\xp02\xp02\src\main.c" 1
 980  0068              	IF (150000>=4) AND (150000<( 4 + __PBP__ * 2)) AND ( __PBP__ > 0 )
 980  0068              ;# 980 "e:\x-sense_svn\xp02\xp02\src\main.c" 1
 980  0068              	NOP
 980  0068              	ENDIF
 980  0068              ;# 980 "e:\x-sense_svn\xp02\xp02\src\main.c" 1
 980  0068              	IF (150000>=5) AND (150000<( 4 + __PBP__ * 2)) AND ( __PBP__ > 0 )
 980  0068              ;# 980 "e:\x-sense_svn\xp02\xp02\src\main.c" 1
 980  0068              	NOP
 980  0068              	ENDIF
 980  0068              ;# 980 "e:\x-sense_svn\xp02\xp02\src\main.c" 1
 980  0068              	IF (150000>=6) AND (150000<( 4 + __PBP__ * 2))  AND ( __PBP__ > 1 )
 980  0068              ;# 980 "e:\x-sense_svn\xp02\xp02\src\main.c" 1
 980  0068              	NOP
 980  0068              	ENDIF
 980  0068              ;# 980 "e:\x-sense_svn\xp02\xp02\src\main.c" 1
 980  0068              	IF (150000>=7) AND (150000<( 4 + __PBP__ * 2))  AND ( __PBP__ > 1 )
文件：main.c       编译器版本 HGASM 0202 页次40

 980  0068              ;# 980 "e:\x-sense_svn\xp02\xp02\src\main.c" 1
 980  0068              	NOP
 980  0068              	ENDIF
 980  0068              ;# 980 "e:\x-sense_svn\xp02\xp02\src\main.c" 1
 980  0068              	IF (150000>=8) AND (150000<( 4 + __PBP__ * 2))  AND ( __PBP__ > 2 )
 980  0068              ;# 980 "e:\x-sense_svn\xp02\xp02\src\main.c" 1
 980  0068              	NOP
 980  0068              	ENDIF
 980  0068              ;# 980 "e:\x-sense_svn\xp02\xp02\src\main.c" 1
 980  0068              	IF (150000==9)  AND ( __PBP__ > 2 )
 980  0068              ;# 980 "e:\x-sense_svn\xp02\xp02\src\main.c" 1
 980  0068              	NOP
 980  0068              	ENDIF
 980  0068              ;# 980 "e:\x-sense_svn\xp02\xp02\src\main.c" 1
 980  0068              	IF (150000< ( 8 + __PBP__ * 2)) AND (150000>( 3 + __PBP__ * 2))
 980  0068              ;# 980 "e:\x-sense_svn\xp02\xp02\src\main.c" 1
 980  0068              	fcall __DELAY3 + ( 7 + __PBP__ * 2) -150000
 980  0068              	ENDIF
 980  0068              ;# 980 "e:\x-sense_svn\xp02\xp02\src\main.c" 1
 980  0068              	IF (150000< ( 0404h + __PBP__ * 2)) AND (150000>( 7 + __PBP__ * 2))
 980  0068              ;# 980 "e:\x-sense_svn\xp02\xp02\src\main.c" 1
 980  0068              	MOV A,(150000-( 4 + __PBP__ * 2))/4
 980  0068              ;# 980 "e:\x-sense_svn\xp02\xp02\src\main.c" 1
 980  0068              	fcall __DELAYX3 + 3 -((150000-( 4 + __PBP__ * 2)) MOD 4) 
 980  0068              	ENDIF
 980  0068              ;# 980 "e:\x-sense_svn\xp02\xp02\src\main.c" 1
 980  0068              	IF (150000< ( 040bh + __PBP__ * 2)) AND (150000> ( 0403h + __PBP__ * 2))
 980  0068              ;# 980 "e:\x-sense_svn\xp02\xp02\src\main.c" 1
 980  0068              	MOV A,0 
 980  0068              ;# 980 "e:\x-sense_svn\xp02\xp02\src\main.c" 1
 980  0068              	fcall __DELAYX6 + ( 040ah + __PBP__ * 2) -150000
 980  0068              	ENDIF
 980  0068              ;# 980 "e:\x-sense_svn\xp02\xp02\src\main.c" 1
 980  0068              	IF (150000 >= ( 040bh + __PBP__ * 2)) AND ((((150000-( 9 + __PBP__ * 2))%0402h)/4+1)>256)
 980  0068              ;# 980 "e:\x-sense_svn\xp02\xp02\src\main.c" 1
 980  0068              	MOV A,(150000-( 9 + __PBP__ * 2))/0402h
 980  0068              ;# 980 "e:\x-sense_svn\xp02\xp02\src\main.c" 1
 980  0068              	MOV _builtin_holtek_delay_2,A
 980  0068              ;# 980 "e:\x-sense_svn\xp02\xp02\src\main.c" 1
 980  0068              	MOV A,0
 980  0068              ;# 980 "e:\x-sense_svn\xp02\xp02\src\main.c" 1
 980  0068              	fcall __DELAYY5 +5- (((150000-( 9 + __PBP__ * 2))%0402h)%6) 
 980  0068              	ENDIF
 980  0068              ;# 980 "e:\x-sense_svn\xp02\xp02\src\main.c" 1
 980  0068              	IF (150000 >= ( 040bh + __PBP__ * 2)) AND ((((150000-( 9 + __PBP__ * 2))%0402h)/4+1)<=256)
 980  0068              ;# 980 "e:\x-sense_svn\xp02\xp02\src\main.c" 1
 980  0068  0F92        	MOV A,(150000-( 9 + __PBP__ * 2))/0402h
 980  0069              ;# 980 "e:\x-sense_svn\xp02\xp02\src\main.c" 1
 980  0069  0080     E  	MOV _builtin_holtek_delay_2,A
 980  006A              ;# 980 "e:\x-sense_svn\xp02\xp02\src\main.c" 1
 980  006A  0F31        	MOV A,((150000-( 9 + __PBP__ * 2))%0402h)/4+1
 980  006B              ;# 980 "e:\x-sense_svn\xp02\xp02\src\main.c" 1
 980  006B              	fcall __DELAYY3 +3-(((150000-( 9 + __PBP__ * 2))%0402h)%4) 
 980  0072              	ENDIF
 981  0072              #line 981 "e:\x-sense_svn\xp02\xp02\src\main.c"
 981  0072              ;# 981 "e:\x-sense_svn\xp02\xp02\src\main.c" 1
 981  0072              	IF 150000>263690
 981  0072              ;# 981 "e:\x-sense_svn\xp02\xp02\src\main.c" 1
 981  0072              	ERRMESSAGE 'the value 150000of the argument exceeds the maxinum 263690'
 981  0072              	ENDIF
文件：main.c       编译器版本 HGASM 0202 页次41

 981  0072              ;# 981 "e:\x-sense_svn\xp02\xp02\src\main.c" 1
 981  0072              	IF 150000<0
 981  0072              ;# 981 "e:\x-sense_svn\xp02\xp02\src\main.c" 1
 981  0072              	ERRMESSAGE 'the value 150000 of the argument exceeds the mininum 0'
 981  0072              	ENDIF
 981  0072              ;# 981 "e:\x-sense_svn\xp02\xp02\src\main.c" 1
 981  0072              	IF 150000==0
 981  0072              ;# 981 "e:\x-sense_svn\xp02\xp02\src\main.c" 1
 981  0072              	JMP $
 981  0072              	ENDIF
 981  0072              ;# 981 "e:\x-sense_svn\xp02\xp02\src\main.c" 1
 981  0072              	IF (150000>=1) AND (150000<( 4 + __PBP__ * 2))
 981  0072              ;# 981 "e:\x-sense_svn\xp02\xp02\src\main.c" 1
 981  0072              	NOP
 981  0072              	ENDIF
 981  0072              ;# 981 "e:\x-sense_svn\xp02\xp02\src\main.c" 1
 981  0072              	IF (150000>=2) AND (150000<( 4 + __PBP__ * 2))
 981  0072              ;# 981 "e:\x-sense_svn\xp02\xp02\src\main.c" 1
 981  0072              	NOP
 981  0072              	ENDIF
 981  0072              ;# 981 "e:\x-sense_svn\xp02\xp02\src\main.c" 1
 981  0072              	IF (150000>=3) AND (150000<( 4 + __PBP__ * 2))
 981  0072              ;# 981 "e:\x-sense_svn\xp02\xp02\src\main.c" 1
 981  0072              	NOP
 981  0072              	ENDIF
 981  0072              ;# 981 "e:\x-sense_svn\xp02\xp02\src\main.c" 1
 981  0072              	IF (150000>=4) AND (150000<( 4 + __PBP__ * 2)) AND ( __PBP__ > 0 )
 981  0072              ;# 981 "e:\x-sense_svn\xp02\xp02\src\main.c" 1
 981  0072              	NOP
 981  0072              	ENDIF
 981  0072              ;# 981 "e:\x-sense_svn\xp02\xp02\src\main.c" 1
 981  0072              	IF (150000>=5) AND (150000<( 4 + __PBP__ * 2)) AND ( __PBP__ > 0 )
 981  0072              ;# 981 "e:\x-sense_svn\xp02\xp02\src\main.c" 1
 981  0072              	NOP
 981  0072              	ENDIF
 981  0072              ;# 981 "e:\x-sense_svn\xp02\xp02\src\main.c" 1
 981  0072              	IF (150000>=6) AND (150000<( 4 + __PBP__ * 2))  AND ( __PBP__ > 1 )
 981  0072              ;# 981 "e:\x-sense_svn\xp02\xp02\src\main.c" 1
 981  0072              	NOP
 981  0072              	ENDIF
 981  0072              ;# 981 "e:\x-sense_svn\xp02\xp02\src\main.c" 1
 981  0072              	IF (150000>=7) AND (150000<( 4 + __PBP__ * 2))  AND ( __PBP__ > 1 )
 981  0072              ;# 981 "e:\x-sense_svn\xp02\xp02\src\main.c" 1
 981  0072              	NOP
 981  0072              	ENDIF
 981  0072              ;# 981 "e:\x-sense_svn\xp02\xp02\src\main.c" 1
 981  0072              	IF (150000>=8) AND (150000<( 4 + __PBP__ * 2))  AND ( __PBP__ > 2 )
 981  0072              ;# 981 "e:\x-sense_svn\xp02\xp02\src\main.c" 1
 981  0072              	NOP
 981  0072              	ENDIF
 981  0072              ;# 981 "e:\x-sense_svn\xp02\xp02\src\main.c" 1
 981  0072              	IF (150000==9)  AND ( __PBP__ > 2 )
 981  0072              ;# 981 "e:\x-sense_svn\xp02\xp02\src\main.c" 1
 981  0072              	NOP
 981  0072              	ENDIF
 981  0072              ;# 981 "e:\x-sense_svn\xp02\xp02\src\main.c" 1
 981  0072              	IF (150000< ( 8 + __PBP__ * 2)) AND (150000>( 3 + __PBP__ * 2))
 981  0072              ;# 981 "e:\x-sense_svn\xp02\xp02\src\main.c" 1
 981  0072              	fcall __DELAY3 + ( 7 + __PBP__ * 2) -150000
 981  0072              	ENDIF
文件：main.c       编译器版本 HGASM 0202 页次42

 981  0072              ;# 981 "e:\x-sense_svn\xp02\xp02\src\main.c" 1
 981  0072              	IF (150000< ( 0404h + __PBP__ * 2)) AND (150000>( 7 + __PBP__ * 2))
 981  0072              ;# 981 "e:\x-sense_svn\xp02\xp02\src\main.c" 1
 981  0072              	MOV A,(150000-( 4 + __PBP__ * 2))/4
 981  0072              ;# 981 "e:\x-sense_svn\xp02\xp02\src\main.c" 1
 981  0072              	fcall __DELAYX3 + 3 -((150000-( 4 + __PBP__ * 2)) MOD 4) 
 981  0072              	ENDIF
 981  0072              ;# 981 "e:\x-sense_svn\xp02\xp02\src\main.c" 1
 981  0072              	IF (150000< ( 040bh + __PBP__ * 2)) AND (150000> ( 0403h + __PBP__ * 2))
 981  0072              ;# 981 "e:\x-sense_svn\xp02\xp02\src\main.c" 1
 981  0072              	MOV A,0 
 981  0072              ;# 981 "e:\x-sense_svn\xp02\xp02\src\main.c" 1
 981  0072              	fcall __DELAYX6 + ( 040ah + __PBP__ * 2) -150000
 981  0072              	ENDIF
 981  0072              ;# 981 "e:\x-sense_svn\xp02\xp02\src\main.c" 1
 981  0072              	IF (150000 >= ( 040bh + __PBP__ * 2)) AND ((((150000-( 9 + __PBP__ * 2))%0402h)/4+1)>256)
 981  0072              ;# 981 "e:\x-sense_svn\xp02\xp02\src\main.c" 1
 981  0072              	MOV A,(150000-( 9 + __PBP__ * 2))/0402h
 981  0072              ;# 981 "e:\x-sense_svn\xp02\xp02\src\main.c" 1
 981  0072              	MOV _builtin_holtek_delay_2,A
 981  0072              ;# 981 "e:\x-sense_svn\xp02\xp02\src\main.c" 1
 981  0072              	MOV A,0
 981  0072              ;# 981 "e:\x-sense_svn\xp02\xp02\src\main.c" 1
 981  0072              	fcall __DELAYY5 +5- (((150000-( 9 + __PBP__ * 2))%0402h)%6) 
 981  0072              	ENDIF
 981  0072              ;# 981 "e:\x-sense_svn\xp02\xp02\src\main.c" 1
 981  0072              	IF (150000 >= ( 040bh + __PBP__ * 2)) AND ((((150000-( 9 + __PBP__ * 2))%0402h)/4+1)<=256)
 981  0072              ;# 981 "e:\x-sense_svn\xp02\xp02\src\main.c" 1
 981  0072  0F92        	MOV A,(150000-( 9 + __PBP__ * 2))/0402h
 981  0073              ;# 981 "e:\x-sense_svn\xp02\xp02\src\main.c" 1
 981  0073  0080     E  	MOV _builtin_holtek_delay_2,A
 981  0074              ;# 981 "e:\x-sense_svn\xp02\xp02\src\main.c" 1
 981  0074  0F31        	MOV A,((150000-( 9 + __PBP__ * 2))%0402h)/4+1
 981  0075              ;# 981 "e:\x-sense_svn\xp02\xp02\src\main.c" 1
 981  0075              	fcall __DELAYY3 +3-(((150000-( 9 + __PBP__ * 2))%0402h)%4) 
 981  007C              	ENDIF
 982  007C              #line 982 "e:\x-sense_svn\xp02\xp02\src\main.c"
 982  007C  3218        	set [24].4
 983  007D              #line 983 "e:\x-sense_svn\xp02\xp02\src\main.c"
 983  007D              ;# 983 "e:\x-sense_svn\xp02\xp02\src\main.c" 1
 983  007D              	IF 50000>263690
 983  007D              ;# 983 "e:\x-sense_svn\xp02\xp02\src\main.c" 1
 983  007D              	ERRMESSAGE 'the value 50000of the argument exceeds the maxinum 263690'
 983  007D              	ENDIF
 983  007D              ;# 983 "e:\x-sense_svn\xp02\xp02\src\main.c" 1
 983  007D              	IF 50000<0
 983  007D              ;# 983 "e:\x-sense_svn\xp02\xp02\src\main.c" 1
 983  007D              	ERRMESSAGE 'the value 50000 of the argument exceeds the mininum 0'
 983  007D              	ENDIF
 983  007D              ;# 983 "e:\x-sense_svn\xp02\xp02\src\main.c" 1
 983  007D              	IF 50000==0
 983  007D              ;# 983 "e:\x-sense_svn\xp02\xp02\src\main.c" 1
 983  007D              	JMP $
 983  007D              	ENDIF
 983  007D              ;# 983 "e:\x-sense_svn\xp02\xp02\src\main.c" 1
 983  007D              	IF (50000>=1) AND (50000<( 4 + __PBP__ * 2))
 983  007D              ;# 983 "e:\x-sense_svn\xp02\xp02\src\main.c" 1
 983  007D              	NOP
 983  007D              	ENDIF
 983  007D              ;# 983 "e:\x-sense_svn\xp02\xp02\src\main.c" 1
文件：main.c       编译器版本 HGASM 0202 页次43

 983  007D              	IF (50000>=2) AND (50000<( 4 + __PBP__ * 2))
 983  007D              ;# 983 "e:\x-sense_svn\xp02\xp02\src\main.c" 1
 983  007D              	NOP
 983  007D              	ENDIF
 983  007D              ;# 983 "e:\x-sense_svn\xp02\xp02\src\main.c" 1
 983  007D              	IF (50000>=3) AND (50000<( 4 + __PBP__ * 2))
 983  007D              ;# 983 "e:\x-sense_svn\xp02\xp02\src\main.c" 1
 983  007D              	NOP
 983  007D              	ENDIF
 983  007D              ;# 983 "e:\x-sense_svn\xp02\xp02\src\main.c" 1
 983  007D              	IF (50000>=4) AND (50000<( 4 + __PBP__ * 2)) AND ( __PBP__ > 0 )
 983  007D              ;# 983 "e:\x-sense_svn\xp02\xp02\src\main.c" 1
 983  007D              	NOP
 983  007D              	ENDIF
 983  007D              ;# 983 "e:\x-sense_svn\xp02\xp02\src\main.c" 1
 983  007D              	IF (50000>=5) AND (50000<( 4 + __PBP__ * 2)) AND ( __PBP__ > 0 )
 983  007D              ;# 983 "e:\x-sense_svn\xp02\xp02\src\main.c" 1
 983  007D              	NOP
 983  007D              	ENDIF
 983  007D              ;# 983 "e:\x-sense_svn\xp02\xp02\src\main.c" 1
 983  007D              	IF (50000>=6) AND (50000<( 4 + __PBP__ * 2))  AND ( __PBP__ > 1 )
 983  007D              ;# 983 "e:\x-sense_svn\xp02\xp02\src\main.c" 1
 983  007D              	NOP
 983  007D              	ENDIF
 983  007D              ;# 983 "e:\x-sense_svn\xp02\xp02\src\main.c" 1
 983  007D              	IF (50000>=7) AND (50000<( 4 + __PBP__ * 2))  AND ( __PBP__ > 1 )
 983  007D              ;# 983 "e:\x-sense_svn\xp02\xp02\src\main.c" 1
 983  007D              	NOP
 983  007D              	ENDIF
 983  007D              ;# 983 "e:\x-sense_svn\xp02\xp02\src\main.c" 1
 983  007D              	IF (50000>=8) AND (50000<( 4 + __PBP__ * 2))  AND ( __PBP__ > 2 )
 983  007D              ;# 983 "e:\x-sense_svn\xp02\xp02\src\main.c" 1
 983  007D              	NOP
 983  007D              	ENDIF
 983  007D              ;# 983 "e:\x-sense_svn\xp02\xp02\src\main.c" 1
 983  007D              	IF (50000==9)  AND ( __PBP__ > 2 )
 983  007D              ;# 983 "e:\x-sense_svn\xp02\xp02\src\main.c" 1
 983  007D              	NOP
 983  007D              	ENDIF
 983  007D              ;# 983 "e:\x-sense_svn\xp02\xp02\src\main.c" 1
 983  007D              	IF (50000< ( 8 + __PBP__ * 2)) AND (50000>( 3 + __PBP__ * 2))
 983  007D              ;# 983 "e:\x-sense_svn\xp02\xp02\src\main.c" 1
 983  007D              	fcall __DELAY3 + ( 7 + __PBP__ * 2) -50000
 983  007D              	ENDIF
 983  007D              ;# 983 "e:\x-sense_svn\xp02\xp02\src\main.c" 1
 983  007D              	IF (50000< ( 0404h + __PBP__ * 2)) AND (50000>( 7 + __PBP__ * 2))
 983  007D              ;# 983 "e:\x-sense_svn\xp02\xp02\src\main.c" 1
 983  007D              	MOV A,(50000-( 4 + __PBP__ * 2))/4
 983  007D              ;# 983 "e:\x-sense_svn\xp02\xp02\src\main.c" 1
 983  007D              	fcall __DELAYX3 + 3 -((50000-( 4 + __PBP__ * 2)) MOD 4) 
 983  007D              	ENDIF
 983  007D              ;# 983 "e:\x-sense_svn\xp02\xp02\src\main.c" 1
 983  007D              	IF (50000< ( 040bh + __PBP__ * 2)) AND (50000> ( 0403h + __PBP__ * 2))
 983  007D              ;# 983 "e:\x-sense_svn\xp02\xp02\src\main.c" 1
 983  007D              	MOV A,0 
 983  007D              ;# 983 "e:\x-sense_svn\xp02\xp02\src\main.c" 1
 983  007D              	fcall __DELAYX6 + ( 040ah + __PBP__ * 2) -50000
 983  007D              	ENDIF
 983  007D              ;# 983 "e:\x-sense_svn\xp02\xp02\src\main.c" 1
 983  007D              	IF (50000 >= ( 040bh + __PBP__ * 2)) AND ((((50000-( 9 + __PBP__ * 2))%0402h)/4+1)>256)
文件：main.c       编译器版本 HGASM 0202 页次44

 983  007D              ;# 983 "e:\x-sense_svn\xp02\xp02\src\main.c" 1
 983  007D              	MOV A,(50000-( 9 + __PBP__ * 2))/0402h
 983  007D              ;# 983 "e:\x-sense_svn\xp02\xp02\src\main.c" 1
 983  007D              	MOV _builtin_holtek_delay_2,A
 983  007D              ;# 983 "e:\x-sense_svn\xp02\xp02\src\main.c" 1
 983  007D              	MOV A,0
 983  007D              ;# 983 "e:\x-sense_svn\xp02\xp02\src\main.c" 1
 983  007D              	fcall __DELAYY5 +5- (((50000-( 9 + __PBP__ * 2))%0402h)%6) 
 983  007D              	ENDIF
 983  007D              ;# 983 "e:\x-sense_svn\xp02\xp02\src\main.c" 1
 983  007D              	IF (50000 >= ( 040bh + __PBP__ * 2)) AND ((((50000-( 9 + __PBP__ * 2))%0402h)/4+1)<=256)
 983  007D              ;# 983 "e:\x-sense_svn\xp02\xp02\src\main.c" 1
 983  007D  0F30        	MOV A,(50000-( 9 + __PBP__ * 2))/0402h
 983  007E              ;# 983 "e:\x-sense_svn\xp02\xp02\src\main.c" 1
 983  007E  0080     E  	MOV _builtin_holtek_delay_2,A
 983  007F              ;# 983 "e:\x-sense_svn\xp02\xp02\src\main.c" 1
 983  007F  0FBA        	MOV A,((50000-( 9 + __PBP__ * 2))%0402h)/4+1
 983  0080              ;# 983 "e:\x-sense_svn\xp02\xp02\src\main.c" 1
 983  0080              	fcall __DELAYY3 +3-(((50000-( 9 + __PBP__ * 2))%0402h)%4) 
 983  0087              	ENDIF
 983  0087              _L43:
 984  0087              #line 984 "e:\x-sense_svn\xp02\xp02\src\main.c"
 984  0087  3618        	clr [24].4
 985  0088              #line 985 "e:\x-sense_svn\xp02\xp02\src\main.c"
 985  0088  2800     R  	jmp _L31
 985  0089              _L38:
 988  0089              #line 988 "e:\x-sense_svn\xp02\xp02\src\main.c"
 988  0089  3114        	set [20].2
 989  008A              #line 989 "e:\x-sense_svn\xp02\xp02\src\main.c"
 989  008A              ;# 989 "e:\x-sense_svn\xp02\xp02\src\main.c" 1
 989  008A              	IF 50000>263690
 989  008A              ;# 989 "e:\x-sense_svn\xp02\xp02\src\main.c" 1
 989  008A              	ERRMESSAGE 'the value 50000of the argument exceeds the maxinum 263690'
 989  008A              	ENDIF
 989  008A              ;# 989 "e:\x-sense_svn\xp02\xp02\src\main.c" 1
 989  008A              	IF 50000<0
 989  008A              ;# 989 "e:\x-sense_svn\xp02\xp02\src\main.c" 1
 989  008A              	ERRMESSAGE 'the value 50000 of the argument exceeds the mininum 0'
 989  008A              	ENDIF
 989  008A              ;# 989 "e:\x-sense_svn\xp02\xp02\src\main.c" 1
 989  008A              	IF 50000==0
 989  008A              ;# 989 "e:\x-sense_svn\xp02\xp02\src\main.c" 1
 989  008A              	JMP $
 989  008A              	ENDIF
 989  008A              ;# 989 "e:\x-sense_svn\xp02\xp02\src\main.c" 1
 989  008A              	IF (50000>=1) AND (50000<( 4 + __PBP__ * 2))
 989  008A              ;# 989 "e:\x-sense_svn\xp02\xp02\src\main.c" 1
 989  008A              	NOP
 989  008A              	ENDIF
 989  008A              ;# 989 "e:\x-sense_svn\xp02\xp02\src\main.c" 1
 989  008A              	IF (50000>=2) AND (50000<( 4 + __PBP__ * 2))
 989  008A              ;# 989 "e:\x-sense_svn\xp02\xp02\src\main.c" 1
 989  008A              	NOP
 989  008A              	ENDIF
 989  008A              ;# 989 "e:\x-sense_svn\xp02\xp02\src\main.c" 1
 989  008A              	IF (50000>=3) AND (50000<( 4 + __PBP__ * 2))
 989  008A              ;# 989 "e:\x-sense_svn\xp02\xp02\src\main.c" 1
 989  008A              	NOP
 989  008A              	ENDIF
 989  008A              ;# 989 "e:\x-sense_svn\xp02\xp02\src\main.c" 1
文件：main.c       编译器版本 HGASM 0202 页次45

 989  008A              	IF (50000>=4) AND (50000<( 4 + __PBP__ * 2)) AND ( __PBP__ > 0 )
 989  008A              ;# 989 "e:\x-sense_svn\xp02\xp02\src\main.c" 1
 989  008A              	NOP
 989  008A              	ENDIF
 989  008A              ;# 989 "e:\x-sense_svn\xp02\xp02\src\main.c" 1
 989  008A              	IF (50000>=5) AND (50000<( 4 + __PBP__ * 2)) AND ( __PBP__ > 0 )
 989  008A              ;# 989 "e:\x-sense_svn\xp02\xp02\src\main.c" 1
 989  008A              	NOP
 989  008A              	ENDIF
 989  008A              ;# 989 "e:\x-sense_svn\xp02\xp02\src\main.c" 1
 989  008A              	IF (50000>=6) AND (50000<( 4 + __PBP__ * 2))  AND ( __PBP__ > 1 )
 989  008A              ;# 989 "e:\x-sense_svn\xp02\xp02\src\main.c" 1
 989  008A              	NOP
 989  008A              	ENDIF
 989  008A              ;# 989 "e:\x-sense_svn\xp02\xp02\src\main.c" 1
 989  008A              	IF (50000>=7) AND (50000<( 4 + __PBP__ * 2))  AND ( __PBP__ > 1 )
 989  008A              ;# 989 "e:\x-sense_svn\xp02\xp02\src\main.c" 1
 989  008A              	NOP
 989  008A              	ENDIF
 989  008A              ;# 989 "e:\x-sense_svn\xp02\xp02\src\main.c" 1
 989  008A              	IF (50000>=8) AND (50000<( 4 + __PBP__ * 2))  AND ( __PBP__ > 2 )
 989  008A              ;# 989 "e:\x-sense_svn\xp02\xp02\src\main.c" 1
 989  008A              	NOP
 989  008A              	ENDIF
 989  008A              ;# 989 "e:\x-sense_svn\xp02\xp02\src\main.c" 1
 989  008A              	IF (50000==9)  AND ( __PBP__ > 2 )
 989  008A              ;# 989 "e:\x-sense_svn\xp02\xp02\src\main.c" 1
 989  008A              	NOP
 989  008A              	ENDIF
 989  008A              ;# 989 "e:\x-sense_svn\xp02\xp02\src\main.c" 1
 989  008A              	IF (50000< ( 8 + __PBP__ * 2)) AND (50000>( 3 + __PBP__ * 2))
 989  008A              ;# 989 "e:\x-sense_svn\xp02\xp02\src\main.c" 1
 989  008A              	fcall __DELAY3 + ( 7 + __PBP__ * 2) -50000
 989  008A              	ENDIF
 989  008A              ;# 989 "e:\x-sense_svn\xp02\xp02\src\main.c" 1
 989  008A              	IF (50000< ( 0404h + __PBP__ * 2)) AND (50000>( 7 + __PBP__ * 2))
 989  008A              ;# 989 "e:\x-sense_svn\xp02\xp02\src\main.c" 1
 989  008A              	MOV A,(50000-( 4 + __PBP__ * 2))/4
 989  008A              ;# 989 "e:\x-sense_svn\xp02\xp02\src\main.c" 1
 989  008A              	fcall __DELAYX3 + 3 -((50000-( 4 + __PBP__ * 2)) MOD 4) 
 989  008A              	ENDIF
 989  008A              ;# 989 "e:\x-sense_svn\xp02\xp02\src\main.c" 1
 989  008A              	IF (50000< ( 040bh + __PBP__ * 2)) AND (50000> ( 0403h + __PBP__ * 2))
 989  008A              ;# 989 "e:\x-sense_svn\xp02\xp02\src\main.c" 1
 989  008A              	MOV A,0 
 989  008A              ;# 989 "e:\x-sense_svn\xp02\xp02\src\main.c" 1
 989  008A              	fcall __DELAYX6 + ( 040ah + __PBP__ * 2) -50000
 989  008A              	ENDIF
 989  008A              ;# 989 "e:\x-sense_svn\xp02\xp02\src\main.c" 1
 989  008A              	IF (50000 >= ( 040bh + __PBP__ * 2)) AND ((((50000-( 9 + __PBP__ * 2))%0402h)/4+1)>256)
 989  008A              ;# 989 "e:\x-sense_svn\xp02\xp02\src\main.c" 1
 989  008A              	MOV A,(50000-( 9 + __PBP__ * 2))/0402h
 989  008A              ;# 989 "e:\x-sense_svn\xp02\xp02\src\main.c" 1
 989  008A              	MOV _builtin_holtek_delay_2,A
 989  008A              ;# 989 "e:\x-sense_svn\xp02\xp02\src\main.c" 1
 989  008A              	MOV A,0
 989  008A              ;# 989 "e:\x-sense_svn\xp02\xp02\src\main.c" 1
 989  008A              	fcall __DELAYY5 +5- (((50000-( 9 + __PBP__ * 2))%0402h)%6) 
 989  008A              	ENDIF
 989  008A              ;# 989 "e:\x-sense_svn\xp02\xp02\src\main.c" 1
文件：main.c       编译器版本 HGASM 0202 页次46

 989  008A              	IF (50000 >= ( 040bh + __PBP__ * 2)) AND ((((50000-( 9 + __PBP__ * 2))%0402h)/4+1)<=256)
 989  008A              ;# 989 "e:\x-sense_svn\xp02\xp02\src\main.c" 1
 989  008A  0F30        	MOV A,(50000-( 9 + __PBP__ * 2))/0402h
 989  008B              ;# 989 "e:\x-sense_svn\xp02\xp02\src\main.c" 1
 989  008B  0080     E  	MOV _builtin_holtek_delay_2,A
 989  008C              ;# 989 "e:\x-sense_svn\xp02\xp02\src\main.c" 1
 989  008C  0FBA        	MOV A,((50000-( 9 + __PBP__ * 2))%0402h)/4+1
 989  008D              ;# 989 "e:\x-sense_svn\xp02\xp02\src\main.c" 1
 989  008D              	fcall __DELAYY3 +3-(((50000-( 9 + __PBP__ * 2))%0402h)%4) 
 989  0094              	ENDIF
 990  0094              #line 990 "e:\x-sense_svn\xp02\xp02\src\main.c"
 990  0094  3514        	clr [20].2
 991  0095              #line 991 "e:\x-sense_svn\xp02\xp02\src\main.c"
 991  0095              ;# 991 "e:\x-sense_svn\xp02\xp02\src\main.c" 1
 991  0095              	IF 150000>263690
 991  0095              ;# 991 "e:\x-sense_svn\xp02\xp02\src\main.c" 1
 991  0095              	ERRMESSAGE 'the value 150000of the argument exceeds the maxinum 263690'
 991  0095              	ENDIF
 991  0095              ;# 991 "e:\x-sense_svn\xp02\xp02\src\main.c" 1
 991  0095              	IF 150000<0
 991  0095              ;# 991 "e:\x-sense_svn\xp02\xp02\src\main.c" 1
 991  0095              	ERRMESSAGE 'the value 150000 of the argument exceeds the mininum 0'
 991  0095              	ENDIF
 991  0095              ;# 991 "e:\x-sense_svn\xp02\xp02\src\main.c" 1
 991  0095              	IF 150000==0
 991  0095              ;# 991 "e:\x-sense_svn\xp02\xp02\src\main.c" 1
 991  0095              	JMP $
 991  0095              	ENDIF
 991  0095              ;# 991 "e:\x-sense_svn\xp02\xp02\src\main.c" 1
 991  0095              	IF (150000>=1) AND (150000<( 4 + __PBP__ * 2))
 991  0095              ;# 991 "e:\x-sense_svn\xp02\xp02\src\main.c" 1
 991  0095              	NOP
 991  0095              	ENDIF
 991  0095              ;# 991 "e:\x-sense_svn\xp02\xp02\src\main.c" 1
 991  0095              	IF (150000>=2) AND (150000<( 4 + __PBP__ * 2))
 991  0095              ;# 991 "e:\x-sense_svn\xp02\xp02\src\main.c" 1
 991  0095              	NOP
 991  0095              	ENDIF
 991  0095              ;# 991 "e:\x-sense_svn\xp02\xp02\src\main.c" 1
 991  0095              	IF (150000>=3) AND (150000<( 4 + __PBP__ * 2))
 991  0095              ;# 991 "e:\x-sense_svn\xp02\xp02\src\main.c" 1
 991  0095              	NOP
 991  0095              	ENDIF
 991  0095              ;# 991 "e:\x-sense_svn\xp02\xp02\src\main.c" 1
 991  0095              	IF (150000>=4) AND (150000<( 4 + __PBP__ * 2)) AND ( __PBP__ > 0 )
 991  0095              ;# 991 "e:\x-sense_svn\xp02\xp02\src\main.c" 1
 991  0095              	NOP
 991  0095              	ENDIF
 991  0095              ;# 991 "e:\x-sense_svn\xp02\xp02\src\main.c" 1
 991  0095              	IF (150000>=5) AND (150000<( 4 + __PBP__ * 2)) AND ( __PBP__ > 0 )
 991  0095              ;# 991 "e:\x-sense_svn\xp02\xp02\src\main.c" 1
 991  0095              	NOP
 991  0095              	ENDIF
 991  0095              ;# 991 "e:\x-sense_svn\xp02\xp02\src\main.c" 1
 991  0095              	IF (150000>=6) AND (150000<( 4 + __PBP__ * 2))  AND ( __PBP__ > 1 )
 991  0095              ;# 991 "e:\x-sense_svn\xp02\xp02\src\main.c" 1
 991  0095              	NOP
 991  0095              	ENDIF
 991  0095              ;# 991 "e:\x-sense_svn\xp02\xp02\src\main.c" 1
 991  0095              	IF (150000>=7) AND (150000<( 4 + __PBP__ * 2))  AND ( __PBP__ > 1 )
文件：main.c       编译器版本 HGASM 0202 页次47

 991  0095              ;# 991 "e:\x-sense_svn\xp02\xp02\src\main.c" 1
 991  0095              	NOP
 991  0095              	ENDIF
 991  0095              ;# 991 "e:\x-sense_svn\xp02\xp02\src\main.c" 1
 991  0095              	IF (150000>=8) AND (150000<( 4 + __PBP__ * 2))  AND ( __PBP__ > 2 )
 991  0095              ;# 991 "e:\x-sense_svn\xp02\xp02\src\main.c" 1
 991  0095              	NOP
 991  0095              	ENDIF
 991  0095              ;# 991 "e:\x-sense_svn\xp02\xp02\src\main.c" 1
 991  0095              	IF (150000==9)  AND ( __PBP__ > 2 )
 991  0095              ;# 991 "e:\x-sense_svn\xp02\xp02\src\main.c" 1
 991  0095              	NOP
 991  0095              	ENDIF
 991  0095              ;# 991 "e:\x-sense_svn\xp02\xp02\src\main.c" 1
 991  0095              	IF (150000< ( 8 + __PBP__ * 2)) AND (150000>( 3 + __PBP__ * 2))
 991  0095              ;# 991 "e:\x-sense_svn\xp02\xp02\src\main.c" 1
 991  0095              	fcall __DELAY3 + ( 7 + __PBP__ * 2) -150000
 991  0095              	ENDIF
 991  0095              ;# 991 "e:\x-sense_svn\xp02\xp02\src\main.c" 1
 991  0095              	IF (150000< ( 0404h + __PBP__ * 2)) AND (150000>( 7 + __PBP__ * 2))
 991  0095              ;# 991 "e:\x-sense_svn\xp02\xp02\src\main.c" 1
 991  0095              	MOV A,(150000-( 4 + __PBP__ * 2))/4
 991  0095              ;# 991 "e:\x-sense_svn\xp02\xp02\src\main.c" 1
 991  0095              	fcall __DELAYX3 + 3 -((150000-( 4 + __PBP__ * 2)) MOD 4) 
 991  0095              	ENDIF
 991  0095              ;# 991 "e:\x-sense_svn\xp02\xp02\src\main.c" 1
 991  0095              	IF (150000< ( 040bh + __PBP__ * 2)) AND (150000> ( 0403h + __PBP__ * 2))
 991  0095              ;# 991 "e:\x-sense_svn\xp02\xp02\src\main.c" 1
 991  0095              	MOV A,0 
 991  0095              ;# 991 "e:\x-sense_svn\xp02\xp02\src\main.c" 1
 991  0095              	fcall __DELAYX6 + ( 040ah + __PBP__ * 2) -150000
 991  0095              	ENDIF
 991  0095              ;# 991 "e:\x-sense_svn\xp02\xp02\src\main.c" 1
 991  0095              	IF (150000 >= ( 040bh + __PBP__ * 2)) AND ((((150000-( 9 + __PBP__ * 2))%0402h)/4+1)>256)
 991  0095              ;# 991 "e:\x-sense_svn\xp02\xp02\src\main.c" 1
 991  0095              	MOV A,(150000-( 9 + __PBP__ * 2))/0402h
 991  0095              ;# 991 "e:\x-sense_svn\xp02\xp02\src\main.c" 1
 991  0095              	MOV _builtin_holtek_delay_2,A
 991  0095              ;# 991 "e:\x-sense_svn\xp02\xp02\src\main.c" 1
 991  0095              	MOV A,0
 991  0095              ;# 991 "e:\x-sense_svn\xp02\xp02\src\main.c" 1
 991  0095              	fcall __DELAYY5 +5- (((150000-( 9 + __PBP__ * 2))%0402h)%6) 
 991  0095              	ENDIF
 991  0095              ;# 991 "e:\x-sense_svn\xp02\xp02\src\main.c" 1
 991  0095              	IF (150000 >= ( 040bh + __PBP__ * 2)) AND ((((150000-( 9 + __PBP__ * 2))%0402h)/4+1)<=256)
 991  0095              ;# 991 "e:\x-sense_svn\xp02\xp02\src\main.c" 1
 991  0095  0F92        	MOV A,(150000-( 9 + __PBP__ * 2))/0402h
 991  0096              ;# 991 "e:\x-sense_svn\xp02\xp02\src\main.c" 1
 991  0096  0080     E  	MOV _builtin_holtek_delay_2,A
 991  0097              ;# 991 "e:\x-sense_svn\xp02\xp02\src\main.c" 1
 991  0097  0F31        	MOV A,((150000-( 9 + __PBP__ * 2))%0402h)/4+1
 991  0098              ;# 991 "e:\x-sense_svn\xp02\xp02\src\main.c" 1
 991  0098              	fcall __DELAYY3 +3-(((150000-( 9 + __PBP__ * 2))%0402h)%4) 
 991  009F              	ENDIF
 992  009F              #line 992 "e:\x-sense_svn\xp02\xp02\src\main.c"
 992  009F              ;# 992 "e:\x-sense_svn\xp02\xp02\src\main.c" 1
 992  009F              	IF 150000>263690
 992  009F              ;# 992 "e:\x-sense_svn\xp02\xp02\src\main.c" 1
 992  009F              	ERRMESSAGE 'the value 150000of the argument exceeds the maxinum 263690'
 992  009F              	ENDIF
文件：main.c       编译器版本 HGASM 0202 页次48

 992  009F              ;# 992 "e:\x-sense_svn\xp02\xp02\src\main.c" 1
 992  009F              	IF 150000<0
 992  009F              ;# 992 "e:\x-sense_svn\xp02\xp02\src\main.c" 1
 992  009F              	ERRMESSAGE 'the value 150000 of the argument exceeds the mininum 0'
 992  009F              	ENDIF
 992  009F              ;# 992 "e:\x-sense_svn\xp02\xp02\src\main.c" 1
 992  009F              	IF 150000==0
 992  009F              ;# 992 "e:\x-sense_svn\xp02\xp02\src\main.c" 1
 992  009F              	JMP $
 992  009F              	ENDIF
 992  009F              ;# 992 "e:\x-sense_svn\xp02\xp02\src\main.c" 1
 992  009F              	IF (150000>=1) AND (150000<( 4 + __PBP__ * 2))
 992  009F              ;# 992 "e:\x-sense_svn\xp02\xp02\src\main.c" 1
 992  009F              	NOP
 992  009F              	ENDIF
 992  009F              ;# 992 "e:\x-sense_svn\xp02\xp02\src\main.c" 1
 992  009F              	IF (150000>=2) AND (150000<( 4 + __PBP__ * 2))
 992  009F              ;# 992 "e:\x-sense_svn\xp02\xp02\src\main.c" 1
 992  009F              	NOP
 992  009F              	ENDIF
 992  009F              ;# 992 "e:\x-sense_svn\xp02\xp02\src\main.c" 1
 992  009F              	IF (150000>=3) AND (150000<( 4 + __PBP__ * 2))
 992  009F              ;# 992 "e:\x-sense_svn\xp02\xp02\src\main.c" 1
 992  009F              	NOP
 992  009F              	ENDIF
 992  009F              ;# 992 "e:\x-sense_svn\xp02\xp02\src\main.c" 1
 992  009F              	IF (150000>=4) AND (150000<( 4 + __PBP__ * 2)) AND ( __PBP__ > 0 )
 992  009F              ;# 992 "e:\x-sense_svn\xp02\xp02\src\main.c" 1
 992  009F              	NOP
 992  009F              	ENDIF
 992  009F              ;# 992 "e:\x-sense_svn\xp02\xp02\src\main.c" 1
 992  009F              	IF (150000>=5) AND (150000<( 4 + __PBP__ * 2)) AND ( __PBP__ > 0 )
 992  009F              ;# 992 "e:\x-sense_svn\xp02\xp02\src\main.c" 1
 992  009F              	NOP
 992  009F              	ENDIF
 992  009F              ;# 992 "e:\x-sense_svn\xp02\xp02\src\main.c" 1
 992  009F              	IF (150000>=6) AND (150000<( 4 + __PBP__ * 2))  AND ( __PBP__ > 1 )
 992  009F              ;# 992 "e:\x-sense_svn\xp02\xp02\src\main.c" 1
 992  009F              	NOP
 992  009F              	ENDIF
 992  009F              ;# 992 "e:\x-sense_svn\xp02\xp02\src\main.c" 1
 992  009F              	IF (150000>=7) AND (150000<( 4 + __PBP__ * 2))  AND ( __PBP__ > 1 )
 992  009F              ;# 992 "e:\x-sense_svn\xp02\xp02\src\main.c" 1
 992  009F              	NOP
 992  009F              	ENDIF
 992  009F              ;# 992 "e:\x-sense_svn\xp02\xp02\src\main.c" 1
 992  009F              	IF (150000>=8) AND (150000<( 4 + __PBP__ * 2))  AND ( __PBP__ > 2 )
 992  009F              ;# 992 "e:\x-sense_svn\xp02\xp02\src\main.c" 1
 992  009F              	NOP
 992  009F              	ENDIF
 992  009F              ;# 992 "e:\x-sense_svn\xp02\xp02\src\main.c" 1
 992  009F              	IF (150000==9)  AND ( __PBP__ > 2 )
 992  009F              ;# 992 "e:\x-sense_svn\xp02\xp02\src\main.c" 1
 992  009F              	NOP
 992  009F              	ENDIF
 992  009F              ;# 992 "e:\x-sense_svn\xp02\xp02\src\main.c" 1
 992  009F              	IF (150000< ( 8 + __PBP__ * 2)) AND (150000>( 3 + __PBP__ * 2))
 992  009F              ;# 992 "e:\x-sense_svn\xp02\xp02\src\main.c" 1
 992  009F              	fcall __DELAY3 + ( 7 + __PBP__ * 2) -150000
 992  009F              	ENDIF
文件：main.c       编译器版本 HGASM 0202 页次49

 992  009F              ;# 992 "e:\x-sense_svn\xp02\xp02\src\main.c" 1
 992  009F              	IF (150000< ( 0404h + __PBP__ * 2)) AND (150000>( 7 + __PBP__ * 2))
 992  009F              ;# 992 "e:\x-sense_svn\xp02\xp02\src\main.c" 1
 992  009F              	MOV A,(150000-( 4 + __PBP__ * 2))/4
 992  009F              ;# 992 "e:\x-sense_svn\xp02\xp02\src\main.c" 1
 992  009F              	fcall __DELAYX3 + 3 -((150000-( 4 + __PBP__ * 2)) MOD 4) 
 992  009F              	ENDIF
 992  009F              ;# 992 "e:\x-sense_svn\xp02\xp02\src\main.c" 1
 992  009F              	IF (150000< ( 040bh + __PBP__ * 2)) AND (150000> ( 0403h + __PBP__ * 2))
 992  009F              ;# 992 "e:\x-sense_svn\xp02\xp02\src\main.c" 1
 992  009F              	MOV A,0 
 992  009F              ;# 992 "e:\x-sense_svn\xp02\xp02\src\main.c" 1
 992  009F              	fcall __DELAYX6 + ( 040ah + __PBP__ * 2) -150000
 992  009F              	ENDIF
 992  009F              ;# 992 "e:\x-sense_svn\xp02\xp02\src\main.c" 1
 992  009F              	IF (150000 >= ( 040bh + __PBP__ * 2)) AND ((((150000-( 9 + __PBP__ * 2))%0402h)/4+1)>256)
 992  009F              ;# 992 "e:\x-sense_svn\xp02\xp02\src\main.c" 1
 992  009F              	MOV A,(150000-( 9 + __PBP__ * 2))/0402h
 992  009F              ;# 992 "e:\x-sense_svn\xp02\xp02\src\main.c" 1
 992  009F              	MOV _builtin_holtek_delay_2,A
 992  009F              ;# 992 "e:\x-sense_svn\xp02\xp02\src\main.c" 1
 992  009F              	MOV A,0
 992  009F              ;# 992 "e:\x-sense_svn\xp02\xp02\src\main.c" 1
 992  009F              	fcall __DELAYY5 +5- (((150000-( 9 + __PBP__ * 2))%0402h)%6) 
 992  009F              	ENDIF
 992  009F              ;# 992 "e:\x-sense_svn\xp02\xp02\src\main.c" 1
 992  009F              	IF (150000 >= ( 040bh + __PBP__ * 2)) AND ((((150000-( 9 + __PBP__ * 2))%0402h)/4+1)<=256)
 992  009F              ;# 992 "e:\x-sense_svn\xp02\xp02\src\main.c" 1
 992  009F  0F92        	MOV A,(150000-( 9 + __PBP__ * 2))/0402h
 992  00A0              ;# 992 "e:\x-sense_svn\xp02\xp02\src\main.c" 1
 992  00A0  0080     E  	MOV _builtin_holtek_delay_2,A
 992  00A1              ;# 992 "e:\x-sense_svn\xp02\xp02\src\main.c" 1
 992  00A1  0F31        	MOV A,((150000-( 9 + __PBP__ * 2))%0402h)/4+1
 992  00A2              ;# 992 "e:\x-sense_svn\xp02\xp02\src\main.c" 1
 992  00A2              	fcall __DELAYY3 +3-(((150000-( 9 + __PBP__ * 2))%0402h)%4) 
 992  00A9              	ENDIF
 993  00A9              #line 993 "e:\x-sense_svn\xp02\xp02\src\main.c"
 993  00A9  3114        	set [20].2
 993  00AA  3218        	set [24].4
 994  00AB              #line 994 "e:\x-sense_svn\xp02\xp02\src\main.c"
 994  00AB              ;# 994 "e:\x-sense_svn\xp02\xp02\src\main.c" 1
 994  00AB              	IF 50000>263690
 994  00AB              ;# 994 "e:\x-sense_svn\xp02\xp02\src\main.c" 1
 994  00AB              	ERRMESSAGE 'the value 50000of the argument exceeds the maxinum 263690'
 994  00AB              	ENDIF
 994  00AB              ;# 994 "e:\x-sense_svn\xp02\xp02\src\main.c" 1
 994  00AB              	IF 50000<0
 994  00AB              ;# 994 "e:\x-sense_svn\xp02\xp02\src\main.c" 1
 994  00AB              	ERRMESSAGE 'the value 50000 of the argument exceeds the mininum 0'
 994  00AB              	ENDIF
 994  00AB              ;# 994 "e:\x-sense_svn\xp02\xp02\src\main.c" 1
 994  00AB              	IF 50000==0
 994  00AB              ;# 994 "e:\x-sense_svn\xp02\xp02\src\main.c" 1
 994  00AB              	JMP $
 994  00AB              	ENDIF
 994  00AB              ;# 994 "e:\x-sense_svn\xp02\xp02\src\main.c" 1
 994  00AB              	IF (50000>=1) AND (50000<( 4 + __PBP__ * 2))
 994  00AB              ;# 994 "e:\x-sense_svn\xp02\xp02\src\main.c" 1
 994  00AB              	NOP
 994  00AB              	ENDIF
文件：main.c       编译器版本 HGASM 0202 页次50

 994  00AB              ;# 994 "e:\x-sense_svn\xp02\xp02\src\main.c" 1
 994  00AB              	IF (50000>=2) AND (50000<( 4 + __PBP__ * 2))
 994  00AB              ;# 994 "e:\x-sense_svn\xp02\xp02\src\main.c" 1
 994  00AB              	NOP
 994  00AB              	ENDIF
 994  00AB              ;# 994 "e:\x-sense_svn\xp02\xp02\src\main.c" 1
 994  00AB              	IF (50000>=3) AND (50000<( 4 + __PBP__ * 2))
 994  00AB              ;# 994 "e:\x-sense_svn\xp02\xp02\src\main.c" 1
 994  00AB              	NOP
 994  00AB              	ENDIF
 994  00AB              ;# 994 "e:\x-sense_svn\xp02\xp02\src\main.c" 1
 994  00AB              	IF (50000>=4) AND (50000<( 4 + __PBP__ * 2)) AND ( __PBP__ > 0 )
 994  00AB              ;# 994 "e:\x-sense_svn\xp02\xp02\src\main.c" 1
 994  00AB              	NOP
 994  00AB              	ENDIF
 994  00AB              ;# 994 "e:\x-sense_svn\xp02\xp02\src\main.c" 1
 994  00AB              	IF (50000>=5) AND (50000<( 4 + __PBP__ * 2)) AND ( __PBP__ > 0 )
 994  00AB              ;# 994 "e:\x-sense_svn\xp02\xp02\src\main.c" 1
 994  00AB              	NOP
 994  00AB              	ENDIF
 994  00AB              ;# 994 "e:\x-sense_svn\xp02\xp02\src\main.c" 1
 994  00AB              	IF (50000>=6) AND (50000<( 4 + __PBP__ * 2))  AND ( __PBP__ > 1 )
 994  00AB              ;# 994 "e:\x-sense_svn\xp02\xp02\src\main.c" 1
 994  00AB              	NOP
 994  00AB              	ENDIF
 994  00AB              ;# 994 "e:\x-sense_svn\xp02\xp02\src\main.c" 1
 994  00AB              	IF (50000>=7) AND (50000<( 4 + __PBP__ * 2))  AND ( __PBP__ > 1 )
 994  00AB              ;# 994 "e:\x-sense_svn\xp02\xp02\src\main.c" 1
 994  00AB              	NOP
 994  00AB              	ENDIF
 994  00AB              ;# 994 "e:\x-sense_svn\xp02\xp02\src\main.c" 1
 994  00AB              	IF (50000>=8) AND (50000<( 4 + __PBP__ * 2))  AND ( __PBP__ > 2 )
 994  00AB              ;# 994 "e:\x-sense_svn\xp02\xp02\src\main.c" 1
 994  00AB              	NOP
 994  00AB              	ENDIF
 994  00AB              ;# 994 "e:\x-sense_svn\xp02\xp02\src\main.c" 1
 994  00AB              	IF (50000==9)  AND ( __PBP__ > 2 )
 994  00AB              ;# 994 "e:\x-sense_svn\xp02\xp02\src\main.c" 1
 994  00AB              	NOP
 994  00AB              	ENDIF
 994  00AB              ;# 994 "e:\x-sense_svn\xp02\xp02\src\main.c" 1
 994  00AB              	IF (50000< ( 8 + __PBP__ * 2)) AND (50000>( 3 + __PBP__ * 2))
 994  00AB              ;# 994 "e:\x-sense_svn\xp02\xp02\src\main.c" 1
 994  00AB              	fcall __DELAY3 + ( 7 + __PBP__ * 2) -50000
 994  00AB              	ENDIF
 994  00AB              ;# 994 "e:\x-sense_svn\xp02\xp02\src\main.c" 1
 994  00AB              	IF (50000< ( 0404h + __PBP__ * 2)) AND (50000>( 7 + __PBP__ * 2))
 994  00AB              ;# 994 "e:\x-sense_svn\xp02\xp02\src\main.c" 1
 994  00AB              	MOV A,(50000-( 4 + __PBP__ * 2))/4
 994  00AB              ;# 994 "e:\x-sense_svn\xp02\xp02\src\main.c" 1
 994  00AB              	fcall __DELAYX3 + 3 -((50000-( 4 + __PBP__ * 2)) MOD 4) 
 994  00AB              	ENDIF
 994  00AB              ;# 994 "e:\x-sense_svn\xp02\xp02\src\main.c" 1
 994  00AB              	IF (50000< ( 040bh + __PBP__ * 2)) AND (50000> ( 0403h + __PBP__ * 2))
 994  00AB              ;# 994 "e:\x-sense_svn\xp02\xp02\src\main.c" 1
 994  00AB              	MOV A,0 
 994  00AB              ;# 994 "e:\x-sense_svn\xp02\xp02\src\main.c" 1
 994  00AB              	fcall __DELAYX6 + ( 040ah + __PBP__ * 2) -50000
 994  00AB              	ENDIF
 994  00AB              ;# 994 "e:\x-sense_svn\xp02\xp02\src\main.c" 1
文件：main.c       编译器版本 HGASM 0202 页次51

 994  00AB              	IF (50000 >= ( 040bh + __PBP__ * 2)) AND ((((50000-( 9 + __PBP__ * 2))%0402h)/4+1)>256)
 994  00AB              ;# 994 "e:\x-sense_svn\xp02\xp02\src\main.c" 1
 994  00AB              	MOV A,(50000-( 9 + __PBP__ * 2))/0402h
 994  00AB              ;# 994 "e:\x-sense_svn\xp02\xp02\src\main.c" 1
 994  00AB              	MOV _builtin_holtek_delay_2,A
 994  00AB              ;# 994 "e:\x-sense_svn\xp02\xp02\src\main.c" 1
 994  00AB              	MOV A,0
 994  00AB              ;# 994 "e:\x-sense_svn\xp02\xp02\src\main.c" 1
 994  00AB              	fcall __DELAYY5 +5- (((50000-( 9 + __PBP__ * 2))%0402h)%6) 
 994  00AB              	ENDIF
 994  00AB              ;# 994 "e:\x-sense_svn\xp02\xp02\src\main.c" 1
 994  00AB              	IF (50000 >= ( 040bh + __PBP__ * 2)) AND ((((50000-( 9 + __PBP__ * 2))%0402h)/4+1)<=256)
 994  00AB              ;# 994 "e:\x-sense_svn\xp02\xp02\src\main.c" 1
 994  00AB  0F30        	MOV A,(50000-( 9 + __PBP__ * 2))/0402h
 994  00AC              ;# 994 "e:\x-sense_svn\xp02\xp02\src\main.c" 1
 994  00AC  0080     E  	MOV _builtin_holtek_delay_2,A
 994  00AD              ;# 994 "e:\x-sense_svn\xp02\xp02\src\main.c" 1
 994  00AD  0FBA        	MOV A,((50000-( 9 + __PBP__ * 2))%0402h)/4+1
 994  00AE              ;# 994 "e:\x-sense_svn\xp02\xp02\src\main.c" 1
 994  00AE              	fcall __DELAYY3 +3-(((50000-( 9 + __PBP__ * 2))%0402h)%4) 
 994  00B5              	ENDIF
 995  00B5              #line 995 "e:\x-sense_svn\xp02\xp02\src\main.c"
 995  00B5  3514        	clr [20].2
 995  00B6  2800     R  	jmp _L43
 995  00B7              _L39:
 999  00B7              #line 999 "e:\x-sense_svn\xp02\xp02\src\main.c"
 999  00B7  3114        	set [20].2
 999  00B8  3218        	set [24].4
1000  00B9              #line 1000 "e:\x-sense_svn\xp02\xp02\src\main.c"
1000  00B9              ;# 1000 "e:\x-sense_svn\xp02\xp02\src\main.c" 1
1000  00B9              	IF 50000>263690
1000  00B9              ;# 1000 "e:\x-sense_svn\xp02\xp02\src\main.c" 1
1000  00B9              	ERRMESSAGE 'the value 50000of the argument exceeds the maxinum 263690'
1000  00B9              	ENDIF
1000  00B9              ;# 1000 "e:\x-sense_svn\xp02\xp02\src\main.c" 1
1000  00B9              	IF 50000<0
1000  00B9              ;# 1000 "e:\x-sense_svn\xp02\xp02\src\main.c" 1
1000  00B9              	ERRMESSAGE 'the value 50000 of the argument exceeds the mininum 0'
1000  00B9              	ENDIF
1000  00B9              ;# 1000 "e:\x-sense_svn\xp02\xp02\src\main.c" 1
1000  00B9              	IF 50000==0
1000  00B9              ;# 1000 "e:\x-sense_svn\xp02\xp02\src\main.c" 1
1000  00B9              	JMP $
1000  00B9              	ENDIF
1000  00B9              ;# 1000 "e:\x-sense_svn\xp02\xp02\src\main.c" 1
1000  00B9              	IF (50000>=1) AND (50000<( 4 + __PBP__ * 2))
1000  00B9              ;# 1000 "e:\x-sense_svn\xp02\xp02\src\main.c" 1
1000  00B9              	NOP
1000  00B9              	ENDIF
1000  00B9              ;# 1000 "e:\x-sense_svn\xp02\xp02\src\main.c" 1
1000  00B9              	IF (50000>=2) AND (50000<( 4 + __PBP__ * 2))
1000  00B9              ;# 1000 "e:\x-sense_svn\xp02\xp02\src\main.c" 1
1000  00B9              	NOP
1000  00B9              	ENDIF
1000  00B9              ;# 1000 "e:\x-sense_svn\xp02\xp02\src\main.c" 1
1000  00B9              	IF (50000>=3) AND (50000<( 4 + __PBP__ * 2))
1000  00B9              ;# 1000 "e:\x-sense_svn\xp02\xp02\src\main.c" 1
1000  00B9              	NOP
1000  00B9              	ENDIF
1000  00B9              ;# 1000 "e:\x-sense_svn\xp02\xp02\src\main.c" 1
文件：main.c       编译器版本 HGASM 0202 页次52

1000  00B9              	IF (50000>=4) AND (50000<( 4 + __PBP__ * 2)) AND ( __PBP__ > 0 )
1000  00B9              ;# 1000 "e:\x-sense_svn\xp02\xp02\src\main.c" 1
1000  00B9              	NOP
1000  00B9              	ENDIF
1000  00B9              ;# 1000 "e:\x-sense_svn\xp02\xp02\src\main.c" 1
1000  00B9              	IF (50000>=5) AND (50000<( 4 + __PBP__ * 2)) AND ( __PBP__ > 0 )
1000  00B9              ;# 1000 "e:\x-sense_svn\xp02\xp02\src\main.c" 1
1000  00B9              	NOP
1000  00B9              	ENDIF
1000  00B9              ;# 1000 "e:\x-sense_svn\xp02\xp02\src\main.c" 1
1000  00B9              	IF (50000>=6) AND (50000<( 4 + __PBP__ * 2))  AND ( __PBP__ > 1 )
1000  00B9              ;# 1000 "e:\x-sense_svn\xp02\xp02\src\main.c" 1
1000  00B9              	NOP
1000  00B9              	ENDIF
1000  00B9              ;# 1000 "e:\x-sense_svn\xp02\xp02\src\main.c" 1
1000  00B9              	IF (50000>=7) AND (50000<( 4 + __PBP__ * 2))  AND ( __PBP__ > 1 )
1000  00B9              ;# 1000 "e:\x-sense_svn\xp02\xp02\src\main.c" 1
1000  00B9              	NOP
1000  00B9              	ENDIF
1000  00B9              ;# 1000 "e:\x-sense_svn\xp02\xp02\src\main.c" 1
1000  00B9              	IF (50000>=8) AND (50000<( 4 + __PBP__ * 2))  AND ( __PBP__ > 2 )
1000  00B9              ;# 1000 "e:\x-sense_svn\xp02\xp02\src\main.c" 1
1000  00B9              	NOP
1000  00B9              	ENDIF
1000  00B9              ;# 1000 "e:\x-sense_svn\xp02\xp02\src\main.c" 1
1000  00B9              	IF (50000==9)  AND ( __PBP__ > 2 )
1000  00B9              ;# 1000 "e:\x-sense_svn\xp02\xp02\src\main.c" 1
1000  00B9              	NOP
1000  00B9              	ENDIF
1000  00B9              ;# 1000 "e:\x-sense_svn\xp02\xp02\src\main.c" 1
1000  00B9              	IF (50000< ( 8 + __PBP__ * 2)) AND (50000>( 3 + __PBP__ * 2))
1000  00B9              ;# 1000 "e:\x-sense_svn\xp02\xp02\src\main.c" 1
1000  00B9              	fcall __DELAY3 + ( 7 + __PBP__ * 2) -50000
1000  00B9              	ENDIF
1000  00B9              ;# 1000 "e:\x-sense_svn\xp02\xp02\src\main.c" 1
1000  00B9              	IF (50000< ( 0404h + __PBP__ * 2)) AND (50000>( 7 + __PBP__ * 2))
1000  00B9              ;# 1000 "e:\x-sense_svn\xp02\xp02\src\main.c" 1
1000  00B9              	MOV A,(50000-( 4 + __PBP__ * 2))/4
1000  00B9              ;# 1000 "e:\x-sense_svn\xp02\xp02\src\main.c" 1
1000  00B9              	fcall __DELAYX3 + 3 -((50000-( 4 + __PBP__ * 2)) MOD 4) 
1000  00B9              	ENDIF
1000  00B9              ;# 1000 "e:\x-sense_svn\xp02\xp02\src\main.c" 1
1000  00B9              	IF (50000< ( 040bh + __PBP__ * 2)) AND (50000> ( 0403h + __PBP__ * 2))
1000  00B9              ;# 1000 "e:\x-sense_svn\xp02\xp02\src\main.c" 1
1000  00B9              	MOV A,0 
1000  00B9              ;# 1000 "e:\x-sense_svn\xp02\xp02\src\main.c" 1
1000  00B9              	fcall __DELAYX6 + ( 040ah + __PBP__ * 2) -50000
1000  00B9              	ENDIF
1000  00B9              ;# 1000 "e:\x-sense_svn\xp02\xp02\src\main.c" 1
1000  00B9              	IF (50000 >= ( 040bh + __PBP__ * 2)) AND ((((50000-( 9 + __PBP__ * 2))%0402h)/4+1)>256)
1000  00B9              ;# 1000 "e:\x-sense_svn\xp02\xp02\src\main.c" 1
1000  00B9              	MOV A,(50000-( 9 + __PBP__ * 2))/0402h
1000  00B9              ;# 1000 "e:\x-sense_svn\xp02\xp02\src\main.c" 1
1000  00B9              	MOV _builtin_holtek_delay_2,A
1000  00B9              ;# 1000 "e:\x-sense_svn\xp02\xp02\src\main.c" 1
1000  00B9              	MOV A,0
1000  00B9              ;# 1000 "e:\x-sense_svn\xp02\xp02\src\main.c" 1
1000  00B9              	fcall __DELAYY5 +5- (((50000-( 9 + __PBP__ * 2))%0402h)%6) 
1000  00B9              	ENDIF
1000  00B9              ;# 1000 "e:\x-sense_svn\xp02\xp02\src\main.c" 1
文件：main.c       编译器版本 HGASM 0202 页次53

1000  00B9              	IF (50000 >= ( 040bh + __PBP__ * 2)) AND ((((50000-( 9 + __PBP__ * 2))%0402h)/4+1)<=256)
1000  00B9              ;# 1000 "e:\x-sense_svn\xp02\xp02\src\main.c" 1
1000  00B9  0F30        	MOV A,(50000-( 9 + __PBP__ * 2))/0402h
1000  00BA              ;# 1000 "e:\x-sense_svn\xp02\xp02\src\main.c" 1
1000  00BA  0080     E  	MOV _builtin_holtek_delay_2,A
1000  00BB              ;# 1000 "e:\x-sense_svn\xp02\xp02\src\main.c" 1
1000  00BB  0FBA        	MOV A,((50000-( 9 + __PBP__ * 2))%0402h)/4+1
1000  00BC              ;# 1000 "e:\x-sense_svn\xp02\xp02\src\main.c" 1
1000  00BC              	fcall __DELAYY3 +3-(((50000-( 9 + __PBP__ * 2))%0402h)%4) 
1000  00C3              	ENDIF
1001  00C3              #line 1001 "e:\x-sense_svn\xp02\xp02\src\main.c"
1001  00C3  3514        	clr [20].2
1001  00C4              _L44:
1001  00C4  3618        	clr [24].4
1002  00C5              #line 1002 "e:\x-sense_svn\xp02\xp02\src\main.c"
1002  00C5              ;# 1002 "e:\x-sense_svn\xp02\xp02\src\main.c" 1
1002  00C5              	IF 150000>263690
1002  00C5              ;# 1002 "e:\x-sense_svn\xp02\xp02\src\main.c" 1
1002  00C5              	ERRMESSAGE 'the value 150000of the argument exceeds the maxinum 263690'
1002  00C5              	ENDIF
1002  00C5              ;# 1002 "e:\x-sense_svn\xp02\xp02\src\main.c" 1
1002  00C5              	IF 150000<0
1002  00C5              ;# 1002 "e:\x-sense_svn\xp02\xp02\src\main.c" 1
1002  00C5              	ERRMESSAGE 'the value 150000 of the argument exceeds the mininum 0'
1002  00C5              	ENDIF
1002  00C5              ;# 1002 "e:\x-sense_svn\xp02\xp02\src\main.c" 1
1002  00C5              	IF 150000==0
1002  00C5              ;# 1002 "e:\x-sense_svn\xp02\xp02\src\main.c" 1
1002  00C5              	JMP $
1002  00C5              	ENDIF
1002  00C5              ;# 1002 "e:\x-sense_svn\xp02\xp02\src\main.c" 1
1002  00C5              	IF (150000>=1) AND (150000<( 4 + __PBP__ * 2))
1002  00C5              ;# 1002 "e:\x-sense_svn\xp02\xp02\src\main.c" 1
1002  00C5              	NOP
1002  00C5              	ENDIF
1002  00C5              ;# 1002 "e:\x-sense_svn\xp02\xp02\src\main.c" 1
1002  00C5              	IF (150000>=2) AND (150000<( 4 + __PBP__ * 2))
1002  00C5              ;# 1002 "e:\x-sense_svn\xp02\xp02\src\main.c" 1
1002  00C5              	NOP
1002  00C5              	ENDIF
1002  00C5              ;# 1002 "e:\x-sense_svn\xp02\xp02\src\main.c" 1
1002  00C5              	IF (150000>=3) AND (150000<( 4 + __PBP__ * 2))
1002  00C5              ;# 1002 "e:\x-sense_svn\xp02\xp02\src\main.c" 1
1002  00C5              	NOP
1002  00C5              	ENDIF
1002  00C5              ;# 1002 "e:\x-sense_svn\xp02\xp02\src\main.c" 1
1002  00C5              	IF (150000>=4) AND (150000<( 4 + __PBP__ * 2)) AND ( __PBP__ > 0 )
1002  00C5              ;# 1002 "e:\x-sense_svn\xp02\xp02\src\main.c" 1
1002  00C5              	NOP
1002  00C5              	ENDIF
1002  00C5              ;# 1002 "e:\x-sense_svn\xp02\xp02\src\main.c" 1
1002  00C5              	IF (150000>=5) AND (150000<( 4 + __PBP__ * 2)) AND ( __PBP__ > 0 )
1002  00C5              ;# 1002 "e:\x-sense_svn\xp02\xp02\src\main.c" 1
1002  00C5              	NOP
1002  00C5              	ENDIF
1002  00C5              ;# 1002 "e:\x-sense_svn\xp02\xp02\src\main.c" 1
1002  00C5              	IF (150000>=6) AND (150000<( 4 + __PBP__ * 2))  AND ( __PBP__ > 1 )
1002  00C5              ;# 1002 "e:\x-sense_svn\xp02\xp02\src\main.c" 1
1002  00C5              	NOP
1002  00C5              	ENDIF
文件：main.c       编译器版本 HGASM 0202 页次54

1002  00C5              ;# 1002 "e:\x-sense_svn\xp02\xp02\src\main.c" 1
1002  00C5              	IF (150000>=7) AND (150000<( 4 + __PBP__ * 2))  AND ( __PBP__ > 1 )
1002  00C5              ;# 1002 "e:\x-sense_svn\xp02\xp02\src\main.c" 1
1002  00C5              	NOP
1002  00C5              	ENDIF
1002  00C5              ;# 1002 "e:\x-sense_svn\xp02\xp02\src\main.c" 1
1002  00C5              	IF (150000>=8) AND (150000<( 4 + __PBP__ * 2))  AND ( __PBP__ > 2 )
1002  00C5              ;# 1002 "e:\x-sense_svn\xp02\xp02\src\main.c" 1
1002  00C5              	NOP
1002  00C5              	ENDIF
1002  00C5              ;# 1002 "e:\x-sense_svn\xp02\xp02\src\main.c" 1
1002  00C5              	IF (150000==9)  AND ( __PBP__ > 2 )
1002  00C5              ;# 1002 "e:\x-sense_svn\xp02\xp02\src\main.c" 1
1002  00C5              	NOP
1002  00C5              	ENDIF
1002  00C5              ;# 1002 "e:\x-sense_svn\xp02\xp02\src\main.c" 1
1002  00C5              	IF (150000< ( 8 + __PBP__ * 2)) AND (150000>( 3 + __PBP__ * 2))
1002  00C5              ;# 1002 "e:\x-sense_svn\xp02\xp02\src\main.c" 1
1002  00C5              	fcall __DELAY3 + ( 7 + __PBP__ * 2) -150000
1002  00C5              	ENDIF
1002  00C5              ;# 1002 "e:\x-sense_svn\xp02\xp02\src\main.c" 1
1002  00C5              	IF (150000< ( 0404h + __PBP__ * 2)) AND (150000>( 7 + __PBP__ * 2))
1002  00C5              ;# 1002 "e:\x-sense_svn\xp02\xp02\src\main.c" 1
1002  00C5              	MOV A,(150000-( 4 + __PBP__ * 2))/4
1002  00C5              ;# 1002 "e:\x-sense_svn\xp02\xp02\src\main.c" 1
1002  00C5              	fcall __DELAYX3 + 3 -((150000-( 4 + __PBP__ * 2)) MOD 4) 
1002  00C5              	ENDIF
1002  00C5              ;# 1002 "e:\x-sense_svn\xp02\xp02\src\main.c" 1
1002  00C5              	IF (150000< ( 040bh + __PBP__ * 2)) AND (150000> ( 0403h + __PBP__ * 2))
1002  00C5              ;# 1002 "e:\x-sense_svn\xp02\xp02\src\main.c" 1
1002  00C5              	MOV A,0 
1002  00C5              ;# 1002 "e:\x-sense_svn\xp02\xp02\src\main.c" 1
1002  00C5              	fcall __DELAYX6 + ( 040ah + __PBP__ * 2) -150000
1002  00C5              	ENDIF
1002  00C5              ;# 1002 "e:\x-sense_svn\xp02\xp02\src\main.c" 1
1002  00C5              	IF (150000 >= ( 040bh + __PBP__ * 2)) AND ((((150000-( 9 + __PBP__ * 2))%0402h)/4+1)>256)
1002  00C5              ;# 1002 "e:\x-sense_svn\xp02\xp02\src\main.c" 1
1002  00C5              	MOV A,(150000-( 9 + __PBP__ * 2))/0402h
1002  00C5              ;# 1002 "e:\x-sense_svn\xp02\xp02\src\main.c" 1
1002  00C5              	MOV _builtin_holtek_delay_2,A
1002  00C5              ;# 1002 "e:\x-sense_svn\xp02\xp02\src\main.c" 1
1002  00C5              	MOV A,0
1002  00C5              ;# 1002 "e:\x-sense_svn\xp02\xp02\src\main.c" 1
1002  00C5              	fcall __DELAYY5 +5- (((150000-( 9 + __PBP__ * 2))%0402h)%6) 
1002  00C5              	ENDIF
1002  00C5              ;# 1002 "e:\x-sense_svn\xp02\xp02\src\main.c" 1
1002  00C5              	IF (150000 >= ( 040bh + __PBP__ * 2)) AND ((((150000-( 9 + __PBP__ * 2))%0402h)/4+1)<=256)
1002  00C5              ;# 1002 "e:\x-sense_svn\xp02\xp02\src\main.c" 1
1002  00C5  0F92        	MOV A,(150000-( 9 + __PBP__ * 2))/0402h
1002  00C6              ;# 1002 "e:\x-sense_svn\xp02\xp02\src\main.c" 1
1002  00C6  0080     E  	MOV _builtin_holtek_delay_2,A
1002  00C7              ;# 1002 "e:\x-sense_svn\xp02\xp02\src\main.c" 1
1002  00C7  0F31        	MOV A,((150000-( 9 + __PBP__ * 2))%0402h)/4+1
1002  00C8              ;# 1002 "e:\x-sense_svn\xp02\xp02\src\main.c" 1
1002  00C8              	fcall __DELAYY3 +3-(((150000-( 9 + __PBP__ * 2))%0402h)%4) 
1002  00CF              	ENDIF
1003  00CF              #line 1003 "e:\x-sense_svn\xp02\xp02\src\main.c"
1003  00CF              ;# 1003 "e:\x-sense_svn\xp02\xp02\src\main.c" 1
1003  00CF              	IF 150000>263690
1003  00CF              ;# 1003 "e:\x-sense_svn\xp02\xp02\src\main.c" 1
文件：main.c       编译器版本 HGASM 0202 页次55

1003  00CF              	ERRMESSAGE 'the value 150000of the argument exceeds the maxinum 263690'
1003  00CF              	ENDIF
1003  00CF              ;# 1003 "e:\x-sense_svn\xp02\xp02\src\main.c" 1
1003  00CF              	IF 150000<0
1003  00CF              ;# 1003 "e:\x-sense_svn\xp02\xp02\src\main.c" 1
1003  00CF              	ERRMESSAGE 'the value 150000 of the argument exceeds the mininum 0'
1003  00CF              	ENDIF
1003  00CF              ;# 1003 "e:\x-sense_svn\xp02\xp02\src\main.c" 1
1003  00CF              	IF 150000==0
1003  00CF              ;# 1003 "e:\x-sense_svn\xp02\xp02\src\main.c" 1
1003  00CF              	JMP $
1003  00CF              	ENDIF
1003  00CF              ;# 1003 "e:\x-sense_svn\xp02\xp02\src\main.c" 1
1003  00CF              	IF (150000>=1) AND (150000<( 4 + __PBP__ * 2))
1003  00CF              ;# 1003 "e:\x-sense_svn\xp02\xp02\src\main.c" 1
1003  00CF              	NOP
1003  00CF              	ENDIF
1003  00CF              ;# 1003 "e:\x-sense_svn\xp02\xp02\src\main.c" 1
1003  00CF              	IF (150000>=2) AND (150000<( 4 + __PBP__ * 2))
1003  00CF              ;# 1003 "e:\x-sense_svn\xp02\xp02\src\main.c" 1
1003  00CF              	NOP
1003  00CF              	ENDIF
1003  00CF              ;# 1003 "e:\x-sense_svn\xp02\xp02\src\main.c" 1
1003  00CF              	IF (150000>=3) AND (150000<( 4 + __PBP__ * 2))
1003  00CF              ;# 1003 "e:\x-sense_svn\xp02\xp02\src\main.c" 1
1003  00CF              	NOP
1003  00CF              	ENDIF
1003  00CF              ;# 1003 "e:\x-sense_svn\xp02\xp02\src\main.c" 1
1003  00CF              	IF (150000>=4) AND (150000<( 4 + __PBP__ * 2)) AND ( __PBP__ > 0 )
1003  00CF              ;# 1003 "e:\x-sense_svn\xp02\xp02\src\main.c" 1
1003  00CF              	NOP
1003  00CF              	ENDIF
1003  00CF              ;# 1003 "e:\x-sense_svn\xp02\xp02\src\main.c" 1
1003  00CF              	IF (150000>=5) AND (150000<( 4 + __PBP__ * 2)) AND ( __PBP__ > 0 )
1003  00CF              ;# 1003 "e:\x-sense_svn\xp02\xp02\src\main.c" 1
1003  00CF              	NOP
1003  00CF              	ENDIF
1003  00CF              ;# 1003 "e:\x-sense_svn\xp02\xp02\src\main.c" 1
1003  00CF              	IF (150000>=6) AND (150000<( 4 + __PBP__ * 2))  AND ( __PBP__ > 1 )
1003  00CF              ;# 1003 "e:\x-sense_svn\xp02\xp02\src\main.c" 1
1003  00CF              	NOP
1003  00CF              	ENDIF
1003  00CF              ;# 1003 "e:\x-sense_svn\xp02\xp02\src\main.c" 1
1003  00CF              	IF (150000>=7) AND (150000<( 4 + __PBP__ * 2))  AND ( __PBP__ > 1 )
1003  00CF              ;# 1003 "e:\x-sense_svn\xp02\xp02\src\main.c" 1
1003  00CF              	NOP
1003  00CF              	ENDIF
1003  00CF              ;# 1003 "e:\x-sense_svn\xp02\xp02\src\main.c" 1
1003  00CF              	IF (150000>=8) AND (150000<( 4 + __PBP__ * 2))  AND ( __PBP__ > 2 )
1003  00CF              ;# 1003 "e:\x-sense_svn\xp02\xp02\src\main.c" 1
1003  00CF              	NOP
1003  00CF              	ENDIF
1003  00CF              ;# 1003 "e:\x-sense_svn\xp02\xp02\src\main.c" 1
1003  00CF              	IF (150000==9)  AND ( __PBP__ > 2 )
1003  00CF              ;# 1003 "e:\x-sense_svn\xp02\xp02\src\main.c" 1
1003  00CF              	NOP
1003  00CF              	ENDIF
1003  00CF              ;# 1003 "e:\x-sense_svn\xp02\xp02\src\main.c" 1
1003  00CF              	IF (150000< ( 8 + __PBP__ * 2)) AND (150000>( 3 + __PBP__ * 2))
1003  00CF              ;# 1003 "e:\x-sense_svn\xp02\xp02\src\main.c" 1
文件：main.c       编译器版本 HGASM 0202 页次56

1003  00CF              	fcall __DELAY3 + ( 7 + __PBP__ * 2) -150000
1003  00CF              	ENDIF
1003  00CF              ;# 1003 "e:\x-sense_svn\xp02\xp02\src\main.c" 1
1003  00CF              	IF (150000< ( 0404h + __PBP__ * 2)) AND (150000>( 7 + __PBP__ * 2))
1003  00CF              ;# 1003 "e:\x-sense_svn\xp02\xp02\src\main.c" 1
1003  00CF              	MOV A,(150000-( 4 + __PBP__ * 2))/4
1003  00CF              ;# 1003 "e:\x-sense_svn\xp02\xp02\src\main.c" 1
1003  00CF              	fcall __DELAYX3 + 3 -((150000-( 4 + __PBP__ * 2)) MOD 4) 
1003  00CF              	ENDIF
1003  00CF              ;# 1003 "e:\x-sense_svn\xp02\xp02\src\main.c" 1
1003  00CF              	IF (150000< ( 040bh + __PBP__ * 2)) AND (150000> ( 0403h + __PBP__ * 2))
1003  00CF              ;# 1003 "e:\x-sense_svn\xp02\xp02\src\main.c" 1
1003  00CF              	MOV A,0 
1003  00CF              ;# 1003 "e:\x-sense_svn\xp02\xp02\src\main.c" 1
1003  00CF              	fcall __DELAYX6 + ( 040ah + __PBP__ * 2) -150000
1003  00CF              	ENDIF
1003  00CF              ;# 1003 "e:\x-sense_svn\xp02\xp02\src\main.c" 1
1003  00CF              	IF (150000 >= ( 040bh + __PBP__ * 2)) AND ((((150000-( 9 + __PBP__ * 2))%0402h)/4+1)>256)
1003  00CF              ;# 1003 "e:\x-sense_svn\xp02\xp02\src\main.c" 1
1003  00CF              	MOV A,(150000-( 9 + __PBP__ * 2))/0402h
1003  00CF              ;# 1003 "e:\x-sense_svn\xp02\xp02\src\main.c" 1
1003  00CF              	MOV _builtin_holtek_delay_2,A
1003  00CF              ;# 1003 "e:\x-sense_svn\xp02\xp02\src\main.c" 1
1003  00CF              	MOV A,0
1003  00CF              ;# 1003 "e:\x-sense_svn\xp02\xp02\src\main.c" 1
1003  00CF              	fcall __DELAYY5 +5- (((150000-( 9 + __PBP__ * 2))%0402h)%6) 
1003  00CF              	ENDIF
1003  00CF              ;# 1003 "e:\x-sense_svn\xp02\xp02\src\main.c" 1
1003  00CF              	IF (150000 >= ( 040bh + __PBP__ * 2)) AND ((((150000-( 9 + __PBP__ * 2))%0402h)/4+1)<=256)
1003  00CF              ;# 1003 "e:\x-sense_svn\xp02\xp02\src\main.c" 1
1003  00CF  0F92        	MOV A,(150000-( 9 + __PBP__ * 2))/0402h
1003  00D0              ;# 1003 "e:\x-sense_svn\xp02\xp02\src\main.c" 1
1003  00D0  0080     E  	MOV _builtin_holtek_delay_2,A
1003  00D1              ;# 1003 "e:\x-sense_svn\xp02\xp02\src\main.c" 1
1003  00D1  0F31        	MOV A,((150000-( 9 + __PBP__ * 2))%0402h)/4+1
1003  00D2              ;# 1003 "e:\x-sense_svn\xp02\xp02\src\main.c" 1
1003  00D2              	fcall __DELAYY3 +3-(((150000-( 9 + __PBP__ * 2))%0402h)%4) 
1003  00D9              	ENDIF
1004  00D9              #line 1004 "e:\x-sense_svn\xp02\xp02\src\main.c"
1004  00D9  3114        	set [20].2
1005  00DA              #line 1005 "e:\x-sense_svn\xp02\xp02\src\main.c"
1005  00DA              ;# 1005 "e:\x-sense_svn\xp02\xp02\src\main.c" 1
1005  00DA              	IF 50000>263690
1005  00DA              ;# 1005 "e:\x-sense_svn\xp02\xp02\src\main.c" 1
1005  00DA              	ERRMESSAGE 'the value 50000of the argument exceeds the maxinum 263690'
1005  00DA              	ENDIF
1005  00DA              ;# 1005 "e:\x-sense_svn\xp02\xp02\src\main.c" 1
1005  00DA              	IF 50000<0
1005  00DA              ;# 1005 "e:\x-sense_svn\xp02\xp02\src\main.c" 1
1005  00DA              	ERRMESSAGE 'the value 50000 of the argument exceeds the mininum 0'
1005  00DA              	ENDIF
1005  00DA              ;# 1005 "e:\x-sense_svn\xp02\xp02\src\main.c" 1
1005  00DA              	IF 50000==0
1005  00DA              ;# 1005 "e:\x-sense_svn\xp02\xp02\src\main.c" 1
1005  00DA              	JMP $
1005  00DA              	ENDIF
1005  00DA              ;# 1005 "e:\x-sense_svn\xp02\xp02\src\main.c" 1
1005  00DA              	IF (50000>=1) AND (50000<( 4 + __PBP__ * 2))
1005  00DA              ;# 1005 "e:\x-sense_svn\xp02\xp02\src\main.c" 1
1005  00DA              	NOP
文件：main.c       编译器版本 HGASM 0202 页次57

1005  00DA              	ENDIF
1005  00DA              ;# 1005 "e:\x-sense_svn\xp02\xp02\src\main.c" 1
1005  00DA              	IF (50000>=2) AND (50000<( 4 + __PBP__ * 2))
1005  00DA              ;# 1005 "e:\x-sense_svn\xp02\xp02\src\main.c" 1
1005  00DA              	NOP
1005  00DA              	ENDIF
1005  00DA              ;# 1005 "e:\x-sense_svn\xp02\xp02\src\main.c" 1
1005  00DA              	IF (50000>=3) AND (50000<( 4 + __PBP__ * 2))
1005  00DA              ;# 1005 "e:\x-sense_svn\xp02\xp02\src\main.c" 1
1005  00DA              	NOP
1005  00DA              	ENDIF
1005  00DA              ;# 1005 "e:\x-sense_svn\xp02\xp02\src\main.c" 1
1005  00DA              	IF (50000>=4) AND (50000<( 4 + __PBP__ * 2)) AND ( __PBP__ > 0 )
1005  00DA              ;# 1005 "e:\x-sense_svn\xp02\xp02\src\main.c" 1
1005  00DA              	NOP
1005  00DA              	ENDIF
1005  00DA              ;# 1005 "e:\x-sense_svn\xp02\xp02\src\main.c" 1
1005  00DA              	IF (50000>=5) AND (50000<( 4 + __PBP__ * 2)) AND ( __PBP__ > 0 )
1005  00DA              ;# 1005 "e:\x-sense_svn\xp02\xp02\src\main.c" 1
1005  00DA              	NOP
1005  00DA              	ENDIF
1005  00DA              ;# 1005 "e:\x-sense_svn\xp02\xp02\src\main.c" 1
1005  00DA              	IF (50000>=6) AND (50000<( 4 + __PBP__ * 2))  AND ( __PBP__ > 1 )
1005  00DA              ;# 1005 "e:\x-sense_svn\xp02\xp02\src\main.c" 1
1005  00DA              	NOP
1005  00DA              	ENDIF
1005  00DA              ;# 1005 "e:\x-sense_svn\xp02\xp02\src\main.c" 1
1005  00DA              	IF (50000>=7) AND (50000<( 4 + __PBP__ * 2))  AND ( __PBP__ > 1 )
1005  00DA              ;# 1005 "e:\x-sense_svn\xp02\xp02\src\main.c" 1
1005  00DA              	NOP
1005  00DA              	ENDIF
1005  00DA              ;# 1005 "e:\x-sense_svn\xp02\xp02\src\main.c" 1
1005  00DA              	IF (50000>=8) AND (50000<( 4 + __PBP__ * 2))  AND ( __PBP__ > 2 )
1005  00DA              ;# 1005 "e:\x-sense_svn\xp02\xp02\src\main.c" 1
1005  00DA              	NOP
1005  00DA              	ENDIF
1005  00DA              ;# 1005 "e:\x-sense_svn\xp02\xp02\src\main.c" 1
1005  00DA              	IF (50000==9)  AND ( __PBP__ > 2 )
1005  00DA              ;# 1005 "e:\x-sense_svn\xp02\xp02\src\main.c" 1
1005  00DA              	NOP
1005  00DA              	ENDIF
1005  00DA              ;# 1005 "e:\x-sense_svn\xp02\xp02\src\main.c" 1
1005  00DA              	IF (50000< ( 8 + __PBP__ * 2)) AND (50000>( 3 + __PBP__ * 2))
1005  00DA              ;# 1005 "e:\x-sense_svn\xp02\xp02\src\main.c" 1
1005  00DA              	fcall __DELAY3 + ( 7 + __PBP__ * 2) -50000
1005  00DA              	ENDIF
1005  00DA              ;# 1005 "e:\x-sense_svn\xp02\xp02\src\main.c" 1
1005  00DA              	IF (50000< ( 0404h + __PBP__ * 2)) AND (50000>( 7 + __PBP__ * 2))
1005  00DA              ;# 1005 "e:\x-sense_svn\xp02\xp02\src\main.c" 1
1005  00DA              	MOV A,(50000-( 4 + __PBP__ * 2))/4
1005  00DA              ;# 1005 "e:\x-sense_svn\xp02\xp02\src\main.c" 1
1005  00DA              	fcall __DELAYX3 + 3 -((50000-( 4 + __PBP__ * 2)) MOD 4) 
1005  00DA              	ENDIF
1005  00DA              ;# 1005 "e:\x-sense_svn\xp02\xp02\src\main.c" 1
1005  00DA              	IF (50000< ( 040bh + __PBP__ * 2)) AND (50000> ( 0403h + __PBP__ * 2))
1005  00DA              ;# 1005 "e:\x-sense_svn\xp02\xp02\src\main.c" 1
1005  00DA              	MOV A,0 
1005  00DA              ;# 1005 "e:\x-sense_svn\xp02\xp02\src\main.c" 1
1005  00DA              	fcall __DELAYX6 + ( 040ah + __PBP__ * 2) -50000
1005  00DA              	ENDIF
文件：main.c       编译器版本 HGASM 0202 页次58

1005  00DA              ;# 1005 "e:\x-sense_svn\xp02\xp02\src\main.c" 1
1005  00DA              	IF (50000 >= ( 040bh + __PBP__ * 2)) AND ((((50000-( 9 + __PBP__ * 2))%0402h)/4+1)>256)
1005  00DA              ;# 1005 "e:\x-sense_svn\xp02\xp02\src\main.c" 1
1005  00DA              	MOV A,(50000-( 9 + __PBP__ * 2))/0402h
1005  00DA              ;# 1005 "e:\x-sense_svn\xp02\xp02\src\main.c" 1
1005  00DA              	MOV _builtin_holtek_delay_2,A
1005  00DA              ;# 1005 "e:\x-sense_svn\xp02\xp02\src\main.c" 1
1005  00DA              	MOV A,0
1005  00DA              ;# 1005 "e:\x-sense_svn\xp02\xp02\src\main.c" 1
1005  00DA              	fcall __DELAYY5 +5- (((50000-( 9 + __PBP__ * 2))%0402h)%6) 
1005  00DA              	ENDIF
1005  00DA              ;# 1005 "e:\x-sense_svn\xp02\xp02\src\main.c" 1
1005  00DA              	IF (50000 >= ( 040bh + __PBP__ * 2)) AND ((((50000-( 9 + __PBP__ * 2))%0402h)/4+1)<=256)
1005  00DA              ;# 1005 "e:\x-sense_svn\xp02\xp02\src\main.c" 1
1005  00DA  0F30        	MOV A,(50000-( 9 + __PBP__ * 2))/0402h
1005  00DB              ;# 1005 "e:\x-sense_svn\xp02\xp02\src\main.c" 1
1005  00DB  0080     E  	MOV _builtin_holtek_delay_2,A
1005  00DC              ;# 1005 "e:\x-sense_svn\xp02\xp02\src\main.c" 1
1005  00DC  0FBA        	MOV A,((50000-( 9 + __PBP__ * 2))%0402h)/4+1
1005  00DD              ;# 1005 "e:\x-sense_svn\xp02\xp02\src\main.c" 1
1005  00DD              	fcall __DELAYY3 +3-(((50000-( 9 + __PBP__ * 2))%0402h)%4) 
1005  00E4              	ENDIF
1006  00E4              #line 1006 "e:\x-sense_svn\xp02\xp02\src\main.c"
1006  00E4  3514        	clr [20].2
1007  00E5              #line 1007 "e:\x-sense_svn\xp02\xp02\src\main.c"
1007  00E5  2800     R  	jmp _L31
1007  00E6              _L45:
1015  00E6              #line 1015 "e:\x-sense_svn\xp02\xp02\src\main.c"
1015  00E6  3114        	set [20].2
1015  00E7  3218        	set [24].4
1016  00E8              #line 1016 "e:\x-sense_svn\xp02\xp02\src\main.c"
1016  00E8              ;# 1016 "e:\x-sense_svn\xp02\xp02\src\main.c" 1
1016  00E8              	IF 50000>263690
1016  00E8              ;# 1016 "e:\x-sense_svn\xp02\xp02\src\main.c" 1
1016  00E8              	ERRMESSAGE 'the value 50000of the argument exceeds the maxinum 263690'
1016  00E8              	ENDIF
1016  00E8              ;# 1016 "e:\x-sense_svn\xp02\xp02\src\main.c" 1
1016  00E8              	IF 50000<0
1016  00E8              ;# 1016 "e:\x-sense_svn\xp02\xp02\src\main.c" 1
1016  00E8              	ERRMESSAGE 'the value 50000 of the argument exceeds the mininum 0'
1016  00E8              	ENDIF
1016  00E8              ;# 1016 "e:\x-sense_svn\xp02\xp02\src\main.c" 1
1016  00E8              	IF 50000==0
1016  00E8              ;# 1016 "e:\x-sense_svn\xp02\xp02\src\main.c" 1
1016  00E8              	JMP $
1016  00E8              	ENDIF
1016  00E8              ;# 1016 "e:\x-sense_svn\xp02\xp02\src\main.c" 1
1016  00E8              	IF (50000>=1) AND (50000<( 4 + __PBP__ * 2))
1016  00E8              ;# 1016 "e:\x-sense_svn\xp02\xp02\src\main.c" 1
1016  00E8              	NOP
1016  00E8              	ENDIF
1016  00E8              ;# 1016 "e:\x-sense_svn\xp02\xp02\src\main.c" 1
1016  00E8              	IF (50000>=2) AND (50000<( 4 + __PBP__ * 2))
1016  00E8              ;# 1016 "e:\x-sense_svn\xp02\xp02\src\main.c" 1
1016  00E8              	NOP
1016  00E8              	ENDIF
1016  00E8              ;# 1016 "e:\x-sense_svn\xp02\xp02\src\main.c" 1
1016  00E8              	IF (50000>=3) AND (50000<( 4 + __PBP__ * 2))
1016  00E8              ;# 1016 "e:\x-sense_svn\xp02\xp02\src\main.c" 1
1016  00E8              	NOP
文件：main.c       编译器版本 HGASM 0202 页次59

1016  00E8              	ENDIF
1016  00E8              ;# 1016 "e:\x-sense_svn\xp02\xp02\src\main.c" 1
1016  00E8              	IF (50000>=4) AND (50000<( 4 + __PBP__ * 2)) AND ( __PBP__ > 0 )
1016  00E8              ;# 1016 "e:\x-sense_svn\xp02\xp02\src\main.c" 1
1016  00E8              	NOP
1016  00E8              	ENDIF
1016  00E8              ;# 1016 "e:\x-sense_svn\xp02\xp02\src\main.c" 1
1016  00E8              	IF (50000>=5) AND (50000<( 4 + __PBP__ * 2)) AND ( __PBP__ > 0 )
1016  00E8              ;# 1016 "e:\x-sense_svn\xp02\xp02\src\main.c" 1
1016  00E8              	NOP
1016  00E8              	ENDIF
1016  00E8              ;# 1016 "e:\x-sense_svn\xp02\xp02\src\main.c" 1
1016  00E8              	IF (50000>=6) AND (50000<( 4 + __PBP__ * 2))  AND ( __PBP__ > 1 )
1016  00E8              ;# 1016 "e:\x-sense_svn\xp02\xp02\src\main.c" 1
1016  00E8              	NOP
1016  00E8              	ENDIF
1016  00E8              ;# 1016 "e:\x-sense_svn\xp02\xp02\src\main.c" 1
1016  00E8              	IF (50000>=7) AND (50000<( 4 + __PBP__ * 2))  AND ( __PBP__ > 1 )
1016  00E8              ;# 1016 "e:\x-sense_svn\xp02\xp02\src\main.c" 1
1016  00E8              	NOP
1016  00E8              	ENDIF
1016  00E8              ;# 1016 "e:\x-sense_svn\xp02\xp02\src\main.c" 1
1016  00E8              	IF (50000>=8) AND (50000<( 4 + __PBP__ * 2))  AND ( __PBP__ > 2 )
1016  00E8              ;# 1016 "e:\x-sense_svn\xp02\xp02\src\main.c" 1
1016  00E8              	NOP
1016  00E8              	ENDIF
1016  00E8              ;# 1016 "e:\x-sense_svn\xp02\xp02\src\main.c" 1
1016  00E8              	IF (50000==9)  AND ( __PBP__ > 2 )
1016  00E8              ;# 1016 "e:\x-sense_svn\xp02\xp02\src\main.c" 1
1016  00E8              	NOP
1016  00E8              	ENDIF
1016  00E8              ;# 1016 "e:\x-sense_svn\xp02\xp02\src\main.c" 1
1016  00E8              	IF (50000< ( 8 + __PBP__ * 2)) AND (50000>( 3 + __PBP__ * 2))
1016  00E8              ;# 1016 "e:\x-sense_svn\xp02\xp02\src\main.c" 1
1016  00E8              	fcall __DELAY3 + ( 7 + __PBP__ * 2) -50000
1016  00E8              	ENDIF
1016  00E8              ;# 1016 "e:\x-sense_svn\xp02\xp02\src\main.c" 1
1016  00E8              	IF (50000< ( 0404h + __PBP__ * 2)) AND (50000>( 7 + __PBP__ * 2))
1016  00E8              ;# 1016 "e:\x-sense_svn\xp02\xp02\src\main.c" 1
1016  00E8              	MOV A,(50000-( 4 + __PBP__ * 2))/4
1016  00E8              ;# 1016 "e:\x-sense_svn\xp02\xp02\src\main.c" 1
1016  00E8              	fcall __DELAYX3 + 3 -((50000-( 4 + __PBP__ * 2)) MOD 4) 
1016  00E8              	ENDIF
1016  00E8              ;# 1016 "e:\x-sense_svn\xp02\xp02\src\main.c" 1
1016  00E8              	IF (50000< ( 040bh + __PBP__ * 2)) AND (50000> ( 0403h + __PBP__ * 2))
1016  00E8              ;# 1016 "e:\x-sense_svn\xp02\xp02\src\main.c" 1
1016  00E8              	MOV A,0 
1016  00E8              ;# 1016 "e:\x-sense_svn\xp02\xp02\src\main.c" 1
1016  00E8              	fcall __DELAYX6 + ( 040ah + __PBP__ * 2) -50000
1016  00E8              	ENDIF
1016  00E8              ;# 1016 "e:\x-sense_svn\xp02\xp02\src\main.c" 1
1016  00E8              	IF (50000 >= ( 040bh + __PBP__ * 2)) AND ((((50000-( 9 + __PBP__ * 2))%0402h)/4+1)>256)
1016  00E8              ;# 1016 "e:\x-sense_svn\xp02\xp02\src\main.c" 1
1016  00E8              	MOV A,(50000-( 9 + __PBP__ * 2))/0402h
1016  00E8              ;# 1016 "e:\x-sense_svn\xp02\xp02\src\main.c" 1
1016  00E8              	MOV _builtin_holtek_delay_2,A
1016  00E8              ;# 1016 "e:\x-sense_svn\xp02\xp02\src\main.c" 1
1016  00E8              	MOV A,0
1016  00E8              ;# 1016 "e:\x-sense_svn\xp02\xp02\src\main.c" 1
1016  00E8              	fcall __DELAYY5 +5- (((50000-( 9 + __PBP__ * 2))%0402h)%6) 
文件：main.c       编译器版本 HGASM 0202 页次60

1016  00E8              	ENDIF
1016  00E8              ;# 1016 "e:\x-sense_svn\xp02\xp02\src\main.c" 1
1016  00E8              	IF (50000 >= ( 040bh + __PBP__ * 2)) AND ((((50000-( 9 + __PBP__ * 2))%0402h)/4+1)<=256)
1016  00E8              ;# 1016 "e:\x-sense_svn\xp02\xp02\src\main.c" 1
1016  00E8  0F30        	MOV A,(50000-( 9 + __PBP__ * 2))/0402h
1016  00E9              ;# 1016 "e:\x-sense_svn\xp02\xp02\src\main.c" 1
1016  00E9  0080     E  	MOV _builtin_holtek_delay_2,A
1016  00EA              ;# 1016 "e:\x-sense_svn\xp02\xp02\src\main.c" 1
1016  00EA  0FBA        	MOV A,((50000-( 9 + __PBP__ * 2))%0402h)/4+1
1016  00EB              ;# 1016 "e:\x-sense_svn\xp02\xp02\src\main.c" 1
1016  00EB              	fcall __DELAYY3 +3-(((50000-( 9 + __PBP__ * 2))%0402h)%4) 
1016  00F2              	ENDIF
1017  00F2              #line 1017 "e:\x-sense_svn\xp02\xp02\src\main.c"
1017  00F2  3514        	clr [20].2
1017  00F3  3618        	clr [24].4
1017  00F4  2800     R  	jmp _L42
1017  00F5              _L33:
1031  00F5              #line 1031 "e:\x-sense_svn\xp02\xp02\src\main.c"
1031  00F5  0700     E  	mov a,ra
1031  00F6  0080     E  	mov rb,a
1031  00F7  1F00     E  	clr rc
1031  00F8  0700     E  	mov a,rb
1031  00F9  0200     R  	sub a,_CailRes_2[0]
1031  00FA  0700     E  	mov a,rc
1031  00FB  1200     R  	sbc a,_CailRes_2[1]
1031  00FC  3C0A        	sz c
1031  00FD  2800     R  	jmp _L31
1033  00FE              #line 1033 "e:\x-sense_svn\xp02\xp02\src\main.c"
1033  00FE              ;# 1033 "e:\x-sense_svn\xp02\xp02\src\main.c" 1
1033  00FE  0001        	clr wdt
1034  00FF              #line 1034 "e:\x-sense_svn\xp02\xp02\src\main.c"
1034  00FF  3218        	set [24].4
1035  0100              #line 1035 "e:\x-sense_svn\xp02\xp02\src\main.c"
1035  0100              ;# 1035 "e:\x-sense_svn\xp02\xp02\src\main.c" 1
1035  0100              	IF 50000>263690
1035  0100              ;# 1035 "e:\x-sense_svn\xp02\xp02\src\main.c" 1
1035  0100              	ERRMESSAGE 'the value 50000of the argument exceeds the maxinum 263690'
1035  0100              	ENDIF
1035  0100              ;# 1035 "e:\x-sense_svn\xp02\xp02\src\main.c" 1
1035  0100              	IF 50000<0
1035  0100              ;# 1035 "e:\x-sense_svn\xp02\xp02\src\main.c" 1
1035  0100              	ERRMESSAGE 'the value 50000 of the argument exceeds the mininum 0'
1035  0100              	ENDIF
1035  0100              ;# 1035 "e:\x-sense_svn\xp02\xp02\src\main.c" 1
1035  0100              	IF 50000==0
1035  0100              ;# 1035 "e:\x-sense_svn\xp02\xp02\src\main.c" 1
1035  0100              	JMP $
1035  0100              	ENDIF
1035  0100              ;# 1035 "e:\x-sense_svn\xp02\xp02\src\main.c" 1
1035  0100              	IF (50000>=1) AND (50000<( 4 + __PBP__ * 2))
1035  0100              ;# 1035 "e:\x-sense_svn\xp02\xp02\src\main.c" 1
1035  0100              	NOP
1035  0100              	ENDIF
1035  0100              ;# 1035 "e:\x-sense_svn\xp02\xp02\src\main.c" 1
1035  0100              	IF (50000>=2) AND (50000<( 4 + __PBP__ * 2))
1035  0100              ;# 1035 "e:\x-sense_svn\xp02\xp02\src\main.c" 1
1035  0100              	NOP
1035  0100              	ENDIF
1035  0100              ;# 1035 "e:\x-sense_svn\xp02\xp02\src\main.c" 1
1035  0100              	IF (50000>=3) AND (50000<( 4 + __PBP__ * 2))
文件：main.c       编译器版本 HGASM 0202 页次61

1035  0100              ;# 1035 "e:\x-sense_svn\xp02\xp02\src\main.c" 1
1035  0100              	NOP
1035  0100              	ENDIF
1035  0100              ;# 1035 "e:\x-sense_svn\xp02\xp02\src\main.c" 1
1035  0100              	IF (50000>=4) AND (50000<( 4 + __PBP__ * 2)) AND ( __PBP__ > 0 )
1035  0100              ;# 1035 "e:\x-sense_svn\xp02\xp02\src\main.c" 1
1035  0100              	NOP
1035  0100              	ENDIF
1035  0100              ;# 1035 "e:\x-sense_svn\xp02\xp02\src\main.c" 1
1035  0100              	IF (50000>=5) AND (50000<( 4 + __PBP__ * 2)) AND ( __PBP__ > 0 )
1035  0100              ;# 1035 "e:\x-sense_svn\xp02\xp02\src\main.c" 1
1035  0100              	NOP
1035  0100              	ENDIF
1035  0100              ;# 1035 "e:\x-sense_svn\xp02\xp02\src\main.c" 1
1035  0100              	IF (50000>=6) AND (50000<( 4 + __PBP__ * 2))  AND ( __PBP__ > 1 )
1035  0100              ;# 1035 "e:\x-sense_svn\xp02\xp02\src\main.c" 1
1035  0100              	NOP
1035  0100              	ENDIF
1035  0100              ;# 1035 "e:\x-sense_svn\xp02\xp02\src\main.c" 1
1035  0100              	IF (50000>=7) AND (50000<( 4 + __PBP__ * 2))  AND ( __PBP__ > 1 )
1035  0100              ;# 1035 "e:\x-sense_svn\xp02\xp02\src\main.c" 1
1035  0100              	NOP
1035  0100              	ENDIF
1035  0100              ;# 1035 "e:\x-sense_svn\xp02\xp02\src\main.c" 1
1035  0100              	IF (50000>=8) AND (50000<( 4 + __PBP__ * 2))  AND ( __PBP__ > 2 )
1035  0100              ;# 1035 "e:\x-sense_svn\xp02\xp02\src\main.c" 1
1035  0100              	NOP
1035  0100              	ENDIF
1035  0100              ;# 1035 "e:\x-sense_svn\xp02\xp02\src\main.c" 1
1035  0100              	IF (50000==9)  AND ( __PBP__ > 2 )
1035  0100              ;# 1035 "e:\x-sense_svn\xp02\xp02\src\main.c" 1
1035  0100              	NOP
1035  0100              	ENDIF
1035  0100              ;# 1035 "e:\x-sense_svn\xp02\xp02\src\main.c" 1
1035  0100              	IF (50000< ( 8 + __PBP__ * 2)) AND (50000>( 3 + __PBP__ * 2))
1035  0100              ;# 1035 "e:\x-sense_svn\xp02\xp02\src\main.c" 1
1035  0100              	fcall __DELAY3 + ( 7 + __PBP__ * 2) -50000
1035  0100              	ENDIF
1035  0100              ;# 1035 "e:\x-sense_svn\xp02\xp02\src\main.c" 1
1035  0100              	IF (50000< ( 0404h + __PBP__ * 2)) AND (50000>( 7 + __PBP__ * 2))
1035  0100              ;# 1035 "e:\x-sense_svn\xp02\xp02\src\main.c" 1
1035  0100              	MOV A,(50000-( 4 + __PBP__ * 2))/4
1035  0100              ;# 1035 "e:\x-sense_svn\xp02\xp02\src\main.c" 1
1035  0100              	fcall __DELAYX3 + 3 -((50000-( 4 + __PBP__ * 2)) MOD 4) 
1035  0100              	ENDIF
1035  0100              ;# 1035 "e:\x-sense_svn\xp02\xp02\src\main.c" 1
1035  0100              	IF (50000< ( 040bh + __PBP__ * 2)) AND (50000> ( 0403h + __PBP__ * 2))
1035  0100              ;# 1035 "e:\x-sense_svn\xp02\xp02\src\main.c" 1
1035  0100              	MOV A,0 
1035  0100              ;# 1035 "e:\x-sense_svn\xp02\xp02\src\main.c" 1
1035  0100              	fcall __DELAYX6 + ( 040ah + __PBP__ * 2) -50000
1035  0100              	ENDIF
1035  0100              ;# 1035 "e:\x-sense_svn\xp02\xp02\src\main.c" 1
1035  0100              	IF (50000 >= ( 040bh + __PBP__ * 2)) AND ((((50000-( 9 + __PBP__ * 2))%0402h)/4+1)>256)
1035  0100              ;# 1035 "e:\x-sense_svn\xp02\xp02\src\main.c" 1
1035  0100              	MOV A,(50000-( 9 + __PBP__ * 2))/0402h
1035  0100              ;# 1035 "e:\x-sense_svn\xp02\xp02\src\main.c" 1
1035  0100              	MOV _builtin_holtek_delay_2,A
1035  0100              ;# 1035 "e:\x-sense_svn\xp02\xp02\src\main.c" 1
1035  0100              	MOV A,0
文件：main.c       编译器版本 HGASM 0202 页次62

1035  0100              ;# 1035 "e:\x-sense_svn\xp02\xp02\src\main.c" 1
1035  0100              	fcall __DELAYY5 +5- (((50000-( 9 + __PBP__ * 2))%0402h)%6) 
1035  0100              	ENDIF
1035  0100              ;# 1035 "e:\x-sense_svn\xp02\xp02\src\main.c" 1
1035  0100              	IF (50000 >= ( 040bh + __PBP__ * 2)) AND ((((50000-( 9 + __PBP__ * 2))%0402h)/4+1)<=256)
1035  0100              ;# 1035 "e:\x-sense_svn\xp02\xp02\src\main.c" 1
1035  0100  0F30        	MOV A,(50000-( 9 + __PBP__ * 2))/0402h
1035  0101              ;# 1035 "e:\x-sense_svn\xp02\xp02\src\main.c" 1
1035  0101  0080     E  	MOV _builtin_holtek_delay_2,A
1035  0102              ;# 1035 "e:\x-sense_svn\xp02\xp02\src\main.c" 1
1035  0102  0FBA        	MOV A,((50000-( 9 + __PBP__ * 2))%0402h)/4+1
1035  0103              ;# 1035 "e:\x-sense_svn\xp02\xp02\src\main.c" 1
1035  0103              	fcall __DELAYY3 +3-(((50000-( 9 + __PBP__ * 2))%0402h)%4) 
1035  010A              	ENDIF
1036  010A              #line 1036 "e:\x-sense_svn\xp02\xp02\src\main.c"
1036  010A  3618        	clr [24].4
1037  010B              #line 1037 "e:\x-sense_svn\xp02\xp02\src\main.c"
1037  010B              ;# 1037 "e:\x-sense_svn\xp02\xp02\src\main.c" 1
1037  010B              	IF 200000>263690
1037  010B              ;# 1037 "e:\x-sense_svn\xp02\xp02\src\main.c" 1
1037  010B              	ERRMESSAGE 'the value 200000of the argument exceeds the maxinum 263690'
1037  010B              	ENDIF
1037  010B              ;# 1037 "e:\x-sense_svn\xp02\xp02\src\main.c" 1
1037  010B              	IF 200000<0
1037  010B              ;# 1037 "e:\x-sense_svn\xp02\xp02\src\main.c" 1
1037  010B              	ERRMESSAGE 'the value 200000 of the argument exceeds the mininum 0'
1037  010B              	ENDIF
1037  010B              ;# 1037 "e:\x-sense_svn\xp02\xp02\src\main.c" 1
1037  010B              	IF 200000==0
1037  010B              ;# 1037 "e:\x-sense_svn\xp02\xp02\src\main.c" 1
1037  010B              	JMP $
1037  010B              	ENDIF
1037  010B              ;# 1037 "e:\x-sense_svn\xp02\xp02\src\main.c" 1
1037  010B              	IF (200000>=1) AND (200000<( 4 + __PBP__ * 2))
1037  010B              ;# 1037 "e:\x-sense_svn\xp02\xp02\src\main.c" 1
1037  010B              	NOP
1037  010B              	ENDIF
1037  010B              ;# 1037 "e:\x-sense_svn\xp02\xp02\src\main.c" 1
1037  010B              	IF (200000>=2) AND (200000<( 4 + __PBP__ * 2))
1037  010B              ;# 1037 "e:\x-sense_svn\xp02\xp02\src\main.c" 1
1037  010B              	NOP
1037  010B              	ENDIF
1037  010B              ;# 1037 "e:\x-sense_svn\xp02\xp02\src\main.c" 1
1037  010B              	IF (200000>=3) AND (200000<( 4 + __PBP__ * 2))
1037  010B              ;# 1037 "e:\x-sense_svn\xp02\xp02\src\main.c" 1
1037  010B              	NOP
1037  010B              	ENDIF
1037  010B              ;# 1037 "e:\x-sense_svn\xp02\xp02\src\main.c" 1
1037  010B              	IF (200000>=4) AND (200000<( 4 + __PBP__ * 2)) AND ( __PBP__ > 0 )
1037  010B              ;# 1037 "e:\x-sense_svn\xp02\xp02\src\main.c" 1
1037  010B              	NOP
1037  010B              	ENDIF
1037  010B              ;# 1037 "e:\x-sense_svn\xp02\xp02\src\main.c" 1
1037  010B              	IF (200000>=5) AND (200000<( 4 + __PBP__ * 2)) AND ( __PBP__ > 0 )
1037  010B              ;# 1037 "e:\x-sense_svn\xp02\xp02\src\main.c" 1
1037  010B              	NOP
1037  010B              	ENDIF
1037  010B              ;# 1037 "e:\x-sense_svn\xp02\xp02\src\main.c" 1
1037  010B              	IF (200000>=6) AND (200000<( 4 + __PBP__ * 2))  AND ( __PBP__ > 1 )
1037  010B              ;# 1037 "e:\x-sense_svn\xp02\xp02\src\main.c" 1
文件：main.c       编译器版本 HGASM 0202 页次63

1037  010B              	NOP
1037  010B              	ENDIF
1037  010B              ;# 1037 "e:\x-sense_svn\xp02\xp02\src\main.c" 1
1037  010B              	IF (200000>=7) AND (200000<( 4 + __PBP__ * 2))  AND ( __PBP__ > 1 )
1037  010B              ;# 1037 "e:\x-sense_svn\xp02\xp02\src\main.c" 1
1037  010B              	NOP
1037  010B              	ENDIF
1037  010B              ;# 1037 "e:\x-sense_svn\xp02\xp02\src\main.c" 1
1037  010B              	IF (200000>=8) AND (200000<( 4 + __PBP__ * 2))  AND ( __PBP__ > 2 )
1037  010B              ;# 1037 "e:\x-sense_svn\xp02\xp02\src\main.c" 1
1037  010B              	NOP
1037  010B              	ENDIF
1037  010B              ;# 1037 "e:\x-sense_svn\xp02\xp02\src\main.c" 1
1037  010B              	IF (200000==9)  AND ( __PBP__ > 2 )
1037  010B              ;# 1037 "e:\x-sense_svn\xp02\xp02\src\main.c" 1
1037  010B              	NOP
1037  010B              	ENDIF
1037  010B              ;# 1037 "e:\x-sense_svn\xp02\xp02\src\main.c" 1
1037  010B              	IF (200000< ( 8 + __PBP__ * 2)) AND (200000>( 3 + __PBP__ * 2))
1037  010B              ;# 1037 "e:\x-sense_svn\xp02\xp02\src\main.c" 1
1037  010B              	fcall __DELAY3 + ( 7 + __PBP__ * 2) -200000
1037  010B              	ENDIF
1037  010B              ;# 1037 "e:\x-sense_svn\xp02\xp02\src\main.c" 1
1037  010B              	IF (200000< ( 0404h + __PBP__ * 2)) AND (200000>( 7 + __PBP__ * 2))
1037  010B              ;# 1037 "e:\x-sense_svn\xp02\xp02\src\main.c" 1
1037  010B              	MOV A,(200000-( 4 + __PBP__ * 2))/4
1037  010B              ;# 1037 "e:\x-sense_svn\xp02\xp02\src\main.c" 1
1037  010B              	fcall __DELAYX3 + 3 -((200000-( 4 + __PBP__ * 2)) MOD 4) 
1037  010B              	ENDIF
1037  010B              ;# 1037 "e:\x-sense_svn\xp02\xp02\src\main.c" 1
1037  010B              	IF (200000< ( 040bh + __PBP__ * 2)) AND (200000> ( 0403h + __PBP__ * 2))
1037  010B              ;# 1037 "e:\x-sense_svn\xp02\xp02\src\main.c" 1
1037  010B              	MOV A,0 
1037  010B              ;# 1037 "e:\x-sense_svn\xp02\xp02\src\main.c" 1
1037  010B              	fcall __DELAYX6 + ( 040ah + __PBP__ * 2) -200000
1037  010B              	ENDIF
1037  010B              ;# 1037 "e:\x-sense_svn\xp02\xp02\src\main.c" 1
1037  010B              	IF (200000 >= ( 040bh + __PBP__ * 2)) AND ((((200000-( 9 + __PBP__ * 2))%0402h)/4+1)>256)
1037  010B              ;# 1037 "e:\x-sense_svn\xp02\xp02\src\main.c" 1
1037  010B              	MOV A,(200000-( 9 + __PBP__ * 2))/0402h
1037  010B              ;# 1037 "e:\x-sense_svn\xp02\xp02\src\main.c" 1
1037  010B              	MOV _builtin_holtek_delay_2,A
1037  010B              ;# 1037 "e:\x-sense_svn\xp02\xp02\src\main.c" 1
1037  010B              	MOV A,0
1037  010B              ;# 1037 "e:\x-sense_svn\xp02\xp02\src\main.c" 1
1037  010B              	fcall __DELAYY5 +5- (((200000-( 9 + __PBP__ * 2))%0402h)%6) 
1037  010B              	ENDIF
1037  010B              ;# 1037 "e:\x-sense_svn\xp02\xp02\src\main.c" 1
1037  010B              	IF (200000 >= ( 040bh + __PBP__ * 2)) AND ((((200000-( 9 + __PBP__ * 2))%0402h)/4+1)<=256)
1037  010B              ;# 1037 "e:\x-sense_svn\xp02\xp02\src\main.c" 1
1037  010B  0FC2        	MOV A,(200000-( 9 + __PBP__ * 2))/0402h
1037  010C              ;# 1037 "e:\x-sense_svn\xp02\xp02\src\main.c" 1
1037  010C  0080     E  	MOV _builtin_holtek_delay_2,A
1037  010D              ;# 1037 "e:\x-sense_svn\xp02\xp02\src\main.c" 1
1037  010D  0FED        	MOV A,((200000-( 9 + __PBP__ * 2))%0402h)/4+1
1037  010E              ;# 1037 "e:\x-sense_svn\xp02\xp02\src\main.c" 1
1037  010E              	fcall __DELAYY3 +3-(((200000-( 9 + __PBP__ * 2))%0402h)%4) 
1037  0115              	ENDIF
1038  0115              #line 1038 "e:\x-sense_svn\xp02\xp02\src\main.c"
1038  0115              ;# 1038 "e:\x-sense_svn\xp02\xp02\src\main.c" 1
文件：main.c       编译器版本 HGASM 0202 页次64

1038  0115              	IF 200000>263690
1038  0115              ;# 1038 "e:\x-sense_svn\xp02\xp02\src\main.c" 1
1038  0115              	ERRMESSAGE 'the value 200000of the argument exceeds the maxinum 263690'
1038  0115              	ENDIF
1038  0115              ;# 1038 "e:\x-sense_svn\xp02\xp02\src\main.c" 1
1038  0115              	IF 200000<0
1038  0115              ;# 1038 "e:\x-sense_svn\xp02\xp02\src\main.c" 1
1038  0115              	ERRMESSAGE 'the value 200000 of the argument exceeds the mininum 0'
1038  0115              	ENDIF
1038  0115              ;# 1038 "e:\x-sense_svn\xp02\xp02\src\main.c" 1
1038  0115              	IF 200000==0
1038  0115              ;# 1038 "e:\x-sense_svn\xp02\xp02\src\main.c" 1
1038  0115              	JMP $
1038  0115              	ENDIF
1038  0115              ;# 1038 "e:\x-sense_svn\xp02\xp02\src\main.c" 1
1038  0115              	IF (200000>=1) AND (200000<( 4 + __PBP__ * 2))
1038  0115              ;# 1038 "e:\x-sense_svn\xp02\xp02\src\main.c" 1
1038  0115              	NOP
1038  0115              	ENDIF
1038  0115              ;# 1038 "e:\x-sense_svn\xp02\xp02\src\main.c" 1
1038  0115              	IF (200000>=2) AND (200000<( 4 + __PBP__ * 2))
1038  0115              ;# 1038 "e:\x-sense_svn\xp02\xp02\src\main.c" 1
1038  0115              	NOP
1038  0115              	ENDIF
1038  0115              ;# 1038 "e:\x-sense_svn\xp02\xp02\src\main.c" 1
1038  0115              	IF (200000>=3) AND (200000<( 4 + __PBP__ * 2))
1038  0115              ;# 1038 "e:\x-sense_svn\xp02\xp02\src\main.c" 1
1038  0115              	NOP
1038  0115              	ENDIF
1038  0115              ;# 1038 "e:\x-sense_svn\xp02\xp02\src\main.c" 1
1038  0115              	IF (200000>=4) AND (200000<( 4 + __PBP__ * 2)) AND ( __PBP__ > 0 )
1038  0115              ;# 1038 "e:\x-sense_svn\xp02\xp02\src\main.c" 1
1038  0115              	NOP
1038  0115              	ENDIF
1038  0115              ;# 1038 "e:\x-sense_svn\xp02\xp02\src\main.c" 1
1038  0115              	IF (200000>=5) AND (200000<( 4 + __PBP__ * 2)) AND ( __PBP__ > 0 )
1038  0115              ;# 1038 "e:\x-sense_svn\xp02\xp02\src\main.c" 1
1038  0115              	NOP
1038  0115              	ENDIF
1038  0115              ;# 1038 "e:\x-sense_svn\xp02\xp02\src\main.c" 1
1038  0115              	IF (200000>=6) AND (200000<( 4 + __PBP__ * 2))  AND ( __PBP__ > 1 )
1038  0115              ;# 1038 "e:\x-sense_svn\xp02\xp02\src\main.c" 1
1038  0115              	NOP
1038  0115              	ENDIF
1038  0115              ;# 1038 "e:\x-sense_svn\xp02\xp02\src\main.c" 1
1038  0115              	IF (200000>=7) AND (200000<( 4 + __PBP__ * 2))  AND ( __PBP__ > 1 )
1038  0115              ;# 1038 "e:\x-sense_svn\xp02\xp02\src\main.c" 1
1038  0115              	NOP
1038  0115              	ENDIF
1038  0115              ;# 1038 "e:\x-sense_svn\xp02\xp02\src\main.c" 1
1038  0115              	IF (200000>=8) AND (200000<( 4 + __PBP__ * 2))  AND ( __PBP__ > 2 )
1038  0115              ;# 1038 "e:\x-sense_svn\xp02\xp02\src\main.c" 1
1038  0115              	NOP
1038  0115              	ENDIF
1038  0115              ;# 1038 "e:\x-sense_svn\xp02\xp02\src\main.c" 1
1038  0115              	IF (200000==9)  AND ( __PBP__ > 2 )
1038  0115              ;# 1038 "e:\x-sense_svn\xp02\xp02\src\main.c" 1
1038  0115              	NOP
1038  0115              	ENDIF
1038  0115              ;# 1038 "e:\x-sense_svn\xp02\xp02\src\main.c" 1
文件：main.c       编译器版本 HGASM 0202 页次65

1038  0115              	IF (200000< ( 8 + __PBP__ * 2)) AND (200000>( 3 + __PBP__ * 2))
1038  0115              ;# 1038 "e:\x-sense_svn\xp02\xp02\src\main.c" 1
1038  0115              	fcall __DELAY3 + ( 7 + __PBP__ * 2) -200000
1038  0115              	ENDIF
1038  0115              ;# 1038 "e:\x-sense_svn\xp02\xp02\src\main.c" 1
1038  0115              	IF (200000< ( 0404h + __PBP__ * 2)) AND (200000>( 7 + __PBP__ * 2))
1038  0115              ;# 1038 "e:\x-sense_svn\xp02\xp02\src\main.c" 1
1038  0115              	MOV A,(200000-( 4 + __PBP__ * 2))/4
1038  0115              ;# 1038 "e:\x-sense_svn\xp02\xp02\src\main.c" 1
1038  0115              	fcall __DELAYX3 + 3 -((200000-( 4 + __PBP__ * 2)) MOD 4) 
1038  0115              	ENDIF
1038  0115              ;# 1038 "e:\x-sense_svn\xp02\xp02\src\main.c" 1
1038  0115              	IF (200000< ( 040bh + __PBP__ * 2)) AND (200000> ( 0403h + __PBP__ * 2))
1038  0115              ;# 1038 "e:\x-sense_svn\xp02\xp02\src\main.c" 1
1038  0115              	MOV A,0 
1038  0115              ;# 1038 "e:\x-sense_svn\xp02\xp02\src\main.c" 1
1038  0115              	fcall __DELAYX6 + ( 040ah + __PBP__ * 2) -200000
1038  0115              	ENDIF
1038  0115              ;# 1038 "e:\x-sense_svn\xp02\xp02\src\main.c" 1
1038  0115              	IF (200000 >= ( 040bh + __PBP__ * 2)) AND ((((200000-( 9 + __PBP__ * 2))%0402h)/4+1)>256)
1038  0115              ;# 1038 "e:\x-sense_svn\xp02\xp02\src\main.c" 1
1038  0115              	MOV A,(200000-( 9 + __PBP__ * 2))/0402h
1038  0115              ;# 1038 "e:\x-sense_svn\xp02\xp02\src\main.c" 1
1038  0115              	MOV _builtin_holtek_delay_2,A
1038  0115              ;# 1038 "e:\x-sense_svn\xp02\xp02\src\main.c" 1
1038  0115              	MOV A,0
1038  0115              ;# 1038 "e:\x-sense_svn\xp02\xp02\src\main.c" 1
1038  0115              	fcall __DELAYY5 +5- (((200000-( 9 + __PBP__ * 2))%0402h)%6) 
1038  0115              	ENDIF
1038  0115              ;# 1038 "e:\x-sense_svn\xp02\xp02\src\main.c" 1
1038  0115              	IF (200000 >= ( 040bh + __PBP__ * 2)) AND ((((200000-( 9 + __PBP__ * 2))%0402h)/4+1)<=256)
1038  0115              ;# 1038 "e:\x-sense_svn\xp02\xp02\src\main.c" 1
1038  0115  0FC2        	MOV A,(200000-( 9 + __PBP__ * 2))/0402h
1038  0116              ;# 1038 "e:\x-sense_svn\xp02\xp02\src\main.c" 1
1038  0116  0080     E  	MOV _builtin_holtek_delay_2,A
1038  0117              ;# 1038 "e:\x-sense_svn\xp02\xp02\src\main.c" 1
1038  0117  0FED        	MOV A,((200000-( 9 + __PBP__ * 2))%0402h)/4+1
1038  0118              ;# 1038 "e:\x-sense_svn\xp02\xp02\src\main.c" 1
1038  0118              	fcall __DELAYY3 +3-(((200000-( 9 + __PBP__ * 2))%0402h)%4) 
1038  011F              	ENDIF
1031  011F              #line 1031 "e:\x-sense_svn\xp02\xp02\src\main.c"
1031  011F  1480     E  	inc ra
1031  0120  2800     R  	jmp _L33
1031  0121              _L31:
1031  0121  0003        	ret
1031  0122              _CailRes endp
1031  0122              #line 1031 "e:\x-sense_svn\xp02\xp02\src\main.c"
1031  0122              #pragma debug scope 1 1
1031  0122              public _CailStepDisplay
1031  0122              #pragma debug scope 10 1
1052  0122              #line 1052 "e:\x-sense_svn\xp02\xp02\src\main.c"
1052  0000              _CailStepDisplay .section 'code'
1052  0000              _CailStepDisplay proc
1052  0000              public _CailStepDisplay_2
1052  0000  0002[           local _CailStepDisplay_2 db 2 dup(?)	; 2,0
            00
            ]
1052  0002              #pragma debug variable 12 10 _CailStepDisplay_2+0 "eStep"
1054  0002              #line 1054 "e:\x-sense_svn\xp02\xp02\src\main.c"
1054  0000  3618        	clr [24].4
文件：main.c       编译器版本 HGASM 0202 页次66

1055  0001              #line 1055 "e:\x-sense_svn\xp02\xp02\src\main.c"
1055  0001  3514        	clr [20].2
1056  0002              #line 1056 "e:\x-sense_svn\xp02\xp02\src\main.c"
1056  0002  3514        	clr [20].2
1056  0003  3618        	clr [24].4
1058  0004              #line 1058 "e:\x-sense_svn\xp02\xp02\src\main.c"
1058  0004  1F00     E  	clr ra
1058  0005              _L47:
1058  0005              #line 1058 "e:\x-sense_svn\xp02\xp02\src\main.c"
1058  0005  0700     E  	mov a,ra
1058  0006  0080     E  	mov rb,a
1058  0007  1F00     E  	clr rc
1058  0008  0700     E  	mov a,rb
1058  0009  0200     R  	sub a,_CailStepDisplay_2[0]
1058  000A  0700     E  	mov a,rc
1058  000B  1200     R  	sbc a,_CailStepDisplay_2[1]
1058  000C  3C0A        	sz c
1058  000D  2800     R  	jmp _L49
1060  000E              #line 1060 "e:\x-sense_svn\xp02\xp02\src\main.c"
1060  000E              ;# 1060 "e:\x-sense_svn\xp02\xp02\src\main.c" 1
1060  000E  0001        	clr wdt
1061  000F              #line 1061 "e:\x-sense_svn\xp02\xp02\src\main.c"
1061  000F  3114        	set [20].2
1061  0010  3218        	set [24].4
1062  0011              #line 1062 "e:\x-sense_svn\xp02\xp02\src\main.c"
1062  0011              ;# 1062 "e:\x-sense_svn\xp02\xp02\src\main.c" 1
1062  0011              	IF 50000>263690
1062  0011              ;# 1062 "e:\x-sense_svn\xp02\xp02\src\main.c" 1
1062  0011              	ERRMESSAGE 'the value 50000of the argument exceeds the maxinum 263690'
1062  0011              	ENDIF
1062  0011              ;# 1062 "e:\x-sense_svn\xp02\xp02\src\main.c" 1
1062  0011              	IF 50000<0
1062  0011              ;# 1062 "e:\x-sense_svn\xp02\xp02\src\main.c" 1
1062  0011              	ERRMESSAGE 'the value 50000 of the argument exceeds the mininum 0'
1062  0011              	ENDIF
1062  0011              ;# 1062 "e:\x-sense_svn\xp02\xp02\src\main.c" 1
1062  0011              	IF 50000==0
1062  0011              ;# 1062 "e:\x-sense_svn\xp02\xp02\src\main.c" 1
1062  0011              	JMP $
1062  0011              	ENDIF
1062  0011              ;# 1062 "e:\x-sense_svn\xp02\xp02\src\main.c" 1
1062  0011              	IF (50000>=1) AND (50000<( 4 + __PBP__ * 2))
1062  0011              ;# 1062 "e:\x-sense_svn\xp02\xp02\src\main.c" 1
1062  0011              	NOP
1062  0011              	ENDIF
1062  0011              ;# 1062 "e:\x-sense_svn\xp02\xp02\src\main.c" 1
1062  0011              	IF (50000>=2) AND (50000<( 4 + __PBP__ * 2))
1062  0011              ;# 1062 "e:\x-sense_svn\xp02\xp02\src\main.c" 1
1062  0011              	NOP
1062  0011              	ENDIF
1062  0011              ;# 1062 "e:\x-sense_svn\xp02\xp02\src\main.c" 1
1062  0011              	IF (50000>=3) AND (50000<( 4 + __PBP__ * 2))
1062  0011              ;# 1062 "e:\x-sense_svn\xp02\xp02\src\main.c" 1
1062  0011              	NOP
1062  0011              	ENDIF
1062  0011              ;# 1062 "e:\x-sense_svn\xp02\xp02\src\main.c" 1
1062  0011              	IF (50000>=4) AND (50000<( 4 + __PBP__ * 2)) AND ( __PBP__ > 0 )
1062  0011              ;# 1062 "e:\x-sense_svn\xp02\xp02\src\main.c" 1
1062  0011              	NOP
1062  0011              	ENDIF
文件：main.c       编译器版本 HGASM 0202 页次67

1062  0011              ;# 1062 "e:\x-sense_svn\xp02\xp02\src\main.c" 1
1062  0011              	IF (50000>=5) AND (50000<( 4 + __PBP__ * 2)) AND ( __PBP__ > 0 )
1062  0011              ;# 1062 "e:\x-sense_svn\xp02\xp02\src\main.c" 1
1062  0011              	NOP
1062  0011              	ENDIF
1062  0011              ;# 1062 "e:\x-sense_svn\xp02\xp02\src\main.c" 1
1062  0011              	IF (50000>=6) AND (50000<( 4 + __PBP__ * 2))  AND ( __PBP__ > 1 )
1062  0011              ;# 1062 "e:\x-sense_svn\xp02\xp02\src\main.c" 1
1062  0011              	NOP
1062  0011              	ENDIF
1062  0011              ;# 1062 "e:\x-sense_svn\xp02\xp02\src\main.c" 1
1062  0011              	IF (50000>=7) AND (50000<( 4 + __PBP__ * 2))  AND ( __PBP__ > 1 )
1062  0011              ;# 1062 "e:\x-sense_svn\xp02\xp02\src\main.c" 1
1062  0011              	NOP
1062  0011              	ENDIF
1062  0011              ;# 1062 "e:\x-sense_svn\xp02\xp02\src\main.c" 1
1062  0011              	IF (50000>=8) AND (50000<( 4 + __PBP__ * 2))  AND ( __PBP__ > 2 )
1062  0011              ;# 1062 "e:\x-sense_svn\xp02\xp02\src\main.c" 1
1062  0011              	NOP
1062  0011              	ENDIF
1062  0011              ;# 1062 "e:\x-sense_svn\xp02\xp02\src\main.c" 1
1062  0011              	IF (50000==9)  AND ( __PBP__ > 2 )
1062  0011              ;# 1062 "e:\x-sense_svn\xp02\xp02\src\main.c" 1
1062  0011              	NOP
1062  0011              	ENDIF
1062  0011              ;# 1062 "e:\x-sense_svn\xp02\xp02\src\main.c" 1
1062  0011              	IF (50000< ( 8 + __PBP__ * 2)) AND (50000>( 3 + __PBP__ * 2))
1062  0011              ;# 1062 "e:\x-sense_svn\xp02\xp02\src\main.c" 1
1062  0011              	fcall __DELAY3 + ( 7 + __PBP__ * 2) -50000
1062  0011              	ENDIF
1062  0011              ;# 1062 "e:\x-sense_svn\xp02\xp02\src\main.c" 1
1062  0011              	IF (50000< ( 0404h + __PBP__ * 2)) AND (50000>( 7 + __PBP__ * 2))
1062  0011              ;# 1062 "e:\x-sense_svn\xp02\xp02\src\main.c" 1
1062  0011              	MOV A,(50000-( 4 + __PBP__ * 2))/4
1062  0011              ;# 1062 "e:\x-sense_svn\xp02\xp02\src\main.c" 1
1062  0011              	fcall __DELAYX3 + 3 -((50000-( 4 + __PBP__ * 2)) MOD 4) 
1062  0011              	ENDIF
1062  0011              ;# 1062 "e:\x-sense_svn\xp02\xp02\src\main.c" 1
1062  0011              	IF (50000< ( 040bh + __PBP__ * 2)) AND (50000> ( 0403h + __PBP__ * 2))
1062  0011              ;# 1062 "e:\x-sense_svn\xp02\xp02\src\main.c" 1
1062  0011              	MOV A,0 
1062  0011              ;# 1062 "e:\x-sense_svn\xp02\xp02\src\main.c" 1
1062  0011              	fcall __DELAYX6 + ( 040ah + __PBP__ * 2) -50000
1062  0011              	ENDIF
1062  0011              ;# 1062 "e:\x-sense_svn\xp02\xp02\src\main.c" 1
1062  0011              	IF (50000 >= ( 040bh + __PBP__ * 2)) AND ((((50000-( 9 + __PBP__ * 2))%0402h)/4+1)>256)
1062  0011              ;# 1062 "e:\x-sense_svn\xp02\xp02\src\main.c" 1
1062  0011              	MOV A,(50000-( 9 + __PBP__ * 2))/0402h
1062  0011              ;# 1062 "e:\x-sense_svn\xp02\xp02\src\main.c" 1
1062  0011              	MOV _builtin_holtek_delay_2,A
1062  0011              ;# 1062 "e:\x-sense_svn\xp02\xp02\src\main.c" 1
1062  0011              	MOV A,0
1062  0011              ;# 1062 "e:\x-sense_svn\xp02\xp02\src\main.c" 1
1062  0011              	fcall __DELAYY5 +5- (((50000-( 9 + __PBP__ * 2))%0402h)%6) 
1062  0011              	ENDIF
1062  0011              ;# 1062 "e:\x-sense_svn\xp02\xp02\src\main.c" 1
1062  0011              	IF (50000 >= ( 040bh + __PBP__ * 2)) AND ((((50000-( 9 + __PBP__ * 2))%0402h)/4+1)<=256)
1062  0011              ;# 1062 "e:\x-sense_svn\xp02\xp02\src\main.c" 1
1062  0011  0F30        	MOV A,(50000-( 9 + __PBP__ * 2))/0402h
1062  0012              ;# 1062 "e:\x-sense_svn\xp02\xp02\src\main.c" 1
文件：main.c       编译器版本 HGASM 0202 页次68

1062  0012  0080     E  	MOV _builtin_holtek_delay_2,A
1062  0013              ;# 1062 "e:\x-sense_svn\xp02\xp02\src\main.c" 1
1062  0013  0FBA        	MOV A,((50000-( 9 + __PBP__ * 2))%0402h)/4+1
1062  0014              ;# 1062 "e:\x-sense_svn\xp02\xp02\src\main.c" 1
1062  0014              	fcall __DELAYY3 +3-(((50000-( 9 + __PBP__ * 2))%0402h)%4) 
1062  001B              	ENDIF
1063  001B              #line 1063 "e:\x-sense_svn\xp02\xp02\src\main.c"
1063  001B  3514        	clr [20].2
1063  001C  3618        	clr [24].4
1064  001D              #line 1064 "e:\x-sense_svn\xp02\xp02\src\main.c"
1064  001D              ;# 1064 "e:\x-sense_svn\xp02\xp02\src\main.c" 1
1064  001D              	IF 200000>263690
1064  001D              ;# 1064 "e:\x-sense_svn\xp02\xp02\src\main.c" 1
1064  001D              	ERRMESSAGE 'the value 200000of the argument exceeds the maxinum 263690'
1064  001D              	ENDIF
1064  001D              ;# 1064 "e:\x-sense_svn\xp02\xp02\src\main.c" 1
1064  001D              	IF 200000<0
1064  001D              ;# 1064 "e:\x-sense_svn\xp02\xp02\src\main.c" 1
1064  001D              	ERRMESSAGE 'the value 200000 of the argument exceeds the mininum 0'
1064  001D              	ENDIF
1064  001D              ;# 1064 "e:\x-sense_svn\xp02\xp02\src\main.c" 1
1064  001D              	IF 200000==0
1064  001D              ;# 1064 "e:\x-sense_svn\xp02\xp02\src\main.c" 1
1064  001D              	JMP $
1064  001D              	ENDIF
1064  001D              ;# 1064 "e:\x-sense_svn\xp02\xp02\src\main.c" 1
1064  001D              	IF (200000>=1) AND (200000<( 4 + __PBP__ * 2))
1064  001D              ;# 1064 "e:\x-sense_svn\xp02\xp02\src\main.c" 1
1064  001D              	NOP
1064  001D              	ENDIF
1064  001D              ;# 1064 "e:\x-sense_svn\xp02\xp02\src\main.c" 1
1064  001D              	IF (200000>=2) AND (200000<( 4 + __PBP__ * 2))
1064  001D              ;# 1064 "e:\x-sense_svn\xp02\xp02\src\main.c" 1
1064  001D              	NOP
1064  001D              	ENDIF
1064  001D              ;# 1064 "e:\x-sense_svn\xp02\xp02\src\main.c" 1
1064  001D              	IF (200000>=3) AND (200000<( 4 + __PBP__ * 2))
1064  001D              ;# 1064 "e:\x-sense_svn\xp02\xp02\src\main.c" 1
1064  001D              	NOP
1064  001D              	ENDIF
1064  001D              ;# 1064 "e:\x-sense_svn\xp02\xp02\src\main.c" 1
1064  001D              	IF (200000>=4) AND (200000<( 4 + __PBP__ * 2)) AND ( __PBP__ > 0 )
1064  001D              ;# 1064 "e:\x-sense_svn\xp02\xp02\src\main.c" 1
1064  001D              	NOP
1064  001D              	ENDIF
1064  001D              ;# 1064 "e:\x-sense_svn\xp02\xp02\src\main.c" 1
1064  001D              	IF (200000>=5) AND (200000<( 4 + __PBP__ * 2)) AND ( __PBP__ > 0 )
1064  001D              ;# 1064 "e:\x-sense_svn\xp02\xp02\src\main.c" 1
1064  001D              	NOP
1064  001D              	ENDIF
1064  001D              ;# 1064 "e:\x-sense_svn\xp02\xp02\src\main.c" 1
1064  001D              	IF (200000>=6) AND (200000<( 4 + __PBP__ * 2))  AND ( __PBP__ > 1 )
1064  001D              ;# 1064 "e:\x-sense_svn\xp02\xp02\src\main.c" 1
1064  001D              	NOP
1064  001D              	ENDIF
1064  001D              ;# 1064 "e:\x-sense_svn\xp02\xp02\src\main.c" 1
1064  001D              	IF (200000>=7) AND (200000<( 4 + __PBP__ * 2))  AND ( __PBP__ > 1 )
1064  001D              ;# 1064 "e:\x-sense_svn\xp02\xp02\src\main.c" 1
1064  001D              	NOP
1064  001D              	ENDIF
文件：main.c       编译器版本 HGASM 0202 页次69

1064  001D              ;# 1064 "e:\x-sense_svn\xp02\xp02\src\main.c" 1
1064  001D              	IF (200000>=8) AND (200000<( 4 + __PBP__ * 2))  AND ( __PBP__ > 2 )
1064  001D              ;# 1064 "e:\x-sense_svn\xp02\xp02\src\main.c" 1
1064  001D              	NOP
1064  001D              	ENDIF
1064  001D              ;# 1064 "e:\x-sense_svn\xp02\xp02\src\main.c" 1
1064  001D              	IF (200000==9)  AND ( __PBP__ > 2 )
1064  001D              ;# 1064 "e:\x-sense_svn\xp02\xp02\src\main.c" 1
1064  001D              	NOP
1064  001D              	ENDIF
1064  001D              ;# 1064 "e:\x-sense_svn\xp02\xp02\src\main.c" 1
1064  001D              	IF (200000< ( 8 + __PBP__ * 2)) AND (200000>( 3 + __PBP__ * 2))
1064  001D              ;# 1064 "e:\x-sense_svn\xp02\xp02\src\main.c" 1
1064  001D              	fcall __DELAY3 + ( 7 + __PBP__ * 2) -200000
1064  001D              	ENDIF
1064  001D              ;# 1064 "e:\x-sense_svn\xp02\xp02\src\main.c" 1
1064  001D              	IF (200000< ( 0404h + __PBP__ * 2)) AND (200000>( 7 + __PBP__ * 2))
1064  001D              ;# 1064 "e:\x-sense_svn\xp02\xp02\src\main.c" 1
1064  001D              	MOV A,(200000-( 4 + __PBP__ * 2))/4
1064  001D              ;# 1064 "e:\x-sense_svn\xp02\xp02\src\main.c" 1
1064  001D              	fcall __DELAYX3 + 3 -((200000-( 4 + __PBP__ * 2)) MOD 4) 
1064  001D              	ENDIF
1064  001D              ;# 1064 "e:\x-sense_svn\xp02\xp02\src\main.c" 1
1064  001D              	IF (200000< ( 040bh + __PBP__ * 2)) AND (200000> ( 0403h + __PBP__ * 2))
1064  001D              ;# 1064 "e:\x-sense_svn\xp02\xp02\src\main.c" 1
1064  001D              	MOV A,0 
1064  001D              ;# 1064 "e:\x-sense_svn\xp02\xp02\src\main.c" 1
1064  001D              	fcall __DELAYX6 + ( 040ah + __PBP__ * 2) -200000
1064  001D              	ENDIF
1064  001D              ;# 1064 "e:\x-sense_svn\xp02\xp02\src\main.c" 1
1064  001D              	IF (200000 >= ( 040bh + __PBP__ * 2)) AND ((((200000-( 9 + __PBP__ * 2))%0402h)/4+1)>256)
1064  001D              ;# 1064 "e:\x-sense_svn\xp02\xp02\src\main.c" 1
1064  001D              	MOV A,(200000-( 9 + __PBP__ * 2))/0402h
1064  001D              ;# 1064 "e:\x-sense_svn\xp02\xp02\src\main.c" 1
1064  001D              	MOV _builtin_holtek_delay_2,A
1064  001D              ;# 1064 "e:\x-sense_svn\xp02\xp02\src\main.c" 1
1064  001D              	MOV A,0
1064  001D              ;# 1064 "e:\x-sense_svn\xp02\xp02\src\main.c" 1
1064  001D              	fcall __DELAYY5 +5- (((200000-( 9 + __PBP__ * 2))%0402h)%6) 
1064  001D              	ENDIF
1064  001D              ;# 1064 "e:\x-sense_svn\xp02\xp02\src\main.c" 1
1064  001D              	IF (200000 >= ( 040bh + __PBP__ * 2)) AND ((((200000-( 9 + __PBP__ * 2))%0402h)/4+1)<=256)
1064  001D              ;# 1064 "e:\x-sense_svn\xp02\xp02\src\main.c" 1
1064  001D  0FC2        	MOV A,(200000-( 9 + __PBP__ * 2))/0402h
1064  001E              ;# 1064 "e:\x-sense_svn\xp02\xp02\src\main.c" 1
1064  001E  0080     E  	MOV _builtin_holtek_delay_2,A
1064  001F              ;# 1064 "e:\x-sense_svn\xp02\xp02\src\main.c" 1
1064  001F  0FED        	MOV A,((200000-( 9 + __PBP__ * 2))%0402h)/4+1
1064  0020              ;# 1064 "e:\x-sense_svn\xp02\xp02\src\main.c" 1
1064  0020              	fcall __DELAYY3 +3-(((200000-( 9 + __PBP__ * 2))%0402h)%4) 
1064  0027              	ENDIF
1065  0027              #line 1065 "e:\x-sense_svn\xp02\xp02\src\main.c"
1065  0027              ;# 1065 "e:\x-sense_svn\xp02\xp02\src\main.c" 1
1065  0027              	IF 200000>263690
1065  0027              ;# 1065 "e:\x-sense_svn\xp02\xp02\src\main.c" 1
1065  0027              	ERRMESSAGE 'the value 200000of the argument exceeds the maxinum 263690'
1065  0027              	ENDIF
1065  0027              ;# 1065 "e:\x-sense_svn\xp02\xp02\src\main.c" 1
1065  0027              	IF 200000<0
1065  0027              ;# 1065 "e:\x-sense_svn\xp02\xp02\src\main.c" 1
文件：main.c       编译器版本 HGASM 0202 页次70

1065  0027              	ERRMESSAGE 'the value 200000 of the argument exceeds the mininum 0'
1065  0027              	ENDIF
1065  0027              ;# 1065 "e:\x-sense_svn\xp02\xp02\src\main.c" 1
1065  0027              	IF 200000==0
1065  0027              ;# 1065 "e:\x-sense_svn\xp02\xp02\src\main.c" 1
1065  0027              	JMP $
1065  0027              	ENDIF
1065  0027              ;# 1065 "e:\x-sense_svn\xp02\xp02\src\main.c" 1
1065  0027              	IF (200000>=1) AND (200000<( 4 + __PBP__ * 2))
1065  0027              ;# 1065 "e:\x-sense_svn\xp02\xp02\src\main.c" 1
1065  0027              	NOP
1065  0027              	ENDIF
1065  0027              ;# 1065 "e:\x-sense_svn\xp02\xp02\src\main.c" 1
1065  0027              	IF (200000>=2) AND (200000<( 4 + __PBP__ * 2))
1065  0027              ;# 1065 "e:\x-sense_svn\xp02\xp02\src\main.c" 1
1065  0027              	NOP
1065  0027              	ENDIF
1065  0027              ;# 1065 "e:\x-sense_svn\xp02\xp02\src\main.c" 1
1065  0027              	IF (200000>=3) AND (200000<( 4 + __PBP__ * 2))
1065  0027              ;# 1065 "e:\x-sense_svn\xp02\xp02\src\main.c" 1
1065  0027              	NOP
1065  0027              	ENDIF
1065  0027              ;# 1065 "e:\x-sense_svn\xp02\xp02\src\main.c" 1
1065  0027              	IF (200000>=4) AND (200000<( 4 + __PBP__ * 2)) AND ( __PBP__ > 0 )
1065  0027              ;# 1065 "e:\x-sense_svn\xp02\xp02\src\main.c" 1
1065  0027              	NOP
1065  0027              	ENDIF
1065  0027              ;# 1065 "e:\x-sense_svn\xp02\xp02\src\main.c" 1
1065  0027              	IF (200000>=5) AND (200000<( 4 + __PBP__ * 2)) AND ( __PBP__ > 0 )
1065  0027              ;# 1065 "e:\x-sense_svn\xp02\xp02\src\main.c" 1
1065  0027              	NOP
1065  0027              	ENDIF
1065  0027              ;# 1065 "e:\x-sense_svn\xp02\xp02\src\main.c" 1
1065  0027              	IF (200000>=6) AND (200000<( 4 + __PBP__ * 2))  AND ( __PBP__ > 1 )
1065  0027              ;# 1065 "e:\x-sense_svn\xp02\xp02\src\main.c" 1
1065  0027              	NOP
1065  0027              	ENDIF
1065  0027              ;# 1065 "e:\x-sense_svn\xp02\xp02\src\main.c" 1
1065  0027              	IF (200000>=7) AND (200000<( 4 + __PBP__ * 2))  AND ( __PBP__ > 1 )
1065  0027              ;# 1065 "e:\x-sense_svn\xp02\xp02\src\main.c" 1
1065  0027              	NOP
1065  0027              	ENDIF
1065  0027              ;# 1065 "e:\x-sense_svn\xp02\xp02\src\main.c" 1
1065  0027              	IF (200000>=8) AND (200000<( 4 + __PBP__ * 2))  AND ( __PBP__ > 2 )
1065  0027              ;# 1065 "e:\x-sense_svn\xp02\xp02\src\main.c" 1
1065  0027              	NOP
1065  0027              	ENDIF
1065  0027              ;# 1065 "e:\x-sense_svn\xp02\xp02\src\main.c" 1
1065  0027              	IF (200000==9)  AND ( __PBP__ > 2 )
1065  0027              ;# 1065 "e:\x-sense_svn\xp02\xp02\src\main.c" 1
1065  0027              	NOP
1065  0027              	ENDIF
1065  0027              ;# 1065 "e:\x-sense_svn\xp02\xp02\src\main.c" 1
1065  0027              	IF (200000< ( 8 + __PBP__ * 2)) AND (200000>( 3 + __PBP__ * 2))
1065  0027              ;# 1065 "e:\x-sense_svn\xp02\xp02\src\main.c" 1
1065  0027              	fcall __DELAY3 + ( 7 + __PBP__ * 2) -200000
1065  0027              	ENDIF
1065  0027              ;# 1065 "e:\x-sense_svn\xp02\xp02\src\main.c" 1
1065  0027              	IF (200000< ( 0404h + __PBP__ * 2)) AND (200000>( 7 + __PBP__ * 2))
1065  0027              ;# 1065 "e:\x-sense_svn\xp02\xp02\src\main.c" 1
文件：main.c       编译器版本 HGASM 0202 页次71

1065  0027              	MOV A,(200000-( 4 + __PBP__ * 2))/4
1065  0027              ;# 1065 "e:\x-sense_svn\xp02\xp02\src\main.c" 1
1065  0027              	fcall __DELAYX3 + 3 -((200000-( 4 + __PBP__ * 2)) MOD 4) 
1065  0027              	ENDIF
1065  0027              ;# 1065 "e:\x-sense_svn\xp02\xp02\src\main.c" 1
1065  0027              	IF (200000< ( 040bh + __PBP__ * 2)) AND (200000> ( 0403h + __PBP__ * 2))
1065  0027              ;# 1065 "e:\x-sense_svn\xp02\xp02\src\main.c" 1
1065  0027              	MOV A,0 
1065  0027              ;# 1065 "e:\x-sense_svn\xp02\xp02\src\main.c" 1
1065  0027              	fcall __DELAYX6 + ( 040ah + __PBP__ * 2) -200000
1065  0027              	ENDIF
1065  0027              ;# 1065 "e:\x-sense_svn\xp02\xp02\src\main.c" 1
1065  0027              	IF (200000 >= ( 040bh + __PBP__ * 2)) AND ((((200000-( 9 + __PBP__ * 2))%0402h)/4+1)>256)
1065  0027              ;# 1065 "e:\x-sense_svn\xp02\xp02\src\main.c" 1
1065  0027              	MOV A,(200000-( 9 + __PBP__ * 2))/0402h
1065  0027              ;# 1065 "e:\x-sense_svn\xp02\xp02\src\main.c" 1
1065  0027              	MOV _builtin_holtek_delay_2,A
1065  0027              ;# 1065 "e:\x-sense_svn\xp02\xp02\src\main.c" 1
1065  0027              	MOV A,0
1065  0027              ;# 1065 "e:\x-sense_svn\xp02\xp02\src\main.c" 1
1065  0027              	fcall __DELAYY5 +5- (((200000-( 9 + __PBP__ * 2))%0402h)%6) 
1065  0027              	ENDIF
1065  0027              ;# 1065 "e:\x-sense_svn\xp02\xp02\src\main.c" 1
1065  0027              	IF (200000 >= ( 040bh + __PBP__ * 2)) AND ((((200000-( 9 + __PBP__ * 2))%0402h)/4+1)<=256)
1065  0027              ;# 1065 "e:\x-sense_svn\xp02\xp02\src\main.c" 1
1065  0027  0FC2        	MOV A,(200000-( 9 + __PBP__ * 2))/0402h
1065  0028              ;# 1065 "e:\x-sense_svn\xp02\xp02\src\main.c" 1
1065  0028  0080     E  	MOV _builtin_holtek_delay_2,A
1065  0029              ;# 1065 "e:\x-sense_svn\xp02\xp02\src\main.c" 1
1065  0029  0FED        	MOV A,((200000-( 9 + __PBP__ * 2))%0402h)/4+1
1065  002A              ;# 1065 "e:\x-sense_svn\xp02\xp02\src\main.c" 1
1065  002A              	fcall __DELAYY3 +3-(((200000-( 9 + __PBP__ * 2))%0402h)%4) 
1065  0031              	ENDIF
1058  0031              #line 1058 "e:\x-sense_svn\xp02\xp02\src\main.c"
1058  0031  1480     E  	inc ra
1058  0032  2800     R  	jmp _L47
1058  0033              _L49:
1067  0033              #line 1067 "e:\x-sense_svn\xp02\xp02\src\main.c"
1067  0033              ;# 1067 "e:\x-sense_svn\xp02\xp02\src\main.c" 1
1067  0033              	IF 200000>263690
1067  0033              ;# 1067 "e:\x-sense_svn\xp02\xp02\src\main.c" 1
1067  0033              	ERRMESSAGE 'the value 200000of the argument exceeds the maxinum 263690'
1067  0033              	ENDIF
1067  0033              ;# 1067 "e:\x-sense_svn\xp02\xp02\src\main.c" 1
1067  0033              	IF 200000<0
1067  0033              ;# 1067 "e:\x-sense_svn\xp02\xp02\src\main.c" 1
1067  0033              	ERRMESSAGE 'the value 200000 of the argument exceeds the mininum 0'
1067  0033              	ENDIF
1067  0033              ;# 1067 "e:\x-sense_svn\xp02\xp02\src\main.c" 1
1067  0033              	IF 200000==0
1067  0033              ;# 1067 "e:\x-sense_svn\xp02\xp02\src\main.c" 1
1067  0033              	JMP $
1067  0033              	ENDIF
1067  0033              ;# 1067 "e:\x-sense_svn\xp02\xp02\src\main.c" 1
1067  0033              	IF (200000>=1) AND (200000<( 4 + __PBP__ * 2))
1067  0033              ;# 1067 "e:\x-sense_svn\xp02\xp02\src\main.c" 1
1067  0033              	NOP
1067  0033              	ENDIF
1067  0033              ;# 1067 "e:\x-sense_svn\xp02\xp02\src\main.c" 1
1067  0033              	IF (200000>=2) AND (200000<( 4 + __PBP__ * 2))
文件：main.c       编译器版本 HGASM 0202 页次72

1067  0033              ;# 1067 "e:\x-sense_svn\xp02\xp02\src\main.c" 1
1067  0033              	NOP
1067  0033              	ENDIF
1067  0033              ;# 1067 "e:\x-sense_svn\xp02\xp02\src\main.c" 1
1067  0033              	IF (200000>=3) AND (200000<( 4 + __PBP__ * 2))
1067  0033              ;# 1067 "e:\x-sense_svn\xp02\xp02\src\main.c" 1
1067  0033              	NOP
1067  0033              	ENDIF
1067  0033              ;# 1067 "e:\x-sense_svn\xp02\xp02\src\main.c" 1
1067  0033              	IF (200000>=4) AND (200000<( 4 + __PBP__ * 2)) AND ( __PBP__ > 0 )
1067  0033              ;# 1067 "e:\x-sense_svn\xp02\xp02\src\main.c" 1
1067  0033              	NOP
1067  0033              	ENDIF
1067  0033              ;# 1067 "e:\x-sense_svn\xp02\xp02\src\main.c" 1
1067  0033              	IF (200000>=5) AND (200000<( 4 + __PBP__ * 2)) AND ( __PBP__ > 0 )
1067  0033              ;# 1067 "e:\x-sense_svn\xp02\xp02\src\main.c" 1
1067  0033              	NOP
1067  0033              	ENDIF
1067  0033              ;# 1067 "e:\x-sense_svn\xp02\xp02\src\main.c" 1
1067  0033              	IF (200000>=6) AND (200000<( 4 + __PBP__ * 2))  AND ( __PBP__ > 1 )
1067  0033              ;# 1067 "e:\x-sense_svn\xp02\xp02\src\main.c" 1
1067  0033              	NOP
1067  0033              	ENDIF
1067  0033              ;# 1067 "e:\x-sense_svn\xp02\xp02\src\main.c" 1
1067  0033              	IF (200000>=7) AND (200000<( 4 + __PBP__ * 2))  AND ( __PBP__ > 1 )
1067  0033              ;# 1067 "e:\x-sense_svn\xp02\xp02\src\main.c" 1
1067  0033              	NOP
1067  0033              	ENDIF
1067  0033              ;# 1067 "e:\x-sense_svn\xp02\xp02\src\main.c" 1
1067  0033              	IF (200000>=8) AND (200000<( 4 + __PBP__ * 2))  AND ( __PBP__ > 2 )
1067  0033              ;# 1067 "e:\x-sense_svn\xp02\xp02\src\main.c" 1
1067  0033              	NOP
1067  0033              	ENDIF
1067  0033              ;# 1067 "e:\x-sense_svn\xp02\xp02\src\main.c" 1
1067  0033              	IF (200000==9)  AND ( __PBP__ > 2 )
1067  0033              ;# 1067 "e:\x-sense_svn\xp02\xp02\src\main.c" 1
1067  0033              	NOP
1067  0033              	ENDIF
1067  0033              ;# 1067 "e:\x-sense_svn\xp02\xp02\src\main.c" 1
1067  0033              	IF (200000< ( 8 + __PBP__ * 2)) AND (200000>( 3 + __PBP__ * 2))
1067  0033              ;# 1067 "e:\x-sense_svn\xp02\xp02\src\main.c" 1
1067  0033              	fcall __DELAY3 + ( 7 + __PBP__ * 2) -200000
1067  0033              	ENDIF
1067  0033              ;# 1067 "e:\x-sense_svn\xp02\xp02\src\main.c" 1
1067  0033              	IF (200000< ( 0404h + __PBP__ * 2)) AND (200000>( 7 + __PBP__ * 2))
1067  0033              ;# 1067 "e:\x-sense_svn\xp02\xp02\src\main.c" 1
1067  0033              	MOV A,(200000-( 4 + __PBP__ * 2))/4
1067  0033              ;# 1067 "e:\x-sense_svn\xp02\xp02\src\main.c" 1
1067  0033              	fcall __DELAYX3 + 3 -((200000-( 4 + __PBP__ * 2)) MOD 4) 
1067  0033              	ENDIF
1067  0033              ;# 1067 "e:\x-sense_svn\xp02\xp02\src\main.c" 1
1067  0033              	IF (200000< ( 040bh + __PBP__ * 2)) AND (200000> ( 0403h + __PBP__ * 2))
1067  0033              ;# 1067 "e:\x-sense_svn\xp02\xp02\src\main.c" 1
1067  0033              	MOV A,0 
1067  0033              ;# 1067 "e:\x-sense_svn\xp02\xp02\src\main.c" 1
1067  0033              	fcall __DELAYX6 + ( 040ah + __PBP__ * 2) -200000
1067  0033              	ENDIF
1067  0033              ;# 1067 "e:\x-sense_svn\xp02\xp02\src\main.c" 1
1067  0033              	IF (200000 >= ( 040bh + __PBP__ * 2)) AND ((((200000-( 9 + __PBP__ * 2))%0402h)/4+1)>256)
1067  0033              ;# 1067 "e:\x-sense_svn\xp02\xp02\src\main.c" 1
文件：main.c       编译器版本 HGASM 0202 页次73

1067  0033              	MOV A,(200000-( 9 + __PBP__ * 2))/0402h
1067  0033              ;# 1067 "e:\x-sense_svn\xp02\xp02\src\main.c" 1
1067  0033              	MOV _builtin_holtek_delay_2,A
1067  0033              ;# 1067 "e:\x-sense_svn\xp02\xp02\src\main.c" 1
1067  0033              	MOV A,0
1067  0033              ;# 1067 "e:\x-sense_svn\xp02\xp02\src\main.c" 1
1067  0033              	fcall __DELAYY5 +5- (((200000-( 9 + __PBP__ * 2))%0402h)%6) 
1067  0033              	ENDIF
1067  0033              ;# 1067 "e:\x-sense_svn\xp02\xp02\src\main.c" 1
1067  0033              	IF (200000 >= ( 040bh + __PBP__ * 2)) AND ((((200000-( 9 + __PBP__ * 2))%0402h)/4+1)<=256)
1067  0033              ;# 1067 "e:\x-sense_svn\xp02\xp02\src\main.c" 1
1067  0033  0FC2        	MOV A,(200000-( 9 + __PBP__ * 2))/0402h
1067  0034              ;# 1067 "e:\x-sense_svn\xp02\xp02\src\main.c" 1
1067  0034  0080     E  	MOV _builtin_holtek_delay_2,A
1067  0035              ;# 1067 "e:\x-sense_svn\xp02\xp02\src\main.c" 1
1067  0035  0FED        	MOV A,((200000-( 9 + __PBP__ * 2))%0402h)/4+1
1067  0036              ;# 1067 "e:\x-sense_svn\xp02\xp02\src\main.c" 1
1067  0036              	fcall __DELAYY3 +3-(((200000-( 9 + __PBP__ * 2))%0402h)%4) 
1067  003D              	ENDIF
1067  003D  0003        	ret
1067  003E              _CailStepDisplay endp
1067  003E              #line 1067 "e:\x-sense_svn\xp02\xp02\src\main.c"
1067  003E              #pragma debug scope 1 1
1067  003E              public _PollingLED
1067  003E              #pragma debug scope 11 1
1142  003E              #line 1142 "e:\x-sense_svn\xp02\xp02\src\main.c"
1142  0000              _PollingLED .section 'code'
1142  0000              _PollingLED proc
1142  0000              public _PollingLED_2
1142  0000  0002[           local _PollingLED_2 db 2 dup(?)	; 2,0
            00
            ]
1142  0002              #pragma debug variable 10 11 _PollingLED_2+0 "Time"
1143  0002              #line 1143 "e:\x-sense_svn\xp02\xp02\src\main.c"
1143  0000  3618        	clr [24].4
1144  0001              #line 1144 "e:\x-sense_svn\xp02\xp02\src\main.c"
1144  0001  3114        	set [20].2
1145  0002              #line 1145 "e:\x-sense_svn\xp02\xp02\src\main.c"
1145  0002  0F09        	mov a,9
1145  0003  0200     R  	sub a,_PollingLED_2[0]
1145  0004  0F00        	mov a,0
1145  0005  1200     R  	sbc a,_PollingLED_2[1]
1145  0006  3C0A        	sz c
1145  0007  2800     R  	jmp _L52
1145  0008              #line 1145 "e:\x-sense_svn\xp02\xp02\src\main.c"
1145  0008  0F05        	mov a,5
1145  0009  0300     R  	add a,_PollingLED_2[0]
1145  000A  0080     E  	mov rb,a
1145  000B  0F00        	mov a,0
1145  000C  1300     R  	adc a,_PollingLED_2[1]
1145  000D  0080     E  	mov rc,a
1145  000E  1F00     E  	clr _builtin_holtek_udivmodhi4_2[6]
1145  000F  0700     E  	mov a,rb  
1145  0010  0080     E  	mov _builtin_holtek_udivmodhi4_2[0],a  
1145  0011  0700     E  	mov a,rc  
1145  0012  0080     E  	mov _builtin_holtek_udivmodhi4_2[1],a
1145  0013  0F0A        	mov a,10  
1145  0014  0080     E  	mov _builtin_holtek_udivmodhi4_2[2],a  
1145  0015  1F00     E  	clr _builtin_holtek_udivmodhi4_2[3]
1145  0016              	fcall _builtin_holtek_udivmodhi4
文件：main.c       编译器版本 HGASM 0202 页次74

1145  001D  0700     E  	mov a,_builtin_holtek_udivmodhi4_2[0]  
1145  001E  0080     E  	mov rb,a  
1145  001F  0700     E  	mov a,_builtin_holtek_udivmodhi4_2[1]  
1145  0020  0080     E  	mov rc,a
1145  0021  2800     R  	jmp _L51
1145  0022              _L52:
1145  0022  0F01        	mov a,1
1145  0023  0080     E  	mov rb,a
1145  0024  1F00     E  	clr rc
1145  0025              _L51:
1145  0025  1F00     E  	clr _TmrInsertTimer_2[4]
1145  0026  1F00     E  	clr _TmrInsertTimer_2[5]
1145  0027  0700     E  	mov a,rb
1145  0028  0080     E  	mov _TmrInsertTimer_2[2],a
1145  0029  0700     E  	mov a,rc
1145  002A  0080     E  	mov _TmrInsertTimer_2[3],a
1145  002B  0F02        	mov a,2
1145  002C  0080     E  	mov _TmrInsertTimer_2[0],a
1145  002D  1F00     E  	clr _TmrInsertTimer_2[1]
1145  002E              	fcall _TmrInsertTimer
1145  0035  0003        	ret
1145  0036              _PollingLED endp
1145  0036              #line 1145 "e:\x-sense_svn\xp02\xp02\src\main.c"
1145  0036              #pragma debug scope 1 1
1145  0036              public _PollingLEDOff
1145  0036              #pragma debug scope 12 1
1149  0036              #line 1149 "e:\x-sense_svn\xp02\xp02\src\main.c"
1149  0000              _PollingLEDOff .section 'code'
1149  0000              _PollingLEDOff proc
1150  0000              #line 1150 "e:\x-sense_svn\xp02\xp02\src\main.c"
1150  0000  3514        	clr [20].2
1150  0001  0003        	ret
1150  0002              _PollingLEDOff endp
1150  0002              #line 1150 "e:\x-sense_svn\xp02\xp02\src\main.c"
1150  0002              #pragma debug scope 1 1
1150  0002              public _PollingBeep
1150  0002              #pragma debug scope 13 1
1162  0002              #line 1162 "e:\x-sense_svn\xp02\xp02\src\main.c"
1162  0000              _PollingBeep .section 'code'
1162  0000              _PollingBeep proc
1162  0000              public _PollingBeep_2
1162  0000  0002[           local _PollingBeep_2 db 2 dup(?)	; 2,0
            00
            ]
1162  0002              #pragma debug variable 10 13 _PollingBeep_2+0 "Time"
1163  0002              #line 1163 "e:\x-sense_svn\xp02\xp02\src\main.c"
1163  0000  3694        	clr [20].5
1163  0001  321B        	set [27].4
1164  0002              #line 1164 "e:\x-sense_svn\xp02\xp02\src\main.c"
1164  0002  0F09        	mov a,9
1164  0003  0200     R  	sub a,_PollingBeep_2[0]
1164  0004  0F00        	mov a,0
1164  0005  1200     R  	sbc a,_PollingBeep_2[1]
1164  0006  3C0A        	sz c
1164  0007  2800     R  	jmp _L56
1164  0008              #line 1164 "e:\x-sense_svn\xp02\xp02\src\main.c"
1164  0008  0F05        	mov a,5
1164  0009  0300     R  	add a,_PollingBeep_2[0]
1164  000A  0080     E  	mov rb,a
1164  000B  0F00        	mov a,0
文件：main.c       编译器版本 HGASM 0202 页次75

1164  000C  1300     R  	adc a,_PollingBeep_2[1]
1164  000D  0080     E  	mov rc,a
1164  000E  1F00     E  	clr _builtin_holtek_udivmodhi4_2[6]
1164  000F  0700     E  	mov a,rb  
1164  0010  0080     E  	mov _builtin_holtek_udivmodhi4_2[0],a  
1164  0011  0700     E  	mov a,rc  
1164  0012  0080     E  	mov _builtin_holtek_udivmodhi4_2[1],a
1164  0013  0F0A        	mov a,10  
1164  0014  0080     E  	mov _builtin_holtek_udivmodhi4_2[2],a  
1164  0015  1F00     E  	clr _builtin_holtek_udivmodhi4_2[3]
1164  0016              	fcall _builtin_holtek_udivmodhi4
1164  001D  0700     E  	mov a,_builtin_holtek_udivmodhi4_2[0]  
1164  001E  0080     E  	mov rb,a  
1164  001F  0700     E  	mov a,_builtin_holtek_udivmodhi4_2[1]  
1164  0020  0080     E  	mov rc,a
1164  0021  2800     R  	jmp _L55
1164  0022              _L56:
1164  0022  0F01        	mov a,1
1164  0023  0080     E  	mov rb,a
1164  0024  1F00     E  	clr rc
1164  0025              _L55:
1164  0025  1F00     E  	clr _TmrInsertTimer_2[4]
1164  0026  1F00     E  	clr _TmrInsertTimer_2[5]
1164  0027  0700     E  	mov a,rb
1164  0028  0080     E  	mov _TmrInsertTimer_2[2],a
1164  0029  0700     E  	mov a,rc
1164  002A  0080     E  	mov _TmrInsertTimer_2[3],a
1164  002B  0F03        	mov a,3
1164  002C  0080     E  	mov _TmrInsertTimer_2[0],a
1164  002D  1F00     E  	clr _TmrInsertTimer_2[1]
1164  002E              	fcall _TmrInsertTimer
1164  0035  0003        	ret
1164  0036              _PollingBeep endp
1164  0036              #line 1164 "e:\x-sense_svn\xp02\xp02\src\main.c"
1164  0036              #pragma debug scope 1 1
1164  0036              public _PollingBeepOff
1164  0036              #pragma debug scope 14 1
1168  0036              #line 1168 "e:\x-sense_svn\xp02\xp02\src\main.c"
1168  0000              _PollingBeepOff .section 'code'
1168  0000              _PollingBeepOff proc
1169  0000              #line 1169 "e:\x-sense_svn\xp02\xp02\src\main.c"
1169  0000  3294        	set [20].5
1169  0001  361B        	clr [27].4
1169  0002  0003        	ret
1169  0003              _PollingBeepOff endp
1169  0003              #line 1169 "e:\x-sense_svn\xp02\xp02\src\main.c"
1169  0003              #pragma debug scope 1 1
1169  0003              public _PollingGreenLED
1169  0003              #pragma debug scope 15 1
1174  0003              #line 1174 "e:\x-sense_svn\xp02\xp02\src\main.c"
1174  0000              _PollingGreenLED .section 'code'
1174  0000              _PollingGreenLED proc
1174  0000              public _PollingGreenLED_2
1174  0000  0002[           local _PollingGreenLED_2 db 2 dup(?)	; 2,0
            00
            ]
1174  0002              #pragma debug variable 10 15 _PollingGreenLED_2+0 "Time"
1175  0002              #line 1175 "e:\x-sense_svn\xp02\xp02\src\main.c"
1175  0000  3514        	clr [20].2
1176  0001              #line 1176 "e:\x-sense_svn\xp02\xp02\src\main.c"
文件：main.c       编译器版本 HGASM 0202 页次76

1176  0001  3218        	set [24].4
1177  0002              #line 1177 "e:\x-sense_svn\xp02\xp02\src\main.c"
1177  0002  0F09        	mov a,9
1177  0003  0200     R  	sub a,_PollingGreenLED_2[0]
1177  0004  0F00        	mov a,0
1177  0005  1200     R  	sbc a,_PollingGreenLED_2[1]
1177  0006  3C0A        	sz c
1177  0007  2800     R  	jmp _L60
1177  0008              #line 1177 "e:\x-sense_svn\xp02\xp02\src\main.c"
1177  0008  0F05        	mov a,5
1177  0009  0300     R  	add a,_PollingGreenLED_2[0]
1177  000A  0080     E  	mov rb,a
1177  000B  0F00        	mov a,0
1177  000C  1300     R  	adc a,_PollingGreenLED_2[1]
1177  000D  0080     E  	mov rc,a
1177  000E  1F00     E  	clr _builtin_holtek_udivmodhi4_2[6]
1177  000F  0700     E  	mov a,rb  
1177  0010  0080     E  	mov _builtin_holtek_udivmodhi4_2[0],a  
1177  0011  0700     E  	mov a,rc  
1177  0012  0080     E  	mov _builtin_holtek_udivmodhi4_2[1],a
1177  0013  0F0A        	mov a,10  
1177  0014  0080     E  	mov _builtin_holtek_udivmodhi4_2[2],a  
1177  0015  1F00     E  	clr _builtin_holtek_udivmodhi4_2[3]
1177  0016              	fcall _builtin_holtek_udivmodhi4
1177  001D  0700     E  	mov a,_builtin_holtek_udivmodhi4_2[0]  
1177  001E  0080     E  	mov rb,a  
1177  001F  0700     E  	mov a,_builtin_holtek_udivmodhi4_2[1]  
1177  0020  0080     E  	mov rc,a
1177  0021  2800     R  	jmp _L59
1177  0022              _L60:
1177  0022  0F01        	mov a,1
1177  0023  0080     E  	mov rb,a
1177  0024  1F00     E  	clr rc
1177  0025              _L59:
1177  0025  1F00     E  	clr _TmrInsertTimer_2[4]
1177  0026  1F00     E  	clr _TmrInsertTimer_2[5]
1177  0027  0700     E  	mov a,rb
1177  0028  0080     E  	mov _TmrInsertTimer_2[2],a
1177  0029  0700     E  	mov a,rc
1177  002A  0080     E  	mov _TmrInsertTimer_2[3],a
1177  002B  0F0C        	mov a,12
1177  002C  0080     E  	mov _TmrInsertTimer_2[0],a
1177  002D  1F00     E  	clr _TmrInsertTimer_2[1]
1177  002E              	fcall _TmrInsertTimer
1177  0035  0003        	ret
1177  0036              _PollingGreenLED endp
1177  0036              #line 1177 "e:\x-sense_svn\xp02\xp02\src\main.c"
1177  0036              #pragma debug scope 1 1
1177  0036              public _PollingGreenLEDOff
1177  0036              #pragma debug scope 16 1
1181  0036              #line 1181 "e:\x-sense_svn\xp02\xp02\src\main.c"
1181  0000              _PollingGreenLEDOff .section 'code'
1181  0000              _PollingGreenLEDOff proc
1182  0000              #line 1182 "e:\x-sense_svn\xp02\xp02\src\main.c"
1182  0000  3618        	clr [24].4
1182  0001  0003        	ret
1182  0002              _PollingGreenLEDOff endp
1182  0002              #line 1182 "e:\x-sense_svn\xp02\xp02\src\main.c"
1182  0002              #pragma debug scope 1 1
1182  0002              public _PollingGREENLEDFlicker
文件：main.c       编译器版本 HGASM 0202 页次77

1182  0002              #pragma debug scope 17 1
1186  0002              #line 1186 "e:\x-sense_svn\xp02\xp02\src\main.c"
1186  0000              _PollingGREENLEDFlicker .section 'code'
1186  0000              _PollingGREENLEDFlicker proc
1186  0000              public _PollingGREENLEDFlicker_2
1186  0000  0002[           local _PollingGREENLEDFlicker_2 db 2 dup(?)	; 2,0
            00
            ]
1186  0002              #pragma debug pointer 42 7 17
1186  0002              #pragma debug pointer 42 7 17
1186  0002              #pragma debug variable 42 17 _PollingGREENLEDFlicker_2+0 "Time"
1187  0002              #line 1187 "e:\x-sense_svn\xp02\xp02\src\main.c"
1187  0000  3218        	set [24].4
1188  0001              #line 1188 "e:\x-sense_svn\xp02\xp02\src\main.c"
1188  0001  0700     R  	mov a,_PollingGREENLEDFlicker_2[0]
1188  0002  0080     R  	mov _PollingGreenLED_2[0],a
1188  0003  0700     R  	mov a,_PollingGREENLEDFlicker_2[1]
1188  0004  0080     R  	mov _PollingGreenLED_2[1],a
1188  0005              	fcall _PollingGreenLED
1188  000C  0003        	ret
1188  000D              _PollingGREENLEDFlicker endp
1188  000D              #line 1188 "e:\x-sense_svn\xp02\xp02\src\main.c"
1188  000D              #pragma debug scope 1 1
1188  000D              public _PollingRFLED
1188  000D              #pragma debug scope 18 1
1192  000D              #line 1192 "e:\x-sense_svn\xp02\xp02\src\main.c"
1192  0000              _PollingRFLED .section 'code'
1192  0000              _PollingRFLED proc
1192  0000              public _PollingRFLED_2
1192  0000  0002[           local _PollingRFLED_2 db 2 dup(?)	; 2,0
            00
            ]
1192  0002              #pragma debug variable 10 18 _PollingRFLED_2+0 "Time"
1193  0002              #line 1193 "e:\x-sense_svn\xp02\xp02\src\main.c"
1193  0000  3114        	set [20].2
1194  0001              #line 1194 "e:\x-sense_svn\xp02\xp02\src\main.c"
1194  0001  0F09        	mov a,9
1194  0002  0200     R  	sub a,_PollingRFLED_2[0]
1194  0003  0F00        	mov a,0
1194  0004  1200     R  	sbc a,_PollingRFLED_2[1]
1194  0005  3C0A        	sz c
1194  0006  2800     R  	jmp _L65
1194  0007              #line 1194 "e:\x-sense_svn\xp02\xp02\src\main.c"
1194  0007  0F05        	mov a,5
1194  0008  0300     R  	add a,_PollingRFLED_2[0]
1194  0009  0080     E  	mov rb,a
1194  000A  0F00        	mov a,0
1194  000B  1300     R  	adc a,_PollingRFLED_2[1]
1194  000C  0080     E  	mov rc,a
1194  000D  1F00     E  	clr _builtin_holtek_udivmodhi4_2[6]
1194  000E  0700     E  	mov a,rb  
1194  000F  0080     E  	mov _builtin_holtek_udivmodhi4_2[0],a  
1194  0010  0700     E  	mov a,rc  
1194  0011  0080     E  	mov _builtin_holtek_udivmodhi4_2[1],a
1194  0012  0F0A        	mov a,10  
1194  0013  0080     E  	mov _builtin_holtek_udivmodhi4_2[2],a  
1194  0014  1F00     E  	clr _builtin_holtek_udivmodhi4_2[3]
1194  0015              	fcall _builtin_holtek_udivmodhi4
1194  001C  0700     E  	mov a,_builtin_holtek_udivmodhi4_2[0]  
1194  001D  0080     E  	mov rb,a  
文件：main.c       编译器版本 HGASM 0202 页次78

1194  001E  0700     E  	mov a,_builtin_holtek_udivmodhi4_2[1]  
1194  001F  0080     E  	mov rc,a
1194  0020  2800     R  	jmp _L64
1194  0021              _L65:
1194  0021  0F01        	mov a,1
1194  0022  0080     E  	mov rb,a
1194  0023  1F00     E  	clr rc
1194  0024              _L64:
1194  0024  1F00     E  	clr _TmrInsertTimer_2[4]
1194  0025  1F00     E  	clr _TmrInsertTimer_2[5]
1194  0026  0700     E  	mov a,rb
1194  0027  0080     E  	mov _TmrInsertTimer_2[2],a
1194  0028  0700     E  	mov a,rc
1194  0029  0080     E  	mov _TmrInsertTimer_2[3],a
1194  002A  0F02        	mov a,2
1194  002B  0080     E  	mov _TmrInsertTimer_2[0],a
1194  002C  1F00     E  	clr _TmrInsertTimer_2[1]
1194  002D              	fcall _TmrInsertTimer
1195  0034              #line 1195 "e:\x-sense_svn\xp02\xp02\src\main.c"
1195  0034  0FC8        	mov a,-56
1195  0035  0080     E  	mov _TmrInsertTimer_2[4],a
1195  0036  1F00     E  	clr _TmrInsertTimer_2[5]
1195  0037  0F50        	mov a,80
1195  0038  0080     E  	mov _TmrInsertTimer_2[2],a
1195  0039  1F00     E  	clr _TmrInsertTimer_2[3]
1195  003A  0F0B        	mov a,11
1195  003B  0080     E  	mov _TmrInsertTimer_2[0],a
1195  003C  1F00     E  	clr _TmrInsertTimer_2[1]
1195  003D              	fcall _TmrInsertTimer
1195  0044  0003        	ret
1195  0045              _PollingRFLED endp
1195  0045              #line 1195 "e:\x-sense_svn\xp02\xp02\src\main.c"
1195  0045              #pragma debug scope 1 1
1195  0045              public _SysteSetSig
1195  0045              #pragma debug scope 19 1
1199  0045              #line 1199 "e:\x-sense_svn\xp02\xp02\src\main.c"
1199  0000              _SysteSetSig .section 'code'
1199  0000              _SysteSetSig proc
1199  0000              public _SysteSetSig_2
1199  0000  0002[           local _SysteSetSig_2 db 2 dup(?)	; 2,0
            00
            ]
1199  0002              #pragma debug variable 12 19 _SysteSetSig_2+0 "sig"
1199  0000  0F0A        	mov a,10
1199  0001  0080     E  	mov rf,a
1201  0002              #line 1201 "e:\x-sense_svn\xp02\xp02\src\main.c"
1201  0002  1F00     E  	clr ra
1201  0003              _L70:
1203  0003              #line 1203 "e:\x-sense_svn\xp02\xp02\src\main.c"
1203  0003  0700     E  	mov a,ra
1203  0004  0080     E  	mov rb,a
1203  0005  1F00     E  	clr rc
1203  0006  340A        	clr c
1203  0007  1A00     E  	rlca rb
1203  0008  0080     E  	mov rd,a
1203  0009  1A00     E  	rlca rc
1203  000A  0080     E  	mov re,a
1203  000B  0700     E  	mov a,rd
1203  000C  0380     E  	addm a,rb
1203  000D  0700     E  	mov a,re
文件：main.c       编译器版本 HGASM 0202 页次79

1203  000E  1380     E  	adcm a,rc
1203  000F  0F00     R  	mov a,low (offset _SysAO+31)
1203  0010  0300     E  	add a,rb
1203  0011  0080     E  	mov rd,a
1203  0012  0F00     R  	mov a,high (offset _SysAO+31)
1203  0013  1300     E  	adc a,rc
1203  0014  0080     E  	mov re,a
1203  0015  0700     E  	mov a,rd
1203  0016  0083        	mov mp,a
1203  0017  0700     E  	mov a,re
1203  0018  0084        	mov sbp,a
1203  0019              	fcall _Crom2Prom
1203  0020  0080     E  	mov rg,a
1203  0021  1080     E  	sz rg
1203  0022  2800     R  	jmp _L67
1205  0023              #line 1205 "e:\x-sense_svn\xp02\xp02\src\main.c"
1205  0023  0F00     R  	mov a,low (offset _SysAO+29)
1205  0024  0300     E  	add a,rb
1205  0025  0083        	mov mp,a
1205  0026  0F00     R  	mov a,high (offset _SysAO+29)
1205  0027  1300     E  	adc a,rc
1205  0028  0084        	mov sbp,a
1205  0029  0700     R  	mov a,_SysteSetSig_2[0]
1205  002A  0082        	mov ir,a
1205  002B  1483        	inc mp
1205  002C  0700     R  	mov a,_SysteSetSig_2[1]
1205  002D  0082        	mov ir,a
1206  002E              #line 1206 "e:\x-sense_svn\xp02\xp02\src\main.c"
1206  002E  0700     E  	mov a,rd
1206  002F  0083        	mov mp,a
1206  0030  0700     E  	mov a,re
1206  0031  0084        	mov sbp,a
1206  0032  0F01        	mov a,1
1206  0033  0082        	mov ir,a
1206  0034  2800     R  	jmp _L66
1206  0035              _L67:
1201  0035              #line 1201 "e:\x-sense_svn\xp02\xp02\src\main.c"
1201  0035  1480     E  	inc ra
1201  0036  1780     E  	sdz rf
1201  0037  2800     R  	jmp _L70
1212  0038              #line 1212 "e:\x-sense_svn\xp02\xp02\src\main.c"
1212  0038  0700     R  	mov a,_SysteSetSig_2[0]
1212  0039  0080     R  	mov _SysAO[29],a
1212  003A  0700     R  	mov a,_SysteSetSig_2[1]
1212  003B  0080     R  	mov _SysAO[30],a
1213  003C              #line 1213 "e:\x-sense_svn\xp02\xp02\src\main.c"
1213  003C  0F01        	mov a,1
1213  003D  0080     R  	mov _SysAO[31],a
1213  003E              _L66:
1213  003E  0003        	ret
1213  003F              _SysteSetSig endp
1213  003F              #line 1213 "e:\x-sense_svn\xp02\xp02\src\main.c"
1213  003F              #pragma debug scope 1 1
1213  003F              public _SysteGetSig
1213  003F              #pragma debug scope 20 1
1219  003F              #line 1219 "e:\x-sense_svn\xp02\xp02\src\main.c"
1219  0000              _SysteGetSig .section 'code'
1219  0000              _SysteGetSig proc
1219  0000  0F0A        	mov a,10
1219  0001  0080     E  	mov rf,a
文件：main.c       编译器版本 HGASM 0202 页次80

1223  0002              #line 1223 "e:\x-sense_svn\xp02\xp02\src\main.c"
1223  0002  1F00     E  	clr ra
1223  0003              _L74:
1225  0003              #line 1225 "e:\x-sense_svn\xp02\xp02\src\main.c"
1225  0003  0700     E  	mov a,ra
1225  0004  0080     E  	mov rb,a
1225  0005  1F00     E  	clr rc
1225  0006  340A        	clr c
1225  0007  1A00     E  	rlca rb
1225  0008  0080     E  	mov rd,a
1225  0009  1A00     E  	rlca rc
1225  000A  0080     E  	mov re,a
1225  000B  0700     E  	mov a,rd
1225  000C  0380     E  	addm a,rb
1225  000D  0700     E  	mov a,re
1225  000E  1380     E  	adcm a,rc
1225  000F  0F00     R  	mov a,low (offset _SysAO+31)
1225  0010  0300     E  	add a,rb
1225  0011  0080     E  	mov rd,a
1225  0012  0F00     R  	mov a,high (offset _SysAO+31)
1225  0013  1300     E  	adc a,rc
1225  0014  0080     E  	mov re,a
1225  0015  0700     E  	mov a,rd
1225  0016  0083        	mov mp,a
1225  0017  0700     E  	mov a,re
1225  0018  0084        	mov sbp,a
1225  0019              	fcall _Crom2Prom
1225  0020  0080     E  	mov rg,a
1225  0021  1700     E  	sdza rg
1225  0022  2800     R  	jmp _L72
1227  0023              #line 1227 "e:\x-sense_svn\xp02\xp02\src\main.c"
1227  0023  0F00     R  	mov a,low (offset _SysAO+29)
1227  0024  0300     E  	add a,rb
1227  0025  0083        	mov mp,a
1227  0026  0F00     R  	mov a,high (offset _SysAO+29)
1227  0027  1300     E  	adc a,rc
1227  0028  0084        	mov sbp,a
1227  0029              	fcall _Crom2Prom
1227  0030  0080     E  	mov ra,a
1227  0031              	fcall _Crom2PromNext
1227  0038  0080     E  	mov rb,a
1228  0039              #line 1228 "e:\x-sense_svn\xp02\xp02\src\main.c"
1228  0039  0700     E  	mov a,rd
1228  003A  0083        	mov mp,a
1228  003B  0700     E  	mov a,re
1228  003C  0084        	mov sbp,a
1228  003D  0F00        	mov a,0
1228  003E  0082        	mov ir,a
1229  003F              #line 1229 "e:\x-sense_svn\xp02\xp02\src\main.c"
1229  003F  2800     R  	jmp _L73
1229  0040              _L72:
1223  0040              #line 1223 "e:\x-sense_svn\xp02\xp02\src\main.c"
1223  0040  1480     E  	inc ra
1223  0041  1780     E  	sdz rf
1223  0042  2800     R  	jmp _L74
1222  0043              #line 1222 "e:\x-sense_svn\xp02\xp02\src\main.c"
1222  0043  1F00     E  	clr ra
1222  0044  1F00     E  	clr rb
1222  0045              _L73:
1222  0045  0003        	ret
文件：main.c       编译器版本 HGASM 0202 页次81

1222  0046              _SysteGetSig endp
1222  0046              #line 1222 "e:\x-sense_svn\xp02\xp02\src\main.c"
1222  0046              #pragma debug scope 1 1
1222  0046              public _Lvd_Int_ISR
1222  0046              #pragma debug scope 21 1
1237  0046              #line 1237 "e:\x-sense_svn\xp02\xp02\src\main.c"
1237  0046              rombank 0 @Lvd_Int_ISR_code
1237  0000              @Lvd_Int_ISR_code .section at 20 'code'
1237  0000              _Lvd_Int_ISR:
1237  0000  0004        	reti
1237  0001              #line 1237 "e:\x-sense_svn\xp02\xp02\src\main.c"
1237  0001              #pragma debug scope 1 1
1237  0001              public _Timebase0_Int_ISR
1237  0001              #pragma debug scope 22 1
1243  0001              #line 1243 "e:\x-sense_svn\xp02\xp02\src\main.c"
1243  0001              rombank 0 @Timebase0_Int_ISR_code
1243  0000              @Timebase0_Int_ISR_code .section at 36 'code'
1243  0000  0080     E  	mov r1,a
1243  0001  070B        	mov a,bp
1243  0002  1F0B        	clr bp
1243  0003  2800     R  	jmp _Timebase0_Int_ISR
1243  0004              ROMBANK 0 _Timebase0_Int_ISR
1243  0004              #pragma debug scope 1 1
1243  0004              @dummy36 endp
1243  0004              #pragma debug scope 23 1
1243  0000              _Timebase0_Int_ISR .section 'code'
1243  0000              _Timebase0_Int_ISR proc
1243  0000  0080     E  	mov r2,a
1243  0001  070A        	mov a, status
1243  0002  0080     E  	mov r3,a
1244  0003              #line 1244 "e:\x-sense_svn\xp02\xp02\src\main.c"
1244  0003  36C5        	clr [69].5
1244  0004  0700     E  	mov a,r2
1244  0005  008B        	mov bp,a
1244  0006  0700     E  	mov a,r3
1244  0007  008A        	mov status,a
1244  0008  0700     E  	mov a,r1
1244  0009  0004        	reti
1244  000A              _Timebase0_Int_ISR endp
1244  000A              
1244  000A              #line 1244 "e:\x-sense_svn\xp02\xp02\src\main.c"
1244  000A              #pragma debug scope 1 1
1244  000A              ___intc0 equ [67]
1244  000A              public _Adc_Input_Int_ISR
1244  000A              #pragma debug scope 24 1
1248  000A              #line 1248 "e:\x-sense_svn\xp02\xp02\src\main.c"
1248  000A              rombank 0 @Adc_Input_Int_ISR_code
1248  0000              @Adc_Input_Int_ISR_code .section at 8 'code'
1248  0000  0080     E  	mov r1,a
1248  0001  070B        	mov a,bp
1248  0002  1F0B        	clr bp
1248  0003  2800     R  	jmp _Adc_Input_Int_ISR
1248  0004              ROMBANK 0 _Adc_Input_Int_ISR
1248  0004              #pragma debug scope 1 1
1248  0004              @dummy8 endp
1248  0004              #pragma debug scope 25 1
1248  0000              _Adc_Input_Int_ISR .section 'code'
1248  0000              _Adc_Input_Int_ISR proc
1248  0000  0080     E  	mov r2,a
1248  0001  070A        	mov a, status
文件：main.c       编译器版本 HGASM 0202 页次82

1248  0002  0080     E  	mov r3,a
1249  0003              #line 1249 "e:\x-sense_svn\xp02\xp02\src\main.c"
1249  0003  36C3        	clr [67].5
1249  0004  0700     E  	mov a,r2
1249  0005  008B        	mov bp,a
1249  0006  0700     E  	mov a,r3
1249  0007  008A        	mov status,a
1249  0008  0700     E  	mov a,r1
1249  0009  0004        	reti
1249  000A              _Adc_Input_Int_ISR endp
1249  000A              
1249  000A              #line 1249 "e:\x-sense_svn\xp02\xp02\src\main.c"
1249  000A              #pragma debug scope 1 1
1249  000A              public _Dec_Int_ISR
1249  000A              #pragma debug scope 26 1
1253  000A              #line 1253 "e:\x-sense_svn\xp02\xp02\src\main.c"
1253  000A              rombank 0 @Dec_Int_ISR_code
1253  0000              @Dec_Int_ISR_code .section at 12 'code'
1253  0000  0080     E  	mov r1,a
1253  0001  070B        	mov a,bp
1253  0002  1F0B        	clr bp
1253  0003  2800     R  	jmp _Dec_Int_ISR
1253  0004              ROMBANK 0 _Dec_Int_ISR
1253  0004              #pragma debug scope 1 1
1253  0004              @dummy12 endp
1253  0004              #pragma debug scope 27 1
1253  0000              _Dec_Int_ISR .section 'code'
1253  0000              _Dec_Int_ISR proc
1253  0000  0080     E  	mov r2,a
1253  0001  070A        	mov a, status
1253  0002  0080     E  	mov r3,a
1254  0003              #line 1254 "e:\x-sense_svn\xp02\xp02\src\main.c"
1254  0003  3743        	clr [67].6
1254  0004  0700     E  	mov a,r2
1254  0005  008B        	mov bp,a
1254  0006  0700     E  	mov a,r3
1254  0007  008A        	mov status,a
1254  0008  0700     E  	mov a,r1
1254  0009  0004        	reti
1254  000A              _Dec_Int_ISR endp
1254  000A              
1254  000A              #line 1254 "e:\x-sense_svn\xp02\xp02\src\main.c"
1254  000A              #pragma debug scope 1 1
1254  000A              public _PollingSetLocation
1254  000A              #pragma debug scope 28 1
1290  000A              #line 1290 "e:\x-sense_svn\xp02\xp02\src\main.c"
1290  0000              _PollingSetLocation .section 'code'
1290  0000              _PollingSetLocation proc
1290  0000              public _PollingSetLocation_2
1290  0000  0002[           local _PollingSetLocation_2 db 2 dup(?)	; 2,0
            00
            ]
1290  0002              #pragma debug pointer 43 7 28
1290  0002              #pragma debug pointer 43 7 28
1290  0002              #pragma debug variable 43 28 _PollingSetLocation_2+0 "pTxt"
1292  0002              #line 1292 "e:\x-sense_svn\xp02\xp02\src\main.c"
1292  0000  0700     R  	mov a,_PollingSetLocation_2[0]
1292  0001  0500     R  	or a,_PollingSetLocation_2[1]
1292  0002  390A        	snz z
1292  0003  2800     R  	jmp _L80
文件：main.c       编译器版本 HGASM 0202 页次83

1295  0004              #line 1295 "e:\x-sense_svn\xp02\xp02\src\main.c"
1295  0004  0F42        	mov a,66
1295  0005  0080     R  	mov _SysteSetSig_2[0],a
1295  0006  1F00     R  	clr _SysteSetSig_2[1]
1295  0007              	fcall _SysteSetSig
1295  000E              _L80:
1295  000E  0003        	ret
1295  000F              _PollingSetLocation endp
1295  000F              #line 1295 "e:\x-sense_svn\xp02\xp02\src\main.c"
1295  000F              #pragma debug scope 1 1
1295  000F              public _PollingSetLocationDisplay
1295  000F              #pragma debug scope 29 1
1310  000F              #line 1310 "e:\x-sense_svn\xp02\xp02\src\main.c"
1310  0000              _PollingSetLocationDisplay .section 'code'
1310  0000              _PollingSetLocationDisplay proc
1311  0000              #line 1311 "e:\x-sense_svn\xp02\xp02\src\main.c"
1311  0000  0FFA        	mov a,-6
1311  0001  0080     R  	mov _PollingLED_2[0],a
1311  0002  1F00     R  	clr _PollingLED_2[1]
1311  0003              	fcall _PollingLED
1311  000A  0003        	ret
1311  000B              _PollingSetLocationDisplay endp
1311  000B              #line 1311 "e:\x-sense_svn\xp02\xp02\src\main.c"
1311  000B              #pragma debug scope 1 1
1311  000B              public _LocationSettingMain
1311  000B              #pragma debug scope 30 1
1322  000B              #line 1322 "e:\x-sense_svn\xp02\xp02\src\main.c"
1322  0000              _LocationSettingMain .section 'code'
1322  0000              _LocationSettingMain proc
1326  0000              #line 1326 "e:\x-sense_svn\xp02\xp02\src\main.c"
1326  0000  0700     R  	mov a,_SysAO[4]
1326  0001  0C01        	xor a,1
1326  0002  0500     R  	or a,_SysAO[5]
1326  0003  3D0A        	sz z
1326  0004  2800     R  	jmp _L86
1326  0005              #line 1326 "e:\x-sense_svn\xp02\xp02\src\main.c"
1326  0005  0700     R  	mov a,_SysAO[4]
1326  0006  0C0C        	xor a,12
1326  0007  0500     R  	or a,_SysAO[5]
1326  0008  3D0A        	sz z
1326  0009  2800     R  	jmp _L87
1326  000A  0700     R  	mov a,_SysAO[4]
1326  000B  0C0D        	xor a,13
1326  000C  0500     R  	or a,_SysAO[5]
1326  000D  3D0A        	sz z
1326  000E  2800     R  	jmp _L88
1326  000F  0700     R  	mov a,_SysAO[4]
1326  0010  0C10        	xor a,16
1326  0011  0500     R  	or a,_SysAO[5]
1326  0012  3D0A        	sz z
1326  0013  2800     R  	jmp _L89
1326  0014  0700     R  	mov a,_SysAO[4]
1326  0015  0C42        	xor a,66
1326  0016  0500     R  	or a,_SysAO[5]
1326  0017  390A        	snz z
1326  0018  2800     R  	jmp _L84
1400  0019              #line 1400 "e:\x-sense_svn\xp02\xp02\src\main.c"
1400  0019  0F0D        	mov a,13
1400  001A  0080     E  	mov _TmrDeleteTimer_2[0],a
1400  001B  1F00     E  	clr _TmrDeleteTimer_2[1]
文件：main.c       编译器版本 HGASM 0202 页次84

1400  001C              	fcall _TmrDeleteTimer
1401  0023              #line 1401 "e:\x-sense_svn\xp02\xp02\src\main.c"
1401  0023  0F0E        	mov a,14
1401  0024  0080     E  	mov _TmrDeleteTimer_2[0],a
1401  0025  1F00     E  	clr _TmrDeleteTimer_2[1]
1401  0026              	fcall _TmrDeleteTimer
1402  002D              #line 1402 "e:\x-sense_svn\xp02\xp02\src\main.c"
1402  002D  0F19        	mov a,25
1402  002E  0080     E  	mov _SpeakerSendCmd_2[0],a
1402  002F  1F00     E  	clr _SpeakerSendCmd_2[1]
1402  0030  1F00     E  	clr _SpeakerSendCmd_2[2]
1402  0031  1F00     E  	clr _SpeakerSendCmd_2[3]
1402  0032  2800     R  	jmp _L103
1402  0033              _L86:
1329  0033              #line 1329 "e:\x-sense_svn\xp02\xp02\src\main.c"
1329  0033  1F00     R  	clr ___Flag_3317[0]
1329  0034  1F00     R  	clr ___Flag_3317[1]
1330  0035              #line 1330 "e:\x-sense_svn\xp02\xp02\src\main.c"
1330  0035  0700     E  	mov a,_RfAO[12]
1330  0036  0080     E  	mov ra,a
1330  0037  0700     E  	mov a,ra
1330  0038  0080     R  	mov ___SetLocation_3318[0],a
1332  0039              #line 1332 "e:\x-sense_svn\xp02\xp02\src\main.c"
1332  0039  0700     E  	mov a,ra
1332  003A  0A17        	sub a,23
1332  003B  390A        	snz z
1332  003C  2800     R  	jmp _L91
1334  003D              #line 1334 "e:\x-sense_svn\xp02\xp02\src\main.c"
1334  003D  0F04        	mov a,4
1334  003E  0080     E  	mov _SpeakerSendCmd_2[0],a
1334  003F  1F00     E  	clr _SpeakerSendCmd_2[1]
1334  0040  1F00     E  	clr _SpeakerSendCmd_2[2]
1334  0041  1F00     E  	clr _SpeakerSendCmd_2[3]
1334  0042  2800     R  	jmp _L100
1334  0043              _L91:
1338  0043              #line 1338 "e:\x-sense_svn\xp02\xp02\src\main.c"
1338  0043  0700     E  	mov a,ra
1338  0044  0080     E  	mov rc,a
1338  0045  1F00     E  	clr rb
1338  0046  0F00        	mov a,0
1338  0047  0580     E  	orm a,rc
1338  0048  0F05        	mov a,5
1338  0049  0580     E  	orm a,rb
1338  004A  0700     E  	mov a,rb
1338  004B  0080     E  	mov _SpeakerSendCmd_2[0],a
1338  004C  0700     E  	mov a,rc
1338  004D  0080     E  	mov _SpeakerSendCmd_2[1],a
1338  004E  1F05        	clr acc
1338  004F  3C00     E  	sz _SpeakerSendCmd_2[1].7
1338  0050  1F85        	set acc
1338  0051  0080     E  	mov _SpeakerSendCmd_2[2],a
1338  0052  0080     E  	mov _SpeakerSendCmd_2[3],a
1338  0053              _L100:
1338  0053              	fcall _SpeakerSendCmd
1340  005A              #line 1340 "e:\x-sense_svn\xp02\xp02\src\main.c"
1340  005A  0F06        	mov a,6
1340  005B  0080     R  	mov ___SetLocation_3318[0],a
1342  005C              #line 1342 "e:\x-sense_svn\xp02\xp02\src\main.c"
1342  005C  1F00     E  	clr _TmrInsertTimer_2[4]
1342  005D  1F00     E  	clr _TmrInsertTimer_2[5]
文件：main.c       编译器版本 HGASM 0202 页次85

1342  005E  0F70        	mov a,112
1342  005F  0080     E  	mov _TmrInsertTimer_2[2],a
1342  0060  0F17        	mov a,23
1342  0061  0080     E  	mov _TmrInsertTimer_2[3],a
1342  0062  0F0D        	mov a,13
1342  0063  0080     E  	mov _TmrInsertTimer_2[0],a
1342  0064  1F00     E  	clr _TmrInsertTimer_2[1]
1342  0065              	fcall _TmrInsertTimer
1343  006C              #line 1343 "e:\x-sense_svn\xp02\xp02\src\main.c"
1343  006C  1F00     E  	clr _TmrInsertTimer_2[4]
1343  006D  1F00     E  	clr _TmrInsertTimer_2[5]
1343  006E  0F2C        	mov a,44
1343  006F  0080     E  	mov _TmrInsertTimer_2[2],a
1343  0070  0F01        	mov a,1
1343  0071  0080     E  	mov _TmrInsertTimer_2[3],a
1343  0072  0F0E        	mov a,14
1343  0073  0080     E  	mov _TmrInsertTimer_2[0],a
1343  0074  1F00     E  	clr _TmrInsertTimer_2[1]
1343  0075  2800     R  	jmp _L102
1343  0076              _L87:
1347  0076              #line 1347 "e:\x-sense_svn\xp02\xp02\src\main.c"
1347  0076  0700     R  	mov a,___Flag_3317[0]
1347  0077  0500     R  	or a,___Flag_3317[1]
1347  0078  390A        	snz z
1347  0079  2800     R  	jmp _L93
1349  007A              #line 1349 "e:\x-sense_svn\xp02\xp02\src\main.c"
1349  007A  0F01        	mov a,1
1349  007B  0080     R  	mov ___Flag_3317[0],a
1349  007C  1F00     R  	clr ___Flag_3317[1]
1350  007D              #line 1350 "e:\x-sense_svn\xp02\xp02\src\main.c"
1350  007D  0F06        	mov a,6
1350  007E  0080     E  	mov _SpeakerSendCmd_2[0],a
1350  007F  1F00     E  	clr _SpeakerSendCmd_2[1]
1350  0080  1F00     E  	clr _SpeakerSendCmd_2[2]
1350  0081  1F00     E  	clr _SpeakerSendCmd_2[3]
1350  0082  2800     R  	jmp _L101
1350  0083              _L93:
1354  0083              #line 1354 "e:\x-sense_svn\xp02\xp02\src\main.c"
1354  0083  0700     R  	mov a,___SetLocation_3318[0]
1354  0084  0080     E  	mov ra,a
1354  0085  0F16        	mov a,22
1354  0086  0200     E  	sub a,ra
1354  0087  380A        	snz c
1354  0088  2800     R  	jmp _L95
1356  0089              #line 1356 "e:\x-sense_svn\xp02\xp02\src\main.c"
1356  0089  1400     E  	inca ra
1356  008A  0080     R  	mov ___SetLocation_3318[0],a
1356  008B  2800     R  	jmp _L96
1356  008C              _L95:
1360  008C              #line 1360 "e:\x-sense_svn\xp02\xp02\src\main.c"
1360  008C  0F07        	mov a,7
1360  008D  0080     R  	mov ___SetLocation_3318[0],a
1360  008E              _L96:
1362  008E              #line 1362 "e:\x-sense_svn\xp02\xp02\src\main.c"
1362  008E  0700     R  	mov a,___SetLocation_3318[0]
1362  008F  0080     E  	mov _SpeakerSendCmd_2[0],a
1362  0090  1F00     E  	clr _SpeakerSendCmd_2[1]
1362  0091  1F00     E  	clr _SpeakerSendCmd_2[2]
1362  0092  1F00     E  	clr _SpeakerSendCmd_2[3]
1362  0093              _L101:
文件：main.c       编译器版本 HGASM 0202 页次86

1362  0093              	fcall _SpeakerSendCmd
1364  009A              #line 1364 "e:\x-sense_svn\xp02\xp02\src\main.c"
1364  009A  1F00     E  	clr _TmrInsertTimer_2[4]
1364  009B  1F00     E  	clr _TmrInsertTimer_2[5]
1364  009C  0F70        	mov a,112
1364  009D  0080     E  	mov _TmrInsertTimer_2[2],a
1364  009E  0F17        	mov a,23
1364  009F  0080     E  	mov _TmrInsertTimer_2[3],a
1364  00A0  0F0D        	mov a,13
1364  00A1  0080     E  	mov _TmrInsertTimer_2[0],a
1364  00A2  1F00     E  	clr _TmrInsertTimer_2[1]
1364  00A3              _L102:
1364  00A3              	fcall _TmrInsertTimer
1365  00AA              #line 1365 "e:\x-sense_svn\xp02\xp02\src\main.c"
1365  00AA  2800     R  	jmp _L84
1365  00AB              _L88:
1369  00AB              #line 1369 "e:\x-sense_svn\xp02\xp02\src\main.c"
1369  00AB  1F00     E  	clr _TmrInsertTimer_2[4]
1369  00AC  1F00     E  	clr _TmrInsertTimer_2[5]
1369  00AD  0F70        	mov a,112
1369  00AE  0080     E  	mov _TmrInsertTimer_2[2],a
1369  00AF  0F17        	mov a,23
1369  00B0  0080     E  	mov _TmrInsertTimer_2[3],a
1369  00B1  0F0D        	mov a,13
1369  00B2  0080     E  	mov _TmrInsertTimer_2[0],a
1369  00B3  1F00     E  	clr _TmrInsertTimer_2[1]
1369  00B4              	fcall _TmrInsertTimer
1370  00BB              #line 1370 "e:\x-sense_svn\xp02\xp02\src\main.c"
1370  00BB  0700     R  	mov a,___SetLocation_3318[0]
1370  00BC  0080     E  	mov ra,a
1370  00BD  0F07        	mov a,7
1370  00BE  0200     E  	sub a,ra
1370  00BF  3C0A        	sz c
1370  00C0  2800     R  	jmp _L97
1372  00C1              #line 1372 "e:\x-sense_svn\xp02\xp02\src\main.c"
1372  00C1  1500     E  	deca ra
1372  00C2  0080     R  	mov ___SetLocation_3318[0],a
1372  00C3  2800     R  	jmp _L98
1372  00C4              _L97:
1376  00C4              #line 1376 "e:\x-sense_svn\xp02\xp02\src\main.c"
1376  00C4  0F17        	mov a,23
1376  00C5  0080     R  	mov ___SetLocation_3318[0],a
1376  00C6              _L98:
1378  00C6              #line 1378 "e:\x-sense_svn\xp02\xp02\src\main.c"
1378  00C6  0700     R  	mov a,___SetLocation_3318[0]
1378  00C7  0080     E  	mov _SpeakerSendCmd_2[0],a
1378  00C8  1F00     E  	clr _SpeakerSendCmd_2[1]
1378  00C9  1F00     E  	clr _SpeakerSendCmd_2[2]
1378  00CA  1F00     E  	clr _SpeakerSendCmd_2[3]
1378  00CB  2800     R  	jmp _L104
1378  00CC              _L89:
1382  00CC              #line 1382 "e:\x-sense_svn\xp02\xp02\src\main.c"
1382  00CC  0700     R  	mov a,___Flag_3317[0]
1382  00CD  0500     R  	or a,___Flag_3317[1]
1382  00CE  390A        	snz z
1382  00CF  2800     R  	jmp _L99
1384  00D0              #line 1384 "e:\x-sense_svn\xp02\xp02\src\main.c"
1384  00D0  0F01        	mov a,1
1384  00D1  0080     R  	mov ___Flag_3317[0],a
1384  00D2  1F00     R  	clr ___Flag_3317[1]
文件：main.c       编译器版本 HGASM 0202 页次87

1385  00D3              #line 1385 "e:\x-sense_svn\xp02\xp02\src\main.c"
1385  00D3  0F06        	mov a,6
1385  00D4  0080     E  	mov _SpeakerSendCmd_2[0],a
1385  00D5  1F00     E  	clr _SpeakerSendCmd_2[1]
1385  00D6  1F00     E  	clr _SpeakerSendCmd_2[2]
1385  00D7  1F00     E  	clr _SpeakerSendCmd_2[3]
1385  00D8              _L104:
1385  00D8              	fcall _SpeakerSendCmd
1385  00DF  2800     R  	jmp _L84
1385  00E0              _L99:
1389  00E0              #line 1389 "e:\x-sense_svn\xp02\xp02\src\main.c"
1389  00E0  0F0D        	mov a,13
1389  00E1  0080     E  	mov _TmrDeleteTimer_2[0],a
1389  00E2  1F00     E  	clr _TmrDeleteTimer_2[1]
1389  00E3              	fcall _TmrDeleteTimer
1390  00EA              #line 1390 "e:\x-sense_svn\xp02\xp02\src\main.c"
1390  00EA  0F0E        	mov a,14
1390  00EB  0080     E  	mov _TmrDeleteTimer_2[0],a
1390  00EC  1F00     E  	clr _TmrDeleteTimer_2[1]
1390  00ED              	fcall _TmrDeleteTimer
1391  00F4              #line 1391 "e:\x-sense_svn\xp02\xp02\src\main.c"
1391  00F4  0700     R  	mov a,___SetLocation_3318[0]
1391  00F5  0080     E  	mov ra,a
1391  00F6  0700     E  	mov a,ra
1391  00F7  0080     E  	mov _RfAO[12],a
1392  00F8              #line 1392 "e:\x-sense_svn\xp02\xp02\src\main.c"
1392  00F8  0700     E  	mov a,ra
1392  00F9  0080     E  	mov _E2promWrite_2[0],a
1392  00FA  0F14        	mov a,20
1392  00FB              	fcall _E2promWrite
1394  0102              #line 1394 "e:\x-sense_svn\xp02\xp02\src\main.c"
1394  0102  0700     E  	mov a,_RfAO[12]
1394  0103  0080     E  	mov rc,a
1394  0104  1F00     E  	clr rb
1394  0105  0F00        	mov a,0
1394  0106  0580     E  	orm a,rc
1394  0107  0F18        	mov a,24
1394  0108  0580     E  	orm a,rb
1394  0109  0700     E  	mov a,rb
1394  010A  0080     E  	mov _SpeakerSendCmd_2[0],a
1394  010B  0700     E  	mov a,rc
1394  010C  0080     E  	mov _SpeakerSendCmd_2[1],a
1394  010D  1F05        	clr acc
1394  010E  3C00     E  	sz _SpeakerSendCmd_2[1].7
1394  010F  1F85        	set acc
1394  0110  0080     E  	mov _SpeakerSendCmd_2[2],a
1394  0111  0080     E  	mov _SpeakerSendCmd_2[3],a
1394  0112              _L103:
1402  0112              #line 1402 "e:\x-sense_svn\xp02\xp02\src\main.c"
1402  0112              	fcall _SpeakerSendCmd
1403  0119              #line 1403 "e:\x-sense_svn\xp02\xp02\src\main.c"
1403  0119  1F00     R  	clr _SysAO[0]
1403  011A  1F00     R  	clr _SysAO[1]
1403  011B              _L84:
1403  011B  0003        	ret
1403  011C              _LocationSettingMain endp
1403  011C              #line 1403 "e:\x-sense_svn\xp02\xp02\src\main.c"
1403  011C              #pragma debug scope 1 1
1403  011C              public _NormalMain
1403  011C              #pragma debug scope 31 1
文件：main.c       编译器版本 HGASM 0202 页次88

1421  011C              #line 1421 "e:\x-sense_svn\xp02\xp02\src\main.c"
1421  0000              _NormalMain .section 'code'
1421  0000              _NormalMain proc
1422  0000              #line 1422 "e:\x-sense_svn\xp02\xp02\src\main.c"
1422  0000  0700     R  	mov a,_SysAO[4]
1422  0001  0C01        	xor a,1
1422  0002  0500     R  	or a,_SysAO[5]
1422  0003  3D0A        	sz z
1422  0004  2800     R  	jmp _L150
1422  0005              #line 1422 "e:\x-sense_svn\xp02\xp02\src\main.c"
1422  0005  0700     R  	mov a,_SysAO[4]
1422  0006  0C03        	xor a,3
1422  0007  0500     R  	or a,_SysAO[5]
1422  0008  3D0A        	sz z
1422  0009  2800     R  	jmp _L108
1422  000A  0700     R  	mov a,_SysAO[4]
1422  000B  0C07        	xor a,7
1422  000C  0500     R  	or a,_SysAO[5]
1422  000D  3D0A        	sz z
1422  000E  2800     R  	jmp _L109
1422  000F  0700     R  	mov a,_SysAO[4]
1422  0010  0C08        	xor a,8
1422  0011  0500     R  	or a,_SysAO[5]
1422  0012  3D0A        	sz z
1422  0013  2800     R  	jmp _L110
1422  0014  0700     R  	mov a,_SysAO[4]
1422  0015  0C0A        	xor a,10
1422  0016  0500     R  	or a,_SysAO[5]
1422  0017  3D0A        	sz z
1422  0018  2800     R  	jmp _L111
1422  0019  0700     R  	mov a,_SysAO[4]
1422  001A  0C0B        	xor a,11
1422  001B  0500     R  	or a,_SysAO[5]
1422  001C  3D0A        	sz z
1422  001D  2800     R  	jmp _L112
1422  001E  0700     R  	mov a,_SysAO[4]
1422  001F  0C0C        	xor a,12
1422  0020  0500     R  	or a,_SysAO[5]
1422  0021  3D0A        	sz z
1422  0022  2800     R  	jmp _L113
1422  0023  0700     R  	mov a,_SysAO[4]
1422  0024  0C10        	xor a,16
1422  0025  0500     R  	or a,_SysAO[5]
1422  0026  3D0A        	sz z
1422  0027  2800     R  	jmp _L114
1422  0028  0700     R  	mov a,_SysAO[4]
1422  0029  0C15        	xor a,21
1422  002A  0500     R  	or a,_SysAO[5]
1422  002B  3D0A        	sz z
1422  002C  2800     R  	jmp _L115
1422  002D  0700     R  	mov a,_SysAO[4]
1422  002E  0C1D        	xor a,29
1422  002F  0500     R  	or a,_SysAO[5]
1422  0030  3D0A        	sz z
1422  0031  2800     R  	jmp _L116
1422  0032  0700     R  	mov a,_SysAO[4]
1422  0033  0C23        	xor a,35
1422  0034  0500     R  	or a,_SysAO[5]
1422  0035  3D0A        	sz z
1422  0036  2800     R  	jmp _L117
文件：main.c       编译器版本 HGASM 0202 页次89

1422  0037  0700     R  	mov a,_SysAO[4]
1422  0038  0C2A        	xor a,42
1422  0039  0500     R  	or a,_SysAO[5]
1422  003A  3D0A        	sz z
1422  003B  2800     R  	jmp _L118
1422  003C  0700     R  	mov a,_SysAO[4]
1422  003D  0C37        	xor a,55
1422  003E  0500     R  	or a,_SysAO[5]
1422  003F  3D0A        	sz z
1422  0040  2800     R  	jmp _L119
1422  0041  0700     R  	mov a,_SysAO[4]
1422  0042  0C39        	xor a,57
1422  0043  0500     R  	or a,_SysAO[5]
1422  0044  3D0A        	sz z
1422  0045  2800     R  	jmp _L120
1422  0046  0700     R  	mov a,_SysAO[4]
1422  0047  0C3B        	xor a,59
1422  0048  0500     R  	or a,_SysAO[5]
1422  0049  3D0A        	sz z
1422  004A  2800     R  	jmp _L121
1422  004B  0700     R  	mov a,_SysAO[4]
1422  004C  0C3D        	xor a,61
1422  004D  0500     R  	or a,_SysAO[5]
1422  004E  390A        	snz z
1422  004F  2800     R  	jmp _L105
1507  0050              #line 1507 "e:\x-sense_svn\xp02\xp02\src\main.c"
1507  0050  0F10        	mov a,16
1507  0051  0080     R  	mov _SysAO[0],a
1507  0052  1F00     R  	clr _SysAO[1]
1508  0053              #line 1508 "e:\x-sense_svn\xp02\xp02\src\main.c"
1508  0053  2800     R  	jmp _L105
1508  0054              _L109:
1433  0054              #line 1433 "e:\x-sense_svn\xp02\xp02\src\main.c"
1433  0054  0700     R  	mov a,_SysAO[7]
1433  0055  0080     E  	mov rb,a
1433  0056  0700     R  	mov a,_SysAO[8]
1433  0057  0080     E  	mov rc,a
1433  0058  3800     E  	snz rb.0
1433  0059  2800     R  	jmp _L123
1435  005A              #line 1435 "e:\x-sense_svn\xp02\xp02\src\main.c"
1435  005A  0FFE        	mov a,254  
1435  005B  0680     E  	andm a,rb  
1435  005C  0FFF        	mov a,255  
1435  005D  0680     E  	andm a,rc
1436  005E              #line 1436 "e:\x-sense_svn\xp02\xp02\src\main.c"
1436  005E  0700     E  	mov a,rc
1436  005F  0D00        	or a,0
1436  0060  0080     R  	mov _SysAO[8],a
1436  0061  0700     E  	mov a,rb
1436  0062  0D02        	or a,2
1436  0063  0080     R  	mov _SysAO[7],a
1436  0064  2800     R  	jmp _L156
1436  0065              _L123:
1444  0065              #line 1444 "e:\x-sense_svn\xp02\xp02\src\main.c"
1444  0065  3800     E  	snz rb.4
1444  0066  2800     R  	jmp _L125
1446  0067              #line 1446 "e:\x-sense_svn\xp02\xp02\src\main.c"
1446  0067  0FEF        	mov a,239  
1446  0068  0680     E  	andm a,rb  
1446  0069  0FFF        	mov a,255  
文件：main.c       编译器版本 HGASM 0202 页次90

1446  006A  0680     E  	andm a,rc
1447  006B              #line 1447 "e:\x-sense_svn\xp02\xp02\src\main.c"
1447  006B  0700     E  	mov a,rc
1447  006C  0D00        	or a,0
1447  006D  0080     R  	mov _SysAO[8],a
1447  006E  0700     E  	mov a,rb
1447  006F  0D20        	or a,32
1447  0070  0080     R  	mov _SysAO[7],a
1447  0071              _L156:
1448  0071              #line 1448 "e:\x-sense_svn\xp02\xp02\src\main.c"
1448  0071  1F00     R  	clr _SysAO[14]
1448  0072  1F00     R  	clr _SysAO[15]
1450  0073              #line 1450 "e:\x-sense_svn\xp02\xp02\src\main.c"
1450  0073  0F38        	mov a,56
1450  0074  0080     E  	mov _SpeakerSendCmd_2[0],a
1450  0075  1F00     E  	clr _SpeakerSendCmd_2[1]
1450  0076  1F00     E  	clr _SpeakerSendCmd_2[2]
1450  0077  1F00     E  	clr _SpeakerSendCmd_2[3]
1450  0078              _L157:
1450  0078              	fcall _SpeakerSendCmd
1450  007F  2800     R  	jmp _L105
1450  0080              _L113:
1463  0080              #line 1463 "e:\x-sense_svn\xp02\xp02\src\main.c"
1463  0080  0F14        	mov a,20
1463  0081  0080     R  	mov _SysAO[0],a
1463  0082  1F00     R  	clr _SysAO[1]
1464  0083              #line 1464 "e:\x-sense_svn\xp02\xp02\src\main.c"
1464  0083  2800     R  	jmp _L105
1464  0084              _L114:
1467  0084              #line 1467 "e:\x-sense_svn\xp02\xp02\src\main.c"
1467  0084  0F17        	mov a,23
1467  0085  0080     E  	mov _RfAO[12],a
1468  0086              #line 1468 "e:\x-sense_svn\xp02\xp02\src\main.c"
1468  0086  0F17        	mov a,23
1468  0087  0080     E  	mov _E2promWrite_2[0],a
1468  0088  0F14        	mov a,20
1468  0089              	fcall _E2promWrite
1469  0090              #line 1469 "e:\x-sense_svn\xp02\xp02\src\main.c"
1469  0090  0F19        	mov a,25
1469  0091  0080     E  	mov _SpeakerSendCmd_2[0],a
1469  0092  1F00     E  	clr _SpeakerSendCmd_2[1]
1469  0093  1F00     E  	clr _SpeakerSendCmd_2[2]
1469  0094  1F00     E  	clr _SpeakerSendCmd_2[3]
1469  0095  2800     R  	jmp _L157
1469  0096              _L112:
1476  0096              #line 1476 "e:\x-sense_svn\xp02\xp02\src\main.c"
1476  0096              	fcall _GetRfPairedMode
1476  009D  0700     E  	mov a,ra
1476  009E  0C02        	xor a,2
1476  009F  0500     E  	or a,rb
1476  00A0  390A        	snz z
1476  00A1  2800     R  	jmp _L125
1478  00A2              #line 1478 "e:\x-sense_svn\xp02\xp02\src\main.c"
1478  00A2  0F12        	mov a,18
1478  00A3  0080     R  	mov _SysAO[0],a
1478  00A4  1F00     R  	clr _SysAO[1]
1478  00A5  2800     R  	jmp _L105
1478  00A6              _L125:
1482  00A6              #line 1482 "e:\x-sense_svn\xp02\xp02\src\main.c"
1482  00A6  0F02        	mov a,2
文件：main.c       编译器版本 HGASM 0202 页次91

1482  00A7  0080     R  	mov _SysAO[0],a
1482  00A8  1F00     R  	clr _SysAO[1]
1482  00A9  2800     R  	jmp _L105
1482  00AA              _L119:
1487  00AA              #line 1487 "e:\x-sense_svn\xp02\xp02\src\main.c"
1487  00AA  0F11        	mov a,17
1487  00AB  0080     R  	mov _SysAO[0],a
1487  00AC  1F00     R  	clr _SysAO[1]
1488  00AD              #line 1488 "e:\x-sense_svn\xp02\xp02\src\main.c"
1488  00AD  2800     R  	jmp _L105
1488  00AE              _L110:
1491  00AE              #line 1491 "e:\x-sense_svn\xp02\xp02\src\main.c"
1491  00AE  0F0D        	mov a,13
1491  00AF  0080     R  	mov _SysAO[0],a
1491  00B0  1F00     R  	clr _SysAO[1]
1492  00B1              #line 1492 "e:\x-sense_svn\xp02\xp02\src\main.c"
1492  00B1  2800     R  	jmp _L105
1492  00B2              _L111:
1495  00B2              #line 1495 "e:\x-sense_svn\xp02\xp02\src\main.c"
1495  00B2  0F0E        	mov a,14
1495  00B3  0080     R  	mov _SysAO[0],a
1495  00B4  1F00     R  	clr _SysAO[1]
1496  00B5              #line 1496 "e:\x-sense_svn\xp02\xp02\src\main.c"
1496  00B5  2800     R  	jmp _L105
1496  00B6              _L120:
1499  00B6              #line 1499 "e:\x-sense_svn\xp02\xp02\src\main.c"
1499  00B6  0F13        	mov a,19
1499  00B7  0080     R  	mov _SysAO[0],a
1499  00B8  1F00     R  	clr _SysAO[1]
1500  00B9              #line 1500 "e:\x-sense_svn\xp02\xp02\src\main.c"
1500  00B9  2800     R  	jmp _L105
1500  00BA              _L121:
1503  00BA              #line 1503 "e:\x-sense_svn\xp02\xp02\src\main.c"
1503  00BA  0F0F        	mov a,15
1503  00BB  0080     R  	mov _SysAO[0],a
1503  00BC  1F00     R  	clr _SysAO[1]
1504  00BD              #line 1504 "e:\x-sense_svn\xp02\xp02\src\main.c"
1504  00BD  2800     R  	jmp _L105
1504  00BE              _L115:
1512  00BE              #line 1512 "e:\x-sense_svn\xp02\xp02\src\main.c"
1512  00BE  0F03        	mov a,3
1512  00BF  0080     R  	mov _SysAO[0],a
1512  00C0  1F00     R  	clr _SysAO[1]
1513  00C1              #line 1513 "e:\x-sense_svn\xp02\xp02\src\main.c"
1513  00C1  2800     R  	jmp _L105
1513  00C2              _L116:
1516  00C2              #line 1516 "e:\x-sense_svn\xp02\xp02\src\main.c"
1516  00C2  0F05        	mov a,5
1516  00C3  0080     R  	mov _SysAO[0],a
1516  00C4  1F00     R  	clr _SysAO[1]
1517  00C5              #line 1517 "e:\x-sense_svn\xp02\xp02\src\main.c"
1517  00C5  2800     R  	jmp _L105
1517  00C6              _L117:
1521  00C6              #line 1521 "e:\x-sense_svn\xp02\xp02\src\main.c"
1521  00C6  0F08        	mov a,8
1521  00C7  0080     R  	mov _SysAO[0],a
1521  00C8  1F00     R  	clr _SysAO[1]
1522  00C9              #line 1522 "e:\x-sense_svn\xp02\xp02\src\main.c"
1522  00C9  2800     R  	jmp _L105
1522  00CA              _L118:
文件：main.c       编译器版本 HGASM 0202 页次92

1525  00CA              #line 1525 "e:\x-sense_svn\xp02\xp02\src\main.c"
1525  00CA  0F0A        	mov a,10
1525  00CB  0080     R  	mov _SysAO[0],a
1525  00CC  1F00     R  	clr _SysAO[1]
1526  00CD              #line 1526 "e:\x-sense_svn\xp02\xp02\src\main.c"
1526  00CD  2800     R  	jmp _L105
1526  00CE              _L108:
1526  00CE              #pragma debug scope 32 31
1526  00CE              ;begin block, line: 1526.-1
1526  00CE              #pragma debug scope 33 32
1526  00CE              ;begin block, line: 1526.-1
1079  00CE              #line 1079 "e:\x-sense_svn\xp02\xp02\src\main.c"
1079  00CE  0F01        	mov a,1
1079  00CF  0300     R  	add a,_SysAO[12]
1079  00D0  0080     E  	mov rb,a
1079  00D1  0F00        	mov a,0
1079  00D2  1300     R  	adc a,_SysAO[13]
1079  00D3  0080     E  	mov rc,a
1081  00D4              #line 1081 "e:\x-sense_svn\xp02\xp02\src\main.c"
1081  00D4  0F04        	mov a,4
1081  00D5  0200     E  	sub a,rb
1081  00D6  0F29        	mov a,41
1081  00D7  1200     E  	sbc a,rc
1081  00D8  380A        	snz c
1081  00D9  2800     R  	jmp _L126
1079  00DA              #line 1079 "e:\x-sense_svn\xp02\xp02\src\main.c"
1079  00DA  0700     E  	mov a,rb
1079  00DB  0080     R  	mov _SysAO[12],a
1079  00DC  0700     E  	mov a,rc
1079  00DD  0080     R  	mov _SysAO[13],a
1079  00DE  2800     R  	jmp _L127
1079  00DF              _L126:
1083  00DF              #line 1083 "e:\x-sense_svn\xp02\xp02\src\main.c"
1083  00DF  1F00     R  	clr _SysAO[12]
1083  00E0  1F00     R  	clr _SysAO[13]
1084  00E1              #line 1084 "e:\x-sense_svn\xp02\xp02\src\main.c"
1084  00E1  0F01        	mov a,1
1084  00E2  0080     R  	mov _SysAO[11],a
1084  00E3              _L127:
1087  00E3              #line 1087 "e:\x-sense_svn\xp02\xp02\src\main.c"
1087  00E3  1F00     E  	clr _builtin_holtek_udivmodhi4_2[6]
1087  00E4  0700     R  	mov a,_SysAO[12]  
1087  00E5  0080     E  	mov _builtin_holtek_udivmodhi4_2[0],a  
1087  00E6  0700     R  	mov a,_SysAO[13]  
1087  00E7  0080     E  	mov _builtin_holtek_udivmodhi4_2[1],a
1087  00E8  0F20        	mov a,32  
1087  00E9  0080     E  	mov _builtin_holtek_udivmodhi4_2[2],a  
1087  00EA  0F03        	mov a,3  
1087  00EB  0080     E  	mov _builtin_holtek_udivmodhi4_2[3],a
1087  00EC              	fcall _builtin_holtek_udivmodhi4
1087  00F3  0700     E  	mov a,_builtin_holtek_udivmodhi4_2[4]  
1087  00F4  0080     E  	mov rb,a  
1087  00F5  0700     E  	mov a,_builtin_holtek_udivmodhi4_2[5]  
1087  00F6  0080     E  	mov rc,a
1087  00F7  0700     E  	mov a,rb
1087  00F8  0A1F        	sub a,31
1087  00F9  0700     E  	mov a,rc
1087  00FA  0803        	sbc a,3
1087  00FB  3B0A        	snz cz
1087  00FC  2800     R  	jmp _L128
文件：main.c       编译器版本 HGASM 0202 页次93

1089  00FD              #line 1089 "e:\x-sense_svn\xp02\xp02\src\main.c"
1089  00FD  0F01        	mov a,1
1089  00FE  0080     E  	mov _SmokeAO[13],a
1089  00FF              _L128:
1092  00FF              #line 1092 "e:\x-sense_svn\xp02\xp02\src\main.c"
1092  00FF  1700     R  	sdza _SysAO[11]
1092  0100  2800     R  	jmp _L129
1094  0101              #line 1094 "e:\x-sense_svn\xp02\xp02\src\main.c"
1094  0101  1F00     R  	clr _SysAO[11]
1095  0102              #line 1095 "e:\x-sense_svn\xp02\xp02\src\main.c"
1095  0102  0F01        	mov a,1
1095  0103  0300     R  	add a,_SysAO[9]
1095  0104  0080     E  	mov rb,a
1095  0105  0F00        	mov a,0
1095  0106  1300     R  	adc a,_SysAO[10]
1095  0107  0080     E  	mov rc,a
1095  0108  0700     E  	mov a,rb
1095  0109  0080     R  	mov _SysAO[9],a
1095  010A  0700     E  	mov a,rc
1095  010B  0080     R  	mov _SysAO[10],a
1097  010C              #line 1097 "e:\x-sense_svn\xp02\xp02\src\main.c"
1097  010C  0700     E  	mov a,rc
1097  010D  0080     E  	mov _E2promWrite_2[0],a
1097  010E  0F00        	mov a,0
1097  010F              	fcall _E2promWrite
1098  0116              #line 1098 "e:\x-sense_svn\xp02\xp02\src\main.c"
1098  0116  0700     R  	mov a,_SysAO[9]
1098  0117  0080     E  	mov _E2promWrite_2[0],a
1098  0118  0F01        	mov a,1
1098  0119              	fcall _E2promWrite
1098  0120              _L129:
1101  0120              #line 1101 "e:\x-sense_svn\xp02\xp02\src\main.c"
1101  0120  0700     R  	mov a,_SysAO[9]
1101  0121  0080     E  	mov rb,a
1101  0122  0700     R  	mov a,_SysAO[10]
1101  0123  0080     E  	mov rc,a
1101  0124  0F60        	mov a,96
1101  0125  0200     E  	sub a,rb
1101  0126  0F0E        	mov a,14
1101  0127  1200     E  	sbc a,rc
1101  0128  3C0A        	sz c
1101  0129  2800     R  	jmp _L130
1103  012A              #line 1103 "e:\x-sense_svn\xp02\xp02\src\main.c"
1103  012A  0F00        	mov a,0
1103  012B  0580     R  	orm a,_SysAO[8]
1103  012C  0F40        	mov a,64
1103  012D  0580     R  	orm a,_SysAO[7]
1103  012E  2800     R  	jmp _L131
1103  012F              _L130:
1105  012F              #line 1105 "e:\x-sense_svn\xp02\xp02\src\main.c"
1105  012F  0F42        	mov a,66
1105  0130  0200     E  	sub a,rb
1105  0131  0F0E        	mov a,14
1105  0132  1200     E  	sbc a,rc
1105  0133  3C0A        	sz c
1105  0134  2800     R  	jmp _L131
1107  0135              #line 1107 "e:\x-sense_svn\xp02\xp02\src\main.c"
1107  0135  0700     R  	mov a,_SysAO[7]
1107  0136  0080     E  	mov rb,a
1107  0137  0700     R  	mov a,_SysAO[8]
文件：main.c       编译器版本 HGASM 0202 页次94

1107  0138  0080     E  	mov rc,a
1107  0139  3800     E  	snz rb.5
1107  013A  2800     R  	jmp _L132
1109  013B              #line 1109 "e:\x-sense_svn\xp02\xp02\src\main.c"
1109  013B  0700     R  	mov a,_SysAO[14]
1109  013C  0080     E  	mov rd,a
1109  013D  0700     R  	mov a,_SysAO[15]
1109  013E  0080     E  	mov re,a
1109  013F  0FF0        	mov a,240
1109  0140  0200     E  	sub a,rd
1109  0141  0F1E        	mov a,30
1109  0142  1200     E  	sbc a,re
1109  0143  3C0A        	sz c
1109  0144  2800     R  	jmp _L133
1111  0145              #line 1111 "e:\x-sense_svn\xp02\xp02\src\main.c"
1111  0145  0FDF        	mov a,223  
1111  0146  0680     E  	andm a,rb  
1111  0147  0FFF        	mov a,255  
1111  0148  0680     E  	andm a,rc
1111  0149  2800     R  	jmp _L132
1111  014A              _L133:
1116  014A              #line 1116 "e:\x-sense_svn\xp02\xp02\src\main.c"
1116  014A  0F01        	mov a,1
1116  014B  0300     E  	add a,rd
1116  014C  0080     R  	mov _SysAO[14],a
1116  014D  0F00        	mov a,0
1116  014E  1300     E  	adc a,re
1116  014F  0080     R  	mov _SysAO[15],a
1116  0150  2800     R  	jmp _L131
1116  0151              _L132:
1121  0151              #line 1121 "e:\x-sense_svn\xp02\xp02\src\main.c"
1121  0151  0700     E  	mov a,rc
1121  0152  0D00        	or a,0
1121  0153  0080     R  	mov _SysAO[8],a
1121  0154  0700     E  	mov a,rb
1121  0155  0D10        	or a,16
1121  0156  0080     R  	mov _SysAO[7],a
1121  0157              _L131:
1121  0157              #pragma debug scope 32 31
1121  0157              #pragma debug scope 31 1
1532  0157              #line 1532 "e:\x-sense_svn\xp02\xp02\src\main.c"
1532  0157              	fcall _BatteryCheck
1532  015E              #pragma debug scope 34 31
1532  015E              ;begin block, line: 1532.-1
1532  015E              #pragma debug scope 35 34
1532  015E              ;begin block, line: 1532.-1
 728  015E              #line 728 "e:\x-sense_svn\xp02\xp02\src\main.c"
 728  015E  0700     E  	mov a,_SmokeAO[15]
 728  015F  0A5A        	sub a,90
 728  0160  390A        	snz z
 728  0161  2800     R  	jmp _L134
 731  0162              #line 731 "e:\x-sense_svn\xp02\xp02\src\main.c"
 731  0162              	fcall _SmokeAlarmCheck
 731  0169              _L134:
 735  0169              #line 735 "e:\x-sense_svn\xp02\xp02\src\main.c"
 735  0169  0700     E  	mov a,_COAO[0]
 735  016A  0AAA        	sub a,170
 735  016B  390A        	snz z
 735  016C  2800     R  	jmp _L136
 735  016D  1080     E  	sz _COAO[26]
文件：main.c       编译器版本 HGASM 0202 页次95

 735  016E  2800     R  	jmp _L137
 736  016F              #line 736 "e:\x-sense_svn\xp02\xp02\src\main.c"
 736  016F  1E00     E  	snz _COAO[27]
 736  0170  2800     R  	jmp _L138
 736  0171              _L137:
 738  0171              #line 738 "e:\x-sense_svn\xp02\xp02\src\main.c"
 738  0171  0F00     E  	mov a,low offset _COAO
 738  0172  0080     E  	mov _COSelfCheck_2[0],a
 738  0173  0F00     E  	mov a,high offset _COAO
 738  0174  0080     E  	mov _COSelfCheck_2[1],a
 738  0175              	fcall _COSelfCheck
 738  017C  2800     R  	jmp _L136
 738  017D              _L138:
 744  017D              #line 744 "e:\x-sense_svn\xp02\xp02\src\main.c"
 744  017D  1F00     E  	clr _builtin_holtek_udivmodhi4_2[6]
 744  017E  0700     R  	mov a,_SysAO[12]  
 744  017F  0080     E  	mov _builtin_holtek_udivmodhi4_2[0],a  
 744  0180  0700     R  	mov a,_SysAO[13]  
 744  0181  0080     E  	mov _builtin_holtek_udivmodhi4_2[1],a
 744  0182  0F03        	mov a,3  
 744  0183  0080     E  	mov _builtin_holtek_udivmodhi4_2[2],a  
 744  0184  1F00     E  	clr _builtin_holtek_udivmodhi4_2[3]
 744  0185              	fcall _builtin_holtek_udivmodhi4
 744  018C  0700     E  	mov a,_builtin_holtek_udivmodhi4_2[4]  
 744  018D  0080     E  	mov rb,a  
 744  018E  0700     E  	mov a,_builtin_holtek_udivmodhi4_2[5]  
 744  018F  0080     E  	mov rc,a
 744  0190  0700     E  	mov a,rb
 744  0191  0C02        	xor a,2
 744  0192  0500     E  	or a,rc
 744  0193  390A        	snz z
 744  0194  2800     R  	jmp _L139
 746  0195              #line 746 "e:\x-sense_svn\xp02\xp02\src\main.c"
 746  0195              	fcall _CoAlarmCheck
 746  019C              _L139:
 749  019C              #line 749 "e:\x-sense_svn\xp02\xp02\src\main.c"
 749  019C  1F00     E  	clr _builtin_holtek_udivmodhi4_2[6]
 749  019D  0700     R  	mov a,_SysAO[12]  
 749  019E  0080     E  	mov _builtin_holtek_udivmodhi4_2[0],a  
 749  019F  0700     R  	mov a,_SysAO[13]  
 749  01A0  0080     E  	mov _builtin_holtek_udivmodhi4_2[1],a
 749  01A1  0F06        	mov a,6  
 749  01A2  0080     E  	mov _builtin_holtek_udivmodhi4_2[2],a  
 749  01A3  1F00     E  	clr _builtin_holtek_udivmodhi4_2[3]
 749  01A4              	fcall _builtin_holtek_udivmodhi4
 749  01AB  0700     E  	mov a,_builtin_holtek_udivmodhi4_2[4]  
 749  01AC  0080     E  	mov rb,a  
 749  01AD  0700     E  	mov a,_builtin_holtek_udivmodhi4_2[5]  
 749  01AE  0080     E  	mov rc,a
 749  01AF  0700     E  	mov a,rb
 749  01B0  0C05        	xor a,5
 749  01B1  0500     E  	or a,rc
 749  01B2  3D0A        	sz z
 749  01B3  2800     R  	jmp _L137
 749  01B4              _L136:
 749  01B4              #pragma debug scope 34 31
 749  01B4              #pragma debug scope 31 1
 749  01B4              #pragma debug scope 36 31
 749  01B4              ;begin block, line: 749.-1
 749  01B4              #pragma debug scope 37 36
文件：main.c       编译器版本 HGASM 0202 页次96

 749  01B4              ;begin block, line: 749.-1
 768  01B4              #line 768 "e:\x-sense_svn\xp02\xp02\src\main.c"
 768  01B4  0700     R  	mov a,_SysAO[7]
 768  01B5  0080     E  	mov rb,a
 768  01B6  0700     R  	mov a,_SysAO[8]
 768  01B7  0080     E  	mov rc,a
 768  01B8  0700     R  	mov a,_SysAO[21]
 768  01B9  0080     E  	mov rd,a
 768  01BA  0700     R  	mov a,_SysAO[22]
 768  01BB  0080     E  	mov re,a
 771  01BC              #line 771 "e:\x-sense_svn\xp02\xp02\src\main.c"
 771  01BC  1F00     E  	clr _builtin_holtek_udivmodhi4_2[6]
 771  01BD  0700     E  	mov a,rd  
 771  01BE  0080     E  	mov _builtin_holtek_udivmodhi4_2[0],a  
 771  01BF  0700     E  	mov a,re  
 771  01C0  0080     E  	mov _builtin_holtek_udivmodhi4_2[1],a
 771  01C1  0F06        	mov a,6  
 771  01C2  0080     E  	mov _builtin_holtek_udivmodhi4_2[2],a  
 771  01C3  1F00     E  	clr _builtin_holtek_udivmodhi4_2[3]
 771  01C4              	fcall _builtin_holtek_udivmodhi4
 771  01CB  0700     E  	mov a,_builtin_holtek_udivmodhi4_2[4]  
 771  01CC  0080     E  	mov rd,a  
 771  01CD  0700     E  	mov a,_builtin_holtek_udivmodhi4_2[5]  
 771  01CE  0080     E  	mov re,a
 768  01CF              #line 768 "e:\x-sense_svn\xp02\xp02\src\main.c"
 768  01CF  3C00     E  	sz rb.0
 768  01D0  2800     R  	jmp _L141
 768  01D1  0700     E  	mov a,rb
 768  01D2  0080     E  	mov rf,a
 768  01D3  0700     E  	mov a,rc
 768  01D4  0080     E  	mov rg,a
 768  01D5  0F06        	mov a,6  
 768  01D6  0680     E  	andm a,rf  
 768  01D7  0F00        	mov a,0  
 768  01D8  0680     E  	andm a,rg
 769  01D9              #line 769 "e:\x-sense_svn\xp02\xp02\src\main.c"
 769  01D9  0700     E  	mov a,rf
 769  01DA  0500     E  	or a,rg
 769  01DB  3D0A        	sz z
 769  01DC  2800     R  	jmp _L142
 769  01DD              _L141:
 771  01DD              #line 771 "e:\x-sense_svn\xp02\xp02\src\main.c"
 771  01DD  0700     E  	mov a,rd
 771  01DE  0C05        	xor a,5
 771  01DF  0500     E  	or a,re
 771  01E0  390A        	snz z
 771  01E1  2800     R  	jmp _L143
 777  01E2              #line 777 "e:\x-sense_svn\xp02\xp02\src\main.c"
 777  01E2  3800     E  	snz rb.1
 777  01E3  2800     R  	jmp _L144
 779  01E4              #line 779 "e:\x-sense_svn\xp02\xp02\src\main.c"
 779  01E4  0F01        	mov a,1
 779  01E5  0080     R  	mov _ErrIndex_2[1],a
 779  01E6  2800     R  	jmp _L158
 779  01E7              _L144:
 784  01E7              #line 784 "e:\x-sense_svn\xp02\xp02\src\main.c"
 784  01E7  0700     R  	mov a,_SysAO[23]
 784  01E8  0080     E  	mov ra,a
 784  01E9  0F0E        	mov a,14
 784  01EA  0200     E  	sub a,ra
文件：main.c       编译器版本 HGASM 0202 页次97

 784  01EB  380A        	snz c
 784  01EC  2800     R  	jmp _L145
 786  01ED              #line 786 "e:\x-sense_svn\xp02\xp02\src\main.c"
 786  01ED  1400     E  	inca ra
 786  01EE  0080     R  	mov _SysAO[23],a
 787  01EF              #line 787 "e:\x-sense_svn\xp02\xp02\src\main.c"
 787  01EF  0F28        	mov a,40
 787  01F0  0080     E  	mov _SpeakerSendCmd_2[0],a
 787  01F1  1F00     E  	clr _SpeakerSendCmd_2[1]
 787  01F2  1F00     E  	clr _SpeakerSendCmd_2[2]
 787  01F3  1F00     E  	clr _SpeakerSendCmd_2[3]
 787  01F4              	fcall _SpeakerSendCmd
 787  01FB              _L145:
 790  01FB              #line 790 "e:\x-sense_svn\xp02\xp02\src\main.c"
 790  01FB  0F01        	mov a,1
 790  01FC  0080     R  	mov _ErrIndex_2[1],a
 790  01FD              _L155:
 790  01FD  0F01        	mov a,1
 790  01FE  0080     R  	mov _ErrIndex_2[0],a
 790  01FF              _L154:
 790  01FF  0F01        	mov a,1
 790  0200              	fcall _ErrIndex
 790  0207  2800     R  	jmp _L143
 790  0208              _L142:
 794  0208              #line 794 "e:\x-sense_svn\xp02\xp02\src\main.c"
 794  0208  3C00     E  	sz rb.4
 794  0209  2800     R  	jmp _L146
 794  020A  0700     E  	mov a,rb
 794  020B  0080     E  	mov rf,a
 794  020C  0700     E  	mov a,rc
 794  020D  0080     E  	mov rg,a
 794  020E  0F60        	mov a,96  
 794  020F  0680     E  	andm a,rf  
 794  0210  0F00        	mov a,0  
 794  0211  0680     E  	andm a,rg
 795  0212              #line 795 "e:\x-sense_svn\xp02\xp02\src\main.c"
 795  0212  0700     E  	mov a,rf
 795  0213  0500     E  	or a,rg
 795  0214  3D0A        	sz z
 795  0215  2800     R  	jmp _L147
 795  0216              _L146:
 797  0216              #line 797 "e:\x-sense_svn\xp02\xp02\src\main.c"
 797  0216  0700     E  	mov a,rd
 797  0217  0C05        	xor a,5
 797  0218  0500     E  	or a,re
 797  0219  390A        	snz z
 797  021A  2800     R  	jmp _L143
 803  021B              #line 803 "e:\x-sense_svn\xp02\xp02\src\main.c"
 803  021B  3800     E  	snz rb.5
 803  021C  2800     R  	jmp _L148
 805  021D              #line 805 "e:\x-sense_svn\xp02\xp02\src\main.c"
 805  021D  0F03        	mov a,3
 805  021E  0080     R  	mov _ErrIndex_2[1],a
 805  021F              _L158:
 805  021F  1F00     R  	clr _ErrIndex_2[0]
 805  0220  2800     R  	jmp _L154
 805  0221              _L148:
 810  0221              #line 810 "e:\x-sense_svn\xp02\xp02\src\main.c"
 810  0221  0700     R  	mov a,_SysAO[24]
 810  0222  0080     E  	mov ra,a
文件：main.c       编译器版本 HGASM 0202 页次98

 810  0223  0F0E        	mov a,14
 810  0224  0200     E  	sub a,ra
 810  0225  380A        	snz c
 810  0226  2800     R  	jmp _L149
 812  0227              #line 812 "e:\x-sense_svn\xp02\xp02\src\main.c"
 812  0227  1400     E  	inca ra
 812  0228  0080     R  	mov _SysAO[24],a
 813  0229              #line 813 "e:\x-sense_svn\xp02\xp02\src\main.c"
 813  0229  0F37        	mov a,55
 813  022A  0080     E  	mov _SpeakerSendCmd_2[0],a
 813  022B  1F00     E  	clr _SpeakerSendCmd_2[1]
 813  022C  1F00     E  	clr _SpeakerSendCmd_2[2]
 813  022D  1F00     E  	clr _SpeakerSendCmd_2[3]
 813  022E              	fcall _SpeakerSendCmd
 813  0235              _L149:
 816  0235              #line 816 "e:\x-sense_svn\xp02\xp02\src\main.c"
 816  0235  0F03        	mov a,3
 816  0236  0080     R  	mov _ErrIndex_2[1],a
 816  0237  2800     R  	jmp _L155
 816  0238              _L147:
 825  0238              #line 825 "e:\x-sense_svn\xp02\xp02\src\main.c"
 825  0238  0700     E  	mov a,rd
 825  0239  0C05        	xor a,5
 825  023A  0500     E  	or a,re
 825  023B  390A        	snz z
 825  023C  2800     R  	jmp _L143
 827  023D              #line 827 "e:\x-sense_svn\xp02\xp02\src\main.c"
 827  023D              	fcall _GetTempIndex
 827  0244  0080     E  	mov ra,a
 827  0245  0700     E  	mov a,ra
 827  0246  0080     R  	mov _SysAO[20],a
 828  0247              #line 828 "e:\x-sense_svn\xp02\xp02\src\main.c"
 828  0247  3218        	set [24].4
 829  0248              #line 829 "e:\x-sense_svn\xp02\xp02\src\main.c"
 829  0248              ;# 829 "e:\x-sense_svn\xp02\xp02\src\main.c" 1
 829  0248              	IF (3000)>263690
 829  0248              ;# 829 "e:\x-sense_svn\xp02\xp02\src\main.c" 1
 829  0248              	ERRMESSAGE 'the value (3000)of the argument exceeds the maxinum 263690'
 829  0248              	ENDIF
 829  0248              ;# 829 "e:\x-sense_svn\xp02\xp02\src\main.c" 1
 829  0248              	IF (3000)<0
 829  0248              ;# 829 "e:\x-sense_svn\xp02\xp02\src\main.c" 1
 829  0248              	ERRMESSAGE 'the value (3000) of the argument exceeds the mininum 0'
 829  0248              	ENDIF
 829  0248              ;# 829 "e:\x-sense_svn\xp02\xp02\src\main.c" 1
 829  0248              	IF (3000)==0
 829  0248              ;# 829 "e:\x-sense_svn\xp02\xp02\src\main.c" 1
 829  0248              	JMP $
 829  0248              	ENDIF
 829  0248              ;# 829 "e:\x-sense_svn\xp02\xp02\src\main.c" 1
 829  0248              	IF ((3000)>=1) AND ((3000)<( 4 + __PBP__ * 2))
 829  0248              ;# 829 "e:\x-sense_svn\xp02\xp02\src\main.c" 1
 829  0248              	NOP
 829  0248              	ENDIF
 829  0248              ;# 829 "e:\x-sense_svn\xp02\xp02\src\main.c" 1
 829  0248              	IF ((3000)>=2) AND ((3000)<( 4 + __PBP__ * 2))
 829  0248              ;# 829 "e:\x-sense_svn\xp02\xp02\src\main.c" 1
 829  0248              	NOP
 829  0248              	ENDIF
 829  0248              ;# 829 "e:\x-sense_svn\xp02\xp02\src\main.c" 1
文件：main.c       编译器版本 HGASM 0202 页次99

 829  0248              	IF ((3000)>=3) AND ((3000)<( 4 + __PBP__ * 2))
 829  0248              ;# 829 "e:\x-sense_svn\xp02\xp02\src\main.c" 1
 829  0248              	NOP
 829  0248              	ENDIF
 829  0248              ;# 829 "e:\x-sense_svn\xp02\xp02\src\main.c" 1
 829  0248              	IF ((3000)>=4) AND ((3000)<( 4 + __PBP__ * 2)) AND ( __PBP__ > 0 )
 829  0248              ;# 829 "e:\x-sense_svn\xp02\xp02\src\main.c" 1
 829  0248              	NOP
 829  0248              	ENDIF
 829  0248              ;# 829 "e:\x-sense_svn\xp02\xp02\src\main.c" 1
 829  0248              	IF ((3000)>=5) AND ((3000)<( 4 + __PBP__ * 2)) AND ( __PBP__ > 0 )
 829  0248              ;# 829 "e:\x-sense_svn\xp02\xp02\src\main.c" 1
 829  0248              	NOP
 829  0248              	ENDIF
 829  0248              ;# 829 "e:\x-sense_svn\xp02\xp02\src\main.c" 1
 829  0248              	IF ((3000)>=6) AND ((3000)<( 4 + __PBP__ * 2))  AND ( __PBP__ > 1 )
 829  0248              ;# 829 "e:\x-sense_svn\xp02\xp02\src\main.c" 1
 829  0248              	NOP
 829  0248              	ENDIF
 829  0248              ;# 829 "e:\x-sense_svn\xp02\xp02\src\main.c" 1
 829  0248              	IF ((3000)>=7) AND ((3000)<( 4 + __PBP__ * 2))  AND ( __PBP__ > 1 )
 829  0248              ;# 829 "e:\x-sense_svn\xp02\xp02\src\main.c" 1
 829  0248              	NOP
 829  0248              	ENDIF
 829  0248              ;# 829 "e:\x-sense_svn\xp02\xp02\src\main.c" 1
 829  0248              	IF ((3000)>=8) AND ((3000)<( 4 + __PBP__ * 2))  AND ( __PBP__ > 2 )
 829  0248              ;# 829 "e:\x-sense_svn\xp02\xp02\src\main.c" 1
 829  0248              	NOP
 829  0248              	ENDIF
 829  0248              ;# 829 "e:\x-sense_svn\xp02\xp02\src\main.c" 1
 829  0248              	IF ((3000)==9)  AND ( __PBP__ > 2 )
 829  0248              ;# 829 "e:\x-sense_svn\xp02\xp02\src\main.c" 1
 829  0248              	NOP
 829  0248              	ENDIF
 829  0248              ;# 829 "e:\x-sense_svn\xp02\xp02\src\main.c" 1
 829  0248              	IF ((3000)< ( 8 + __PBP__ * 2)) AND ((3000)>( 3 + __PBP__ * 2))
 829  0248              ;# 829 "e:\x-sense_svn\xp02\xp02\src\main.c" 1
 829  0248              	fcall __DELAY3 + ( 7 + __PBP__ * 2) -(3000)
 829  0248              	ENDIF
 829  0248              ;# 829 "e:\x-sense_svn\xp02\xp02\src\main.c" 1
 829  0248              	IF ((3000)< ( 0404h + __PBP__ * 2)) AND ((3000)>( 7 + __PBP__ * 2))
 829  0248              ;# 829 "e:\x-sense_svn\xp02\xp02\src\main.c" 1
 829  0248              	MOV A,((3000)-( 4 + __PBP__ * 2))/4
 829  0248              ;# 829 "e:\x-sense_svn\xp02\xp02\src\main.c" 1
 829  0248              	fcall __DELAYX3 + 3 -(((3000)-( 4 + __PBP__ * 2)) MOD 4) 
 829  0248              	ENDIF
 829  0248              ;# 829 "e:\x-sense_svn\xp02\xp02\src\main.c" 1
 829  0248              	IF ((3000)< ( 040bh + __PBP__ * 2)) AND ((3000)> ( 0403h + __PBP__ * 2))
 829  0248              ;# 829 "e:\x-sense_svn\xp02\xp02\src\main.c" 1
 829  0248              	MOV A,0 
 829  0248              ;# 829 "e:\x-sense_svn\xp02\xp02\src\main.c" 1
 829  0248              	fcall __DELAYX6 + ( 040ah + __PBP__ * 2) -(3000)
 829  0248              	ENDIF
 829  0248              ;# 829 "e:\x-sense_svn\xp02\xp02\src\main.c" 1
 829  0248              	IF ((3000) >= ( 040bh + __PBP__ * 2)) AND (((((3000)-( 9 + __PBP__ * 2))%0402h)/4+1)>256)
 829  0248              ;# 829 "e:\x-sense_svn\xp02\xp02\src\main.c" 1
 829  0248              	MOV A,((3000)-( 9 + __PBP__ * 2))/0402h
 829  0248              ;# 829 "e:\x-sense_svn\xp02\xp02\src\main.c" 1
 829  0248              	MOV _builtin_holtek_delay_2,A
 829  0248              ;# 829 "e:\x-sense_svn\xp02\xp02\src\main.c" 1
文件：main.c       编译器版本 HGASM 0202 页次100

 829  0248              	MOV A,0
 829  0248              ;# 829 "e:\x-sense_svn\xp02\xp02\src\main.c" 1
 829  0248              	fcall __DELAYY5 +5- ((((3000)-( 9 + __PBP__ * 2))%0402h)%6) 
 829  0248              	ENDIF
 829  0248              ;# 829 "e:\x-sense_svn\xp02\xp02\src\main.c" 1
 829  0248              	IF ((3000) >= ( 040bh + __PBP__ * 2)) AND (((((3000)-( 9 + __PBP__ * 2))%0402h)/4+1)<=256)
 829  0248              ;# 829 "e:\x-sense_svn\xp02\xp02\src\main.c" 1
 829  0248  0F02        	MOV A,((3000)-( 9 + __PBP__ * 2))/0402h
 829  0249              ;# 829 "e:\x-sense_svn\xp02\xp02\src\main.c" 1
 829  0249  0080     E  	MOV _builtin_holtek_delay_2,A
 829  024A              ;# 829 "e:\x-sense_svn\xp02\xp02\src\main.c" 1
 829  024A  0FEB        	MOV A,(((3000)-( 9 + __PBP__ * 2))%0402h)/4+1
 829  024B              ;# 829 "e:\x-sense_svn\xp02\xp02\src\main.c" 1
 829  024B              	fcall __DELAYY3 +3-((((3000)-( 9 + __PBP__ * 2))%0402h)%4) 
 829  0252              	ENDIF
 830  0252              #line 830 "e:\x-sense_svn\xp02\xp02\src\main.c"
 830  0252  3618        	clr [24].4
 830  0253              _L143:
 834  0253              #line 834 "e:\x-sense_svn\xp02\xp02\src\main.c"
 834  0253  0F01        	mov a,1
 834  0254  0300     R  	add a,_SysAO[21]
 834  0255  0080     E  	mov rb,a
 834  0256  0F00        	mov a,0
 834  0257  1300     R  	adc a,_SysAO[22]
 834  0258  0080     E  	mov rc,a
 835  0259              #line 835 "e:\x-sense_svn\xp02\xp02\src\main.c"
 835  0259  0F05        	mov a,5
 835  025A  0200     E  	sub a,rb
 835  025B  0F00        	mov a,0
 835  025C  1200     E  	sbc a,rc
 835  025D  380A        	snz c
 835  025E  2800     R  	jmp _L150
 834  025F              #line 834 "e:\x-sense_svn\xp02\xp02\src\main.c"
 834  025F  0700     E  	mov a,rb
 834  0260  0080     R  	mov _SysAO[21],a
 834  0261  0700     E  	mov a,rc
 834  0262  0080     R  	mov _SysAO[22],a
 834  0263  2800     R  	jmp _L105
 834  0264              _L150:
 837  0264              #line 837 "e:\x-sense_svn\xp02\xp02\src\main.c"
 837  0264  1F00     R  	clr _SysAO[21]
 837  0265  1F00     R  	clr _SysAO[22]
 837  0266              _L105:
 837  0266              #pragma debug scope 36 31
 837  0266              #pragma debug scope 31 1
 837  0266  0003        	ret
 837  0267              _NormalMain endp
 837  0267              #line 837 "e:\x-sense_svn\xp02\xp02\src\main.c"
 837  0267              #pragma debug scope 1 1
 837  0267              ___hircc equ [17]
 837  0267              ___scc equ [16]
 837  0267              ___papu equ [22]
 837  0267              ___pac equ [21]
 837  0267              ___pawu equ [23]
 837  0267              ___pas0 equ [322]
 837  0267              ___pas1 equ [323]
 837  0267              ___pbpu equ [26]
 837  0267              ___pbc equ [25]
 837  0267              ___pbs0 equ [324]
 837  0267              ___pbs1 equ [325]
文件：main.c       编译器版本 HGASM 0202 页次101

 837  0267              ___integ equ [66]
 837  0267              ___pcpu equ [29]
 837  0267              ___pcc equ [28]
 837  0267              ___pcs0 equ [326]
 837  0267              ___pcs1 equ [327]
 837  0267              ___pd equ [30]
 837  0267              ___pdpu equ [32]
 837  0267              ___pdc equ [31]
 837  0267              ___pds0 equ [328]
 837  0267              ___sledc0 equ [307]
 837  0267              ___sledc1 equ [308]
 837  0010              @crom	.section 'crom'
 837  0010              _LC4:
 837  0010              	db 032h,02eh,031h,02eh,038h,00h
 837  0013              @crom	.section 'crom'
 837  0013              _LC5:
 837  0013              	db 058h,050h,030h,032h,05fh,057h,052h,00h
 837  0017              @crom	.section 'crom'
 837  0017              _LC6:
 837  0017              	db 058h,02dh,053h,065h,06eh,073h,065h,020h,04dh,06fh
 837  001C              	db 064h,065h,06ch,03ah,020h,025h,073h,02ch,056h,065h
 837  0021              	db 072h,03ah,020h,025h,073h,0ah,00h
 837  0025              @crom	.section 'crom'
 837  0025              _LC7:
 837  0025              	db 055h,04ch,028h,055h,053h,041h,029h,00h
 837  0029              @crom	.section 'crom'
 837  0029              _LC8:
 837  0029              	db 020h,020h,054h,068h,072h,065h,073h,068h,06fh,06ch
 837  002E              	db 064h,020h,03dh,020h,025h,064h,06dh,056h,0ah,00h
 837  0033              @crom	.section 'crom'
 837  0033              _LC9:
 837  0033              	db 042h,061h,074h,03ah,00h
 837  0035              @crom	.section 'crom'
 837  0035              _LC10:
 837  0035              	db 025h,064h,00h
 837  0037              @crom	.section 'crom'
 837  0037              _LC11:
 837  0037              	db 02eh,025h,064h,00h
 837  0039              @crom	.section 'crom'
 837  0039              _LC12:
 837  0039              	db 06dh,056h,0ah,00h
 837  003B              public _main
 837  003B              #pragma debug scope 38 1
1550  003B              #line 1550 "e:\x-sense_svn\xp02\xp02\src\main.c"
1550  003B              IFDEF WITH_DEFAULT_STARTUP
1550  003B              extern _main_initial0:near
1550  003B              extern _main_startup:near
1550  003B              ENDIF
1550  003B              
1550  003B              ROMBANK 0 @start
1550  0000              @start .section com_l 'code'
1550  0000              _main_startup1:
1550  0000              @start .section com_e 'code'
1550  0000  0F00     R  	mov a,bank _main
1550  0001  008B        	mov bp,a
1550  0002  2800     R  	jmp _main
1550  0003              
1550  0000              _main .section 'code'
1550  0000              _main proc
1550  0000  0002[           local _main_2 db 2 dup(?)
文件：main.c       编译器版本 HGASM 0202 页次102

            00
            ]
1550  0000              #pragma debug scope 39 38
1550  0000              ;begin block, line: 1550.-1
1550  0000              #pragma debug scope 40 39
1550  0000              ;begin block, line: 1550.-1
1550  0000              #pragma debug variable 10 40 _main_2+0 "BatVol"
1550  0000              #pragma debug scope 41 40
1550  0000              ;begin block, line: 1550.-1
1550  0000              #pragma debug scope 42 41
1550  0000              ;begin block, line: 1550.-1
 124  0000              #line 124 "e:\x-sense_svn\xp02\xp02\src\main.c"
 124  0000  0F05        	mov a,5
 124  0001  0591        	orm a,[17]
 124  0002              _L161:
 127  0002              #line 127 "e:\x-sense_svn\xp02\xp02\src\main.c"
 127  0002  3891        	snz [17].1
 127  0003  2800     R  	jmp _L161
 148  0004              #line 148 "e:\x-sense_svn\xp02\xp02\src\main.c"
 148  0004  0710        	mov a,[16]
 148  0005  0080     E  	mov ra,a
 148  0006  1F10        	clr [16]
 148  0007              #pragma debug scope 41 40
 148  0007              #pragma debug scope 40 39
 593  0007              #line 593 "e:\x-sense_svn\xp02\xp02\src\main.c"
 593  0007              	fcall _STimerInit
 594  000E              #line 594 "e:\x-sense_svn\xp02\xp02\src\main.c"
 594  000E  0F07        	mov a,7
 594  000F  0080     R  	mov _TimerTb0Init_2[0],a
 594  0010  1F00     R  	clr _TimerTb0Init_2[1]
 594  0011              	fcall _TimerTb0Init
 595  0018              #line 595 "e:\x-sense_svn\xp02\xp02\src\main.c"
 595  0018              	fcall _TmrInitHeader
 595  001F              #pragma debug scope 43 40
 595  001F              ;begin block, line: 595.-1
 595  001F              #pragma debug scope 44 43
 595  001F              ;begin block, line: 595.-1
  38  001F              #line 38 "e:\x-sense_svn\xp02\xp02\src\main.c"
  38  001F  1F00     R  	clr _SysAO[25]
  38  0020  1F00     R  	clr _SysAO[26]
  38  0021  1F00     R  	clr _SysAO[27]
  38  0022  1F00     R  	clr _SysAO[28]
  39  0023              #line 39 "e:\x-sense_svn\xp02\xp02\src\main.c"
  39  0023  1F00     R  	clr _SysAO[7]
  39  0024  1F00     R  	clr _SysAO[8]
  40  0025              #line 40 "e:\x-sense_svn\xp02\xp02\src\main.c"
  40  0025  1F00     R  	clr _SysAO[9]
  40  0026  1F00     R  	clr _SysAO[10]
  41  0027              #line 41 "e:\x-sense_svn\xp02\xp02\src\main.c"
  41  0027  1F00     R  	clr _SysAO[11]
  42  0028              #line 42 "e:\x-sense_svn\xp02\xp02\src\main.c"
  42  0028  1F00     R  	clr _SysAO[12]
  42  0029  1F00     R  	clr _SysAO[13]
  43  002A              #line 43 "e:\x-sense_svn\xp02\xp02\src\main.c"
  43  002A  1F00     R  	clr _SysAO[14]
  43  002B  1F00     R  	clr _SysAO[15]
  44  002C              #line 44 "e:\x-sense_svn\xp02\xp02\src\main.c"
  44  002C  1F00     R  	clr _SysAO[21]
  44  002D  1F00     R  	clr _SysAO[22]
  45  002E              #line 45 "e:\x-sense_svn\xp02\xp02\src\main.c"
文件：main.c       编译器版本 HGASM 0202 页次103

  45  002E  1F00     R  	clr _SysAO[16]
  45  002F  1F00     R  	clr _SysAO[17]
  46  0030              #line 46 "e:\x-sense_svn\xp02\xp02\src\main.c"
  46  0030  1F00     R  	clr _SysAO[18]
  46  0031  1F00     R  	clr _SysAO[19]
  47  0032              #line 47 "e:\x-sense_svn\xp02\xp02\src\main.c"
  47  0032  0F2D        	mov a,45
  47  0033  0080     R  	mov _SysAO[20],a
  50  0034              #line 50 "e:\x-sense_svn\xp02\xp02\src\main.c"
  50  0034  1F00     R  	clr _SysAO[23]
  51  0035              #line 51 "e:\x-sense_svn\xp02\xp02\src\main.c"
  51  0035  1F00     R  	clr _SysAO[24]
  54  0036              #line 54 "e:\x-sense_svn\xp02\xp02\src\main.c"
  54  0036  0F01        	mov a,1
  54  0037  0080     R  	mov _SysAO[0],a
  54  0038  1F00     R  	clr _SysAO[1]
  55  0039              #line 55 "e:\x-sense_svn\xp02\xp02\src\main.c"
  55  0039  0F01        	mov a,1
  55  003A  0080     R  	mov _SysAO[2],a
  55  003B  1F00     R  	clr _SysAO[3]
  57  003C              #line 57 "e:\x-sense_svn\xp02\xp02\src\main.c"
  57  003C  0F00        	mov a,0
  57  003D              	fcall _E2promRead
  57  0044  0080     E  	mov ra,a
  58  0045              #line 58 "e:\x-sense_svn\xp02\xp02\src\main.c"
  58  0045  0700     E  	mov a,ra
  58  0046  0080     R  	mov _main_2[1],a
  58  0047  1F00     R  	clr _main_2[0]
  58  0048  0700     R  	mov a,_main_2[0]
  58  0049  0080     R  	mov _SysAO[9],a
  58  004A  0700     R  	mov a,_main_2[1]
  58  004B  0080     R  	mov _SysAO[10],a
  59  004C              #line 59 "e:\x-sense_svn\xp02\xp02\src\main.c"
  59  004C  0F01        	mov a,1
  59  004D              	fcall _E2promRead
  59  0054  0080     E  	mov ra,a
  59  0055  0700     R  	mov a,_main_2[1]
  59  0056  0080     R  	mov _SysAO[10],a
  59  0057  0700     E  	mov a,ra
  59  0058  0500     R  	or a,_main_2[0]
  59  0059  0080     R  	mov _SysAO[9],a
  61  005A              #line 61 "e:\x-sense_svn\xp02\xp02\src\main.c"
  61  005A  1F00     R  	clr _SysAO[4]
  61  005B  1F00     R  	clr _SysAO[5]
  62  005C              #line 62 "e:\x-sense_svn\xp02\xp02\src\main.c"
  62  005C  1F00     R  	clr _SysAO[6]
  62  005D  0F0A        	mov a,10
  62  005E  0080     E  	mov ra,a
  63  005F              #line 63 "e:\x-sense_svn\xp02\xp02\src\main.c"
  63  005F  1F00     E  	clr rf
  63  0060              _L163:
  65  0060              #line 65 "e:\x-sense_svn\xp02\xp02\src\main.c"
  65  0060  0700     E  	mov a,rf
  65  0061  0080     E  	mov rb,a
  65  0062  1F00     E  	clr rc
  65  0063  340A        	clr c
  65  0064  1A00     E  	rlca rb
  65  0065  0080     E  	mov rd,a
  65  0066  1A00     E  	rlca rc
  65  0067  0080     E  	mov re,a
文件：main.c       编译器版本 HGASM 0202 页次104

  65  0068  0700     E  	mov a,rd
  65  0069  0380     E  	addm a,rb
  65  006A  0700     E  	mov a,re
  65  006B  1380     E  	adcm a,rc
  65  006C  0F00     R  	mov a,low (offset _SysAO+29)
  65  006D  0300     E  	add a,rb
  65  006E  0083        	mov mp,a
  65  006F  0F00     R  	mov a,high (offset _SysAO+29)
  65  0070  1300     E  	adc a,rc
  65  0071  0084        	mov sbp,a
  65  0072  1F02        	clr ir
  65  0073  1483        	inc mp
  65  0074  1F02        	clr ir
  66  0075              #line 66 "e:\x-sense_svn\xp02\xp02\src\main.c"
  66  0075  0F00     R  	mov a,low (offset _SysAO+31)
  66  0076  0300     E  	add a,rb
  66  0077  0083        	mov mp,a
  66  0078  0F00     R  	mov a,high (offset _SysAO+31)
  66  0079  1300     E  	adc a,rc
  66  007A  0084        	mov sbp,a
  66  007B  0F00        	mov a,0
  66  007C  0082        	mov ir,a
  63  007D              #line 63 "e:\x-sense_svn\xp02\xp02\src\main.c"
  63  007D  1480     E  	inc rf
  63  007E  1780     E  	sdz ra
  63  007F  2800     R  	jmp _L163
  69  0080              #line 69 "e:\x-sense_svn\xp02\xp02\src\main.c"
  69  0080  0F01        	mov a,1
  69  0081  0080     R  	mov _SysteSetSig_2[0],a
  69  0082  1F00     R  	clr _SysteSetSig_2[1]
  69  0083              	fcall _SysteSetSig
  69  008A              #pragma debug scope 43 40
  69  008A              #pragma debug scope 40 39
  69  008A              #pragma debug scope 45 40
  69  008A              ;begin block, line: 69.-1
  69  008A              #pragma debug scope 46 45
  69  008A              ;begin block, line: 69.-1
 254  008A              #line 254 "e:\x-sense_svn\xp02\xp02\src\main.c"
 254  008A  1F14        	clr [20]
 255  008B              #line 255 "e:\x-sense_svn\xp02\xp02\src\main.c"
 255  008B  1F96        	set [22]
 256  008C              #line 256 "e:\x-sense_svn\xp02\xp02\src\main.c"
 256  008C  1F15        	clr [21]
 257  008D              #line 257 "e:\x-sense_svn\xp02\xp02\src\main.c"
 257  008D  1F17        	clr [23]
 269  008E              #line 269 "e:\x-sense_svn\xp02\xp02\src\main.c"
 269  008E  0F05        	mov a,5
 269  008F  0096        	mov [22],a
 271  0090              #line 271 "e:\x-sense_svn\xp02\xp02\src\main.c"
 271  0090  3395        	set [21].7
 273  0091              #line 273 "e:\x-sense_svn\xp02\xp02\src\main.c"
 273  0091  B3C3 0001   	lset [323].7
 276  0093              #line 276 "e:\x-sense_svn\xp02\xp02\src\main.c"
 276  0093  3214        	set [20].4
 277  0094              #line 277 "e:\x-sense_svn\xp02\xp02\src\main.c"
 277  0094  3216        	set [22].4
 278  0095              #line 278 "e:\x-sense_svn\xp02\xp02\src\main.c"
 278  0095  3215        	set [21].4
 279  0096              #line 279 "e:\x-sense_svn\xp02\xp02\src\main.c"
 279  0096  3217        	set [23].4
文件：main.c       编译器版本 HGASM 0202 页次105

 297  0097              #line 297 "e:\x-sense_svn\xp02\xp02\src\main.c"
 297  0097  1F18        	clr [24]
 298  0098              #line 298 "e:\x-sense_svn\xp02\xp02\src\main.c"
 298  0098  1F9A        	set [26]
 299  0099              #line 299 "e:\x-sense_svn\xp02\xp02\src\main.c"
 299  0099  1F19        	clr [25]
 304  009A              #line 304 "e:\x-sense_svn\xp02\xp02\src\main.c"
 304  009A  3019        	set [25].0
 305  009B              #line 305 "e:\x-sense_svn\xp02\xp02\src\main.c"
 305  009B  341A        	clr [26].0
 312  009C              #line 312 "e:\x-sense_svn\xp02\xp02\src\main.c"
 312  009C  1F42        	clr [66]
 313  009D              #line 313 "e:\x-sense_svn\xp02\xp02\src\main.c"
 313  009D  3042        	set [66].0
 314  009E              #line 314 "e:\x-sense_svn\xp02\xp02\src\main.c"
 314  009E  30C2        	set [66].1
 316  009F              #line 316 "e:\x-sense_svn\xp02\xp02\src\main.c"
 316  009F  3143        	set [67].2
 320  00A0              #line 320 "e:\x-sense_svn\xp02\xp02\src\main.c"
 320  00A0  0F0C        	mov a,12
 320  00A1  85C4 0001   	lorm a,[324]
 325  00A3              #line 325 "e:\x-sense_svn\xp02\xp02\src\main.c"
 325  00A3  0FC0        	mov a,192
 325  00A4  85C4 0001   	lorm a,[324]
 326  00A6              #line 326 "e:\x-sense_svn\xp02\xp02\src\main.c"
 326  00A6  3199        	set [25].3
 327  00A7              #line 327 "e:\x-sense_svn\xp02\xp02\src\main.c"
 327  00A7  0F0A        	mov a,10
 327  00A8  059A        	orm a,[26]
 332  00A9              #line 332 "e:\x-sense_svn\xp02\xp02\src\main.c"
 332  00A9  0FAF        	mov a,175
 332  00AA  0699        	andm a,[25]
 333  00AB              #line 333 "e:\x-sense_svn\xp02\xp02\src\main.c"
 333  00AB  0F50        	mov a,80
 333  00AC  059A        	orm a,[26]
 336  00AD              #line 336 "e:\x-sense_svn\xp02\xp02\src\main.c"
 336  00AD  3219        	set [25].4
 337  00AE              #line 337 "e:\x-sense_svn\xp02\xp02\src\main.c"
 337  00AE  321A        	set [26].4
 338  00AF              #line 338 "e:\x-sense_svn\xp02\xp02\src\main.c"
 338  00AF  3218        	set [24].4
 339  00B0              #line 339 "e:\x-sense_svn\xp02\xp02\src\main.c"
 339  00B0              ;# 339 "e:\x-sense_svn\xp02\xp02\src\main.c" 1
 339  00B0              	IF 1000>263690
 339  00B0              ;# 339 "e:\x-sense_svn\xp02\xp02\src\main.c" 1
 339  00B0              	ERRMESSAGE 'the value 1000of the argument exceeds the maxinum 263690'
 339  00B0              	ENDIF
 339  00B0              ;# 339 "e:\x-sense_svn\xp02\xp02\src\main.c" 1
 339  00B0              	IF 1000<0
 339  00B0              ;# 339 "e:\x-sense_svn\xp02\xp02\src\main.c" 1
 339  00B0              	ERRMESSAGE 'the value 1000 of the argument exceeds the mininum 0'
 339  00B0              	ENDIF
 339  00B0              ;# 339 "e:\x-sense_svn\xp02\xp02\src\main.c" 1
 339  00B0              	IF 1000==0
 339  00B0              ;# 339 "e:\x-sense_svn\xp02\xp02\src\main.c" 1
 339  00B0              	JMP $
 339  00B0              	ENDIF
 339  00B0              ;# 339 "e:\x-sense_svn\xp02\xp02\src\main.c" 1
 339  00B0              	IF (1000>=1) AND (1000<( 4 + __PBP__ * 2))
 339  00B0              ;# 339 "e:\x-sense_svn\xp02\xp02\src\main.c" 1
文件：main.c       编译器版本 HGASM 0202 页次106

 339  00B0              	NOP
 339  00B0              	ENDIF
 339  00B0              ;# 339 "e:\x-sense_svn\xp02\xp02\src\main.c" 1
 339  00B0              	IF (1000>=2) AND (1000<( 4 + __PBP__ * 2))
 339  00B0              ;# 339 "e:\x-sense_svn\xp02\xp02\src\main.c" 1
 339  00B0              	NOP
 339  00B0              	ENDIF
 339  00B0              ;# 339 "e:\x-sense_svn\xp02\xp02\src\main.c" 1
 339  00B0              	IF (1000>=3) AND (1000<( 4 + __PBP__ * 2))
 339  00B0              ;# 339 "e:\x-sense_svn\xp02\xp02\src\main.c" 1
 339  00B0              	NOP
 339  00B0              	ENDIF
 339  00B0              ;# 339 "e:\x-sense_svn\xp02\xp02\src\main.c" 1
 339  00B0              	IF (1000>=4) AND (1000<( 4 + __PBP__ * 2)) AND ( __PBP__ > 0 )
 339  00B0              ;# 339 "e:\x-sense_svn\xp02\xp02\src\main.c" 1
 339  00B0              	NOP
 339  00B0              	ENDIF
 339  00B0              ;# 339 "e:\x-sense_svn\xp02\xp02\src\main.c" 1
 339  00B0              	IF (1000>=5) AND (1000<( 4 + __PBP__ * 2)) AND ( __PBP__ > 0 )
 339  00B0              ;# 339 "e:\x-sense_svn\xp02\xp02\src\main.c" 1
 339  00B0              	NOP
 339  00B0              	ENDIF
 339  00B0              ;# 339 "e:\x-sense_svn\xp02\xp02\src\main.c" 1
 339  00B0              	IF (1000>=6) AND (1000<( 4 + __PBP__ * 2))  AND ( __PBP__ > 1 )
 339  00B0              ;# 339 "e:\x-sense_svn\xp02\xp02\src\main.c" 1
 339  00B0              	NOP
 339  00B0              	ENDIF
 339  00B0              ;# 339 "e:\x-sense_svn\xp02\xp02\src\main.c" 1
 339  00B0              	IF (1000>=7) AND (1000<( 4 + __PBP__ * 2))  AND ( __PBP__ > 1 )
 339  00B0              ;# 339 "e:\x-sense_svn\xp02\xp02\src\main.c" 1
 339  00B0              	NOP
 339  00B0              	ENDIF
 339  00B0              ;# 339 "e:\x-sense_svn\xp02\xp02\src\main.c" 1
 339  00B0              	IF (1000>=8) AND (1000<( 4 + __PBP__ * 2))  AND ( __PBP__ > 2 )
 339  00B0              ;# 339 "e:\x-sense_svn\xp02\xp02\src\main.c" 1
 339  00B0              	NOP
 339  00B0              	ENDIF
 339  00B0              ;# 339 "e:\x-sense_svn\xp02\xp02\src\main.c" 1
 339  00B0              	IF (1000==9)  AND ( __PBP__ > 2 )
 339  00B0              ;# 339 "e:\x-sense_svn\xp02\xp02\src\main.c" 1
 339  00B0              	NOP
 339  00B0              	ENDIF
 339  00B0              ;# 339 "e:\x-sense_svn\xp02\xp02\src\main.c" 1
 339  00B0              	IF (1000< ( 8 + __PBP__ * 2)) AND (1000>( 3 + __PBP__ * 2))
 339  00B0              ;# 339 "e:\x-sense_svn\xp02\xp02\src\main.c" 1
 339  00B0              	fcall __DELAY3 + ( 7 + __PBP__ * 2) -1000
 339  00B0              	ENDIF
 339  00B0              ;# 339 "e:\x-sense_svn\xp02\xp02\src\main.c" 1
 339  00B0              	IF (1000< ( 0404h + __PBP__ * 2)) AND (1000>( 7 + __PBP__ * 2))
 339  00B0              ;# 339 "e:\x-sense_svn\xp02\xp02\src\main.c" 1
 339  00B0  0FF8        	MOV A,(1000-( 4 + __PBP__ * 2))/4
 339  00B1              ;# 339 "e:\x-sense_svn\xp02\xp02\src\main.c" 1
 339  00B1              	fcall __DELAYX3 + 3 -((1000-( 4 + __PBP__ * 2)) MOD 4) 
 339  00B8              	ENDIF
 339  00B8              ;# 339 "e:\x-sense_svn\xp02\xp02\src\main.c" 1
 339  00B8              	IF (1000< ( 040bh + __PBP__ * 2)) AND (1000> ( 0403h + __PBP__ * 2))
 339  00B8              ;# 339 "e:\x-sense_svn\xp02\xp02\src\main.c" 1
 339  00B8              	MOV A,0 
 339  00B8              ;# 339 "e:\x-sense_svn\xp02\xp02\src\main.c" 1
 339  00B8              	fcall __DELAYX6 + ( 040ah + __PBP__ * 2) -1000
文件：main.c       编译器版本 HGASM 0202 页次107

 339  00B8              	ENDIF
 339  00B8              ;# 339 "e:\x-sense_svn\xp02\xp02\src\main.c" 1
 339  00B8              	IF (1000 >= ( 040bh + __PBP__ * 2)) AND ((((1000-( 9 + __PBP__ * 2))%0402h)/4+1)>256)
 339  00B8              ;# 339 "e:\x-sense_svn\xp02\xp02\src\main.c" 1
 339  00B8              	MOV A,(1000-( 9 + __PBP__ * 2))/0402h
 339  00B8              ;# 339 "e:\x-sense_svn\xp02\xp02\src\main.c" 1
 339  00B8              	MOV _builtin_holtek_delay_2,A
 339  00B8              ;# 339 "e:\x-sense_svn\xp02\xp02\src\main.c" 1
 339  00B8              	MOV A,0
 339  00B8              ;# 339 "e:\x-sense_svn\xp02\xp02\src\main.c" 1
 339  00B8              	fcall __DELAYY5 +5- (((1000-( 9 + __PBP__ * 2))%0402h)%6) 
 339  00B8              	ENDIF
 339  00B8              ;# 339 "e:\x-sense_svn\xp02\xp02\src\main.c" 1
 339  00B8              	IF (1000 >= ( 040bh + __PBP__ * 2)) AND ((((1000-( 9 + __PBP__ * 2))%0402h)/4+1)<=256)
 339  00B8              ;# 339 "e:\x-sense_svn\xp02\xp02\src\main.c" 1
 339  00B8              	MOV A,(1000-( 9 + __PBP__ * 2))/0402h
 339  00B8              ;# 339 "e:\x-sense_svn\xp02\xp02\src\main.c" 1
 339  00B8              	MOV _builtin_holtek_delay_2,A
 339  00B8              ;# 339 "e:\x-sense_svn\xp02\xp02\src\main.c" 1
 339  00B8              	MOV A,((1000-( 9 + __PBP__ * 2))%0402h)/4+1
 339  00B8              ;# 339 "e:\x-sense_svn\xp02\xp02\src\main.c" 1
 339  00B8              	fcall __DELAYY3 +3-(((1000-( 9 + __PBP__ * 2))%0402h)%4) 
 339  00B8              	ENDIF
 340  00B8              #line 340 "e:\x-sense_svn\xp02\xp02\src\main.c"
 340  00B8  3E18        	sz [24].4
 340  00B9  2800     R  	jmp _L164
 342  00BA              #line 342 "e:\x-sense_svn\xp02\xp02\src\main.c"
 342  00BA  0F01        	mov a,1
 342  00BB  0080     R  	mov _SysAO[18],a
 342  00BC  1F00     R  	clr _SysAO[19]
 342  00BD              _L164:
 345  00BD              #line 345 "e:\x-sense_svn\xp02\xp02\src\main.c"
 345  00BD  3619        	clr [25].4
 346  00BE              #line 346 "e:\x-sense_svn\xp02\xp02\src\main.c"
 346  00BE  321A        	set [26].4
 347  00BF              #line 347 "e:\x-sense_svn\xp02\xp02\src\main.c"
 347  00BF  3618        	clr [24].4
 352  00C0              #line 352 "e:\x-sense_svn\xp02\xp02\src\main.c"
 352  00C0  1F1B        	clr [27]
 353  00C1              #line 353 "e:\x-sense_svn\xp02\xp02\src\main.c"
 353  00C1  1F9D        	set [29]
 354  00C2              #line 354 "e:\x-sense_svn\xp02\xp02\src\main.c"
 354  00C2  1F1C        	clr [28]
 358  00C3              #line 358 "e:\x-sense_svn\xp02\xp02\src\main.c"
 358  00C3  301C        	set [28].0
 359  00C4              #line 359 "e:\x-sense_svn\xp02\xp02\src\main.c"
 359  00C4  B0C6 0001   	lset [326].1
 360  00C6              #line 360 "e:\x-sense_svn\xp02\xp02\src\main.c"
 360  00C6  319D        	set [29].3
 367  00C7              #line 367 "e:\x-sense_svn\xp02\xp02\src\main.c"
 367  00C7  0F7E        	mov a,126
 367  00C8  059D        	orm a,[29]
 372  00C9              #line 372 "e:\x-sense_svn\xp02\xp02\src\main.c"
 372  00C9  1F1E        	clr [30]
 373  00CA              #line 373 "e:\x-sense_svn\xp02\xp02\src\main.c"
 373  00CA  1FA0        	set [32]
 374  00CB              #line 374 "e:\x-sense_svn\xp02\xp02\src\main.c"
 374  00CB  1F1F        	clr [31]
 377  00CC              #line 377 "e:\x-sense_svn\xp02\xp02\src\main.c"
 377  00CC  9FB3 0001   	lset [307]
文件：main.c       编译器版本 HGASM 0202 页次108

 378  00CE              #line 378 "e:\x-sense_svn\xp02\xp02\src\main.c"
 378  00CE  9FB4 0001   	lset [308]
 383  00D0              #line 383 "e:\x-sense_svn\xp02\xp02\src\main.c"
 383  00D0  3095        	set [21].1
 384  00D1              #line 384 "e:\x-sense_svn\xp02\xp02\src\main.c"
 384  00D1  3096        	set [22].1
 385  00D2              #line 385 "e:\x-sense_svn\xp02\xp02\src\main.c"
 385  00D2  3097        	set [23].1
 389  00D3              #line 389 "e:\x-sense_svn\xp02\xp02\src\main.c"
 389  00D3  3695        	clr [21].5
 390  00D4              #line 390 "e:\x-sense_svn\xp02\xp02\src\main.c"
 390  00D4  3296        	set [22].5
 391  00D5              #line 391 "e:\x-sense_svn\xp02\xp02\src\main.c"
 391  00D5  3694        	clr [20].5
 394  00D6              #line 394 "e:\x-sense_svn\xp02\xp02\src\main.c"
 394  00D6  369C        	clr [28].5
 395  00D7              #line 395 "e:\x-sense_svn\xp02\xp02\src\main.c"
 395  00D7  329D        	set [29].5
 396  00D8              #line 396 "e:\x-sense_svn\xp02\xp02\src\main.c"
 396  00D8  369B        	clr [27].5
 398  00D9              #line 398 "e:\x-sense_svn\xp02\xp02\src\main.c"
 398  00D9  3195        	set [21].3
 399  00DA              #line 399 "e:\x-sense_svn\xp02\xp02\src\main.c"
 399  00DA  3596        	clr [22].3
 402  00DB              #line 402 "e:\x-sense_svn\xp02\xp02\src\main.c"
 402  00DB  3014        	set [20].0
 403  00DC              #line 403 "e:\x-sense_svn\xp02\xp02\src\main.c"
 403  00DC  3016        	set [22].0
 404  00DD              #line 404 "e:\x-sense_svn\xp02\xp02\src\main.c"
 404  00DD  3015        	set [21].0
 405  00DE              #line 405 "e:\x-sense_svn\xp02\xp02\src\main.c"
 405  00DE  3017        	set [23].0
 408  00DF              #line 408 "e:\x-sense_svn\xp02\xp02\src\main.c"
 408  00DF  3399        	set [25].7
 409  00E0              #line 409 "e:\x-sense_svn\xp02\xp02\src\main.c"
 409  00E0  B3C5 0001   	lset [325].7
 410  00E2              #line 410 "e:\x-sense_svn\xp02\xp02\src\main.c"
 410  00E2  B745 0001   	lclr [325].6
 410  00E4              #pragma debug scope 45 40
 410  00E4              #pragma debug scope 40 39
 599  00E4              #line 599 "e:\x-sense_svn\xp02\xp02\src\main.c"
 599  00E4  361C        	clr [28].4
 599  00E5  321D        	set [29].4
 599  00E6  361B        	clr [27].4
 602  00E7              #line 602 "e:\x-sense_svn\xp02\xp02\src\main.c"
 602  00E7              	fcall _UsartCfg
 605  00EE              #line 605 "e:\x-sense_svn\xp02\xp02\src\main.c"
 605  00EE              	fcall _KeyInit
 606  00F5              #line 606 "e:\x-sense_svn\xp02\xp02\src\main.c"
 606  00F5              	fcall _PwrInit
 607  00FC              #line 607 "e:\x-sense_svn\xp02\xp02\src\main.c"
 607  00FC  0F07        	mov a,7
 607  00FD  0080     R  	mov _SysWakeUpInit_2[0],a
 607  00FE  1F00     R  	clr _SysWakeUpInit_2[1]
 607  00FF              	fcall _SysWakeUpInit
 608  0106              #line 608 "e:\x-sense_svn\xp02\xp02\src\main.c"
 608  0106              	fcall _SmokeDetInit
 609  010D              #line 609 "e:\x-sense_svn\xp02\xp02\src\main.c"
 609  010D              	fcall _InitCO_Data
 612  0114              #line 612 "e:\x-sense_svn\xp02\xp02\src\main.c"
文件：main.c       编译器版本 HGASM 0202 页次109

 612  0114  3043        	set [67].0
 621  0115              #line 621 "e:\x-sense_svn\xp02\xp02\src\main.c"
 621  0115  0F00     R  	mov a,low offset _LC4
 621  0116  0080     E  	mov _printf_2[4],a
 621  0117  0F00     R  	mov a,high offset _LC4
 621  0118  0080     E  	mov _printf_2[5],a
 621  0119  0F00     R  	mov a,low offset _LC5
 621  011A  0080     E  	mov _printf_2[2],a
 621  011B  0F00     R  	mov a,high offset _LC5
 621  011C  0080     E  	mov _printf_2[3],a
 621  011D  0F00     R  	mov a,low offset _LC6
 621  011E  0080     E  	mov _printf_2[0],a
 621  011F  0F00     R  	mov a,high offset _LC6
 621  0120  0080     E  	mov _printf_2[1],a
 621  0121              	fcall _printf
 623  0128              #line 623 "e:\x-sense_svn\xp02\xp02\src\main.c"
 623  0128  0F00     R  	mov a,low offset _LC7
 623  0129  0080     E  	mov _printf_2[0],a
 623  012A  0F00     R  	mov a,high offset _LC7
 623  012B  0080     E  	mov _printf_2[1],a
 623  012C              	fcall _printf
 627  0133              #line 627 "e:\x-sense_svn\xp02\xp02\src\main.c"
 627  0133  0700     R  	mov a,_SMOKE_ALARM_LEVEL[0]
 627  0134  0080     E  	mov _printf_2[2],a
 627  0135  0700     R  	mov a,_SMOKE_ALARM_LEVEL[1]
 627  0136  0080     E  	mov _printf_2[3],a
 627  0137  0F00     R  	mov a,low offset _LC8
 627  0138  0080     E  	mov _printf_2[0],a
 627  0139  0F00     R  	mov a,high offset _LC8
 627  013A  0080     E  	mov _printf_2[1],a
 627  013B              	fcall _printf
 628  0142              #line 628 "e:\x-sense_svn\xp02\xp02\src\main.c"
 628  0142              	fcall _E2promDisplay
 631  0149              #line 631 "e:\x-sense_svn\xp02\xp02\src\main.c"
 631  0149              	fcall _BatteryCheckHandle
 631  0150  0700     E  	mov a,ra
 631  0151  0080     R  	mov _main_2[0],a
 631  0152  0700     E  	mov a,rb
 631  0153  0080     R  	mov _main_2[1],a
 633  0154              #line 633 "e:\x-sense_svn\xp02\xp02\src\main.c"
 633  0154  0F00     R  	mov a,low offset _LC9
 633  0155  0080     E  	mov _printf_2[0],a
 633  0156  0F00     R  	mov a,high offset _LC9
 633  0157  0080     E  	mov _printf_2[1],a
 633  0158              	fcall _printf
 634  015F              #line 634 "e:\x-sense_svn\xp02\xp02\src\main.c"
 634  015F  1F00     E  	clr _builtin_holtek_udivmodhi4_2[6]
 634  0160  0700     R  	mov a,_main_2[0]  
 634  0161  0080     E  	mov _builtin_holtek_udivmodhi4_2[0],a  
 634  0162  0700     R  	mov a,_main_2[1]  
 634  0163  0080     E  	mov _builtin_holtek_udivmodhi4_2[1],a
 634  0164  0FE8        	mov a,232  
 634  0165  0080     E  	mov _builtin_holtek_udivmodhi4_2[2],a  
 634  0166  0F03        	mov a,3  
 634  0167  0080     E  	mov _builtin_holtek_udivmodhi4_2[3],a
 634  0168              	fcall _builtin_holtek_udivmodhi4
 634  016F  0700     E  	mov a,_builtin_holtek_udivmodhi4_2[0]  
 634  0170  0080     E  	mov _printf_2[2],a  
 634  0171  0700     E  	mov a,_builtin_holtek_udivmodhi4_2[1]  
 634  0172  0080     E  	mov _printf_2[3],a
文件：main.c       编译器版本 HGASM 0202 页次110

 634  0173  0F00     R  	mov a,low offset _LC10
 634  0174  0080     E  	mov _printf_2[0],a
 634  0175  0F00     R  	mov a,high offset _LC10
 634  0176  0080     E  	mov _printf_2[1],a
 634  0177              	fcall _printf
 634  017E  1F00     E  	clr _builtin_holtek_udivmodhi4_2[6]
 634  017F  0700     R  	mov a,_main_2[0]  
 634  0180  0080     E  	mov _builtin_holtek_udivmodhi4_2[0],a  
 634  0181  0700     R  	mov a,_main_2[1]  
 634  0182  0080     E  	mov _builtin_holtek_udivmodhi4_2[1],a
 634  0183  0FE8        	mov a,232  
 634  0184  0080     E  	mov _builtin_holtek_udivmodhi4_2[2],a  
 634  0185  0F03        	mov a,3  
 634  0186  0080     E  	mov _builtin_holtek_udivmodhi4_2[3],a
 634  0187              	fcall _builtin_holtek_udivmodhi4
 634  018E  0700     E  	mov a,_builtin_holtek_udivmodhi4_2[4]  
 634  018F  0080     E  	mov rb,a  
 634  0190  0700     E  	mov a,_builtin_holtek_udivmodhi4_2[5]  
 634  0191  0080     E  	mov rc,a
 634  0192  1F00     E  	clr _builtin_holtek_udivmodhi4_2[6]
 634  0193  0700     E  	mov a,rb  
 634  0194  0080     E  	mov _builtin_holtek_udivmodhi4_2[0],a  
 634  0195  0700     E  	mov a,rc  
 634  0196  0080     E  	mov _builtin_holtek_udivmodhi4_2[1],a
 634  0197  0F64        	mov a,100  
 634  0198  0080     E  	mov _builtin_holtek_udivmodhi4_2[2],a  
 634  0199  1F00     E  	clr _builtin_holtek_udivmodhi4_2[3]
 634  019A              	fcall _builtin_holtek_udivmodhi4
 634  01A1  0700     E  	mov a,_builtin_holtek_udivmodhi4_2[0]  
 634  01A2  0080     E  	mov _printf_2[2],a  
 634  01A3  0700     E  	mov a,_builtin_holtek_udivmodhi4_2[1]  
 634  01A4  0080     E  	mov _printf_2[3],a
 634  01A5  0F00     R  	mov a,low offset _LC11
 634  01A6  0080     E  	mov _printf_2[0],a
 634  01A7  0F00     R  	mov a,high offset _LC11
 634  01A8  0080     E  	mov _printf_2[1],a
 634  01A9              	fcall _printf
 634  01B0  1F00     E  	clr _builtin_holtek_udivmodhi4_2[6]
 634  01B1  0700     R  	mov a,_main_2[0]  
 634  01B2  0080     E  	mov _builtin_holtek_udivmodhi4_2[0],a  
 634  01B3  0700     R  	mov a,_main_2[1]  
 634  01B4  0080     E  	mov _builtin_holtek_udivmodhi4_2[1],a
 634  01B5  0F64        	mov a,100  
 634  01B6  0080     E  	mov _builtin_holtek_udivmodhi4_2[2],a  
 634  01B7  1F00     E  	clr _builtin_holtek_udivmodhi4_2[3]
 634  01B8              	fcall _builtin_holtek_udivmodhi4
 634  01BF  0700     E  	mov a,_builtin_holtek_udivmodhi4_2[4]  
 634  01C0  0080     E  	mov rb,a  
 634  01C1  0700     E  	mov a,_builtin_holtek_udivmodhi4_2[5]  
 634  01C2  0080     E  	mov rc,a
 634  01C3  1F00     E  	clr _builtin_holtek_udivmodhi4_2[6]
 634  01C4  0700     E  	mov a,rb  
 634  01C5  0080     E  	mov _builtin_holtek_udivmodhi4_2[0],a  
 634  01C6  0700     E  	mov a,rc  
 634  01C7  0080     E  	mov _builtin_holtek_udivmodhi4_2[1],a
 634  01C8  0F0A        	mov a,10  
 634  01C9  0080     E  	mov _builtin_holtek_udivmodhi4_2[2],a  
 634  01CA  1F00     E  	clr _builtin_holtek_udivmodhi4_2[3]
 634  01CB              	fcall _builtin_holtek_udivmodhi4
 634  01D2  0700     E  	mov a,_builtin_holtek_udivmodhi4_2[0]  
文件：main.c       编译器版本 HGASM 0202 页次111

 634  01D3  0080     E  	mov _printf_2[2],a  
 634  01D4  0700     E  	mov a,_builtin_holtek_udivmodhi4_2[1]  
 634  01D5  0080     E  	mov _printf_2[3],a
 634  01D6  0F00     R  	mov a,low offset _LC10
 634  01D7  0080     E  	mov _printf_2[0],a
 634  01D8  0F00     R  	mov a,high offset _LC10
 634  01D9  0080     E  	mov _printf_2[1],a
 634  01DA              	fcall _printf
 634  01E1  1F00     E  	clr _builtin_holtek_udivmodhi4_2[6]
 634  01E2  0700     R  	mov a,_main_2[0]  
 634  01E3  0080     E  	mov _builtin_holtek_udivmodhi4_2[0],a  
 634  01E4  0700     R  	mov a,_main_2[1]  
 634  01E5  0080     E  	mov _builtin_holtek_udivmodhi4_2[1],a
 634  01E6  0F0A        	mov a,10  
 634  01E7  0080     E  	mov _builtin_holtek_udivmodhi4_2[2],a  
 634  01E8  1F00     E  	clr _builtin_holtek_udivmodhi4_2[3]
 634  01E9              	fcall _builtin_holtek_udivmodhi4
 634  01F0  0700     E  	mov a,_builtin_holtek_udivmodhi4_2[4]  
 634  01F1  0080     E  	mov _printf_2[2],a  
 634  01F2  0700     E  	mov a,_builtin_holtek_udivmodhi4_2[5]  
 634  01F3  0080     E  	mov _printf_2[3],a
 634  01F4  0F00     R  	mov a,low offset _LC10
 634  01F5  0080     E  	mov _printf_2[0],a
 634  01F6  0F00     R  	mov a,high offset _LC10
 634  01F7  0080     E  	mov _printf_2[1],a
 634  01F8              	fcall _printf
 635  01FF              #line 635 "e:\x-sense_svn\xp02\xp02\src\main.c"
 635  01FF  0F00     R  	mov a,low offset _LC12
 635  0200  0080     E  	mov _printf_2[0],a
 635  0201  0F00     R  	mov a,high offset _LC12
 635  0202  0080     E  	mov _printf_2[1],a
 635  0203              	fcall _printf
 639  020A              #line 639 "e:\x-sense_svn\xp02\xp02\src\main.c"
 639  020A              	fcall _SpeakerInit
 643  0211              #line 643 "e:\x-sense_svn\xp02\xp02\src\main.c"
 643  0211              	fcall _RfInit
 646  0218              #line 646 "e:\x-sense_svn\xp02\xp02\src\main.c"
 646  0218  3814        	snz [20].0
 646  0219  2800     R  	jmp _L165
 646  021A              _L168:
 661  021A              #line 661 "e:\x-sense_svn\xp02\xp02\src\main.c"
 661  021A  3E14        	sz [20].4
 661  021B  2800     R  	jmp _L170
 661  021C  2800     R  	jmp _L219
 661  021D              _L165:
 648  021D              #line 648 "e:\x-sense_svn\xp02\xp02\src\main.c"
 648  021D              ;# 648 "e:\x-sense_svn\xp02\xp02\src\main.c" 1
 648  021D              	IF 150000>263690
 648  021D              ;# 648 "e:\x-sense_svn\xp02\xp02\src\main.c" 1
 648  021D              	ERRMESSAGE 'the value 150000of the argument exceeds the maxinum 263690'
 648  021D              	ENDIF
 648  021D              ;# 648 "e:\x-sense_svn\xp02\xp02\src\main.c" 1
 648  021D              	IF 150000<0
 648  021D              ;# 648 "e:\x-sense_svn\xp02\xp02\src\main.c" 1
 648  021D              	ERRMESSAGE 'the value 150000 of the argument exceeds the mininum 0'
 648  021D              	ENDIF
 648  021D              ;# 648 "e:\x-sense_svn\xp02\xp02\src\main.c" 1
 648  021D              	IF 150000==0
 648  021D              ;# 648 "e:\x-sense_svn\xp02\xp02\src\main.c" 1
 648  021D              	JMP $
文件：main.c       编译器版本 HGASM 0202 页次112

 648  021D              	ENDIF
 648  021D              ;# 648 "e:\x-sense_svn\xp02\xp02\src\main.c" 1
 648  021D              	IF (150000>=1) AND (150000<( 4 + __PBP__ * 2))
 648  021D              ;# 648 "e:\x-sense_svn\xp02\xp02\src\main.c" 1
 648  021D              	NOP
 648  021D              	ENDIF
 648  021D              ;# 648 "e:\x-sense_svn\xp02\xp02\src\main.c" 1
 648  021D              	IF (150000>=2) AND (150000<( 4 + __PBP__ * 2))
 648  021D              ;# 648 "e:\x-sense_svn\xp02\xp02\src\main.c" 1
 648  021D              	NOP
 648  021D              	ENDIF
 648  021D              ;# 648 "e:\x-sense_svn\xp02\xp02\src\main.c" 1
 648  021D              	IF (150000>=3) AND (150000<( 4 + __PBP__ * 2))
 648  021D              ;# 648 "e:\x-sense_svn\xp02\xp02\src\main.c" 1
 648  021D              	NOP
 648  021D              	ENDIF
 648  021D              ;# 648 "e:\x-sense_svn\xp02\xp02\src\main.c" 1
 648  021D              	IF (150000>=4) AND (150000<( 4 + __PBP__ * 2)) AND ( __PBP__ > 0 )
 648  021D              ;# 648 "e:\x-sense_svn\xp02\xp02\src\main.c" 1
 648  021D              	NOP
 648  021D              	ENDIF
 648  021D              ;# 648 "e:\x-sense_svn\xp02\xp02\src\main.c" 1
 648  021D              	IF (150000>=5) AND (150000<( 4 + __PBP__ * 2)) AND ( __PBP__ > 0 )
 648  021D              ;# 648 "e:\x-sense_svn\xp02\xp02\src\main.c" 1
 648  021D              	NOP
 648  021D              	ENDIF
 648  021D              ;# 648 "e:\x-sense_svn\xp02\xp02\src\main.c" 1
 648  021D              	IF (150000>=6) AND (150000<( 4 + __PBP__ * 2))  AND ( __PBP__ > 1 )
 648  021D              ;# 648 "e:\x-sense_svn\xp02\xp02\src\main.c" 1
 648  021D              	NOP
 648  021D              	ENDIF
 648  021D              ;# 648 "e:\x-sense_svn\xp02\xp02\src\main.c" 1
 648  021D              	IF (150000>=7) AND (150000<( 4 + __PBP__ * 2))  AND ( __PBP__ > 1 )
 648  021D              ;# 648 "e:\x-sense_svn\xp02\xp02\src\main.c" 1
 648  021D              	NOP
 648  021D              	ENDIF
 648  021D              ;# 648 "e:\x-sense_svn\xp02\xp02\src\main.c" 1
 648  021D              	IF (150000>=8) AND (150000<( 4 + __PBP__ * 2))  AND ( __PBP__ > 2 )
 648  021D              ;# 648 "e:\x-sense_svn\xp02\xp02\src\main.c" 1
 648  021D              	NOP
 648  021D              	ENDIF
 648  021D              ;# 648 "e:\x-sense_svn\xp02\xp02\src\main.c" 1
 648  021D              	IF (150000==9)  AND ( __PBP__ > 2 )
 648  021D              ;# 648 "e:\x-sense_svn\xp02\xp02\src\main.c" 1
 648  021D              	NOP
 648  021D              	ENDIF
 648  021D              ;# 648 "e:\x-sense_svn\xp02\xp02\src\main.c" 1
 648  021D              	IF (150000< ( 8 + __PBP__ * 2)) AND (150000>( 3 + __PBP__ * 2))
 648  021D              ;# 648 "e:\x-sense_svn\xp02\xp02\src\main.c" 1
 648  021D              	fcall __DELAY3 + ( 7 + __PBP__ * 2) -150000
 648  021D              	ENDIF
 648  021D              ;# 648 "e:\x-sense_svn\xp02\xp02\src\main.c" 1
 648  021D              	IF (150000< ( 0404h + __PBP__ * 2)) AND (150000>( 7 + __PBP__ * 2))
 648  021D              ;# 648 "e:\x-sense_svn\xp02\xp02\src\main.c" 1
 648  021D              	MOV A,(150000-( 4 + __PBP__ * 2))/4
 648  021D              ;# 648 "e:\x-sense_svn\xp02\xp02\src\main.c" 1
 648  021D              	fcall __DELAYX3 + 3 -((150000-( 4 + __PBP__ * 2)) MOD 4) 
 648  021D              	ENDIF
 648  021D              ;# 648 "e:\x-sense_svn\xp02\xp02\src\main.c" 1
 648  021D              	IF (150000< ( 040bh + __PBP__ * 2)) AND (150000> ( 0403h + __PBP__ * 2))
文件：main.c       编译器版本 HGASM 0202 页次113

 648  021D              ;# 648 "e:\x-sense_svn\xp02\xp02\src\main.c" 1
 648  021D              	MOV A,0 
 648  021D              ;# 648 "e:\x-sense_svn\xp02\xp02\src\main.c" 1
 648  021D              	fcall __DELAYX6 + ( 040ah + __PBP__ * 2) -150000
 648  021D              	ENDIF
 648  021D              ;# 648 "e:\x-sense_svn\xp02\xp02\src\main.c" 1
 648  021D              	IF (150000 >= ( 040bh + __PBP__ * 2)) AND ((((150000-( 9 + __PBP__ * 2))%0402h)/4+1)>256)
 648  021D              ;# 648 "e:\x-sense_svn\xp02\xp02\src\main.c" 1
 648  021D              	MOV A,(150000-( 9 + __PBP__ * 2))/0402h
 648  021D              ;# 648 "e:\x-sense_svn\xp02\xp02\src\main.c" 1
 648  021D              	MOV _builtin_holtek_delay_2,A
 648  021D              ;# 648 "e:\x-sense_svn\xp02\xp02\src\main.c" 1
 648  021D              	MOV A,0
 648  021D              ;# 648 "e:\x-sense_svn\xp02\xp02\src\main.c" 1
 648  021D              	fcall __DELAYY5 +5- (((150000-( 9 + __PBP__ * 2))%0402h)%6) 
 648  021D              	ENDIF
 648  021D              ;# 648 "e:\x-sense_svn\xp02\xp02\src\main.c" 1
 648  021D              	IF (150000 >= ( 040bh + __PBP__ * 2)) AND ((((150000-( 9 + __PBP__ * 2))%0402h)/4+1)<=256)
 648  021D              ;# 648 "e:\x-sense_svn\xp02\xp02\src\main.c" 1
 648  021D  0F92        	MOV A,(150000-( 9 + __PBP__ * 2))/0402h
 648  021E              ;# 648 "e:\x-sense_svn\xp02\xp02\src\main.c" 1
 648  021E  0080     E  	MOV _builtin_holtek_delay_2,A
 648  021F              ;# 648 "e:\x-sense_svn\xp02\xp02\src\main.c" 1
 648  021F  0F31        	MOV A,((150000-( 9 + __PBP__ * 2))%0402h)/4+1
 648  0220              ;# 648 "e:\x-sense_svn\xp02\xp02\src\main.c" 1
 648  0220              	fcall __DELAYY3 +3-(((150000-( 9 + __PBP__ * 2))%0402h)%4) 
 648  0227              	ENDIF
 649  0227              #line 649 "e:\x-sense_svn\xp02\xp02\src\main.c"
 649  0227  3C14        	sz [20].0
 649  0228  2800     R  	jmp _L168
 649  0229  0F08        	mov a,8
 649  022A  0080     R  	mov _main_2[0],a
 649  022B              _L169:
 653  022B              #line 653 "e:\x-sense_svn\xp02\xp02\src\main.c"
 653  022B  1F00     E  	clr _SpeakerSendCmd_2[0]
 653  022C  1F00     E  	clr _SpeakerSendCmd_2[1]
 653  022D  1F00     E  	clr _SpeakerSendCmd_2[2]
 653  022E  1F00     E  	clr _SpeakerSendCmd_2[3]
 653  022F              	fcall _SpeakerSendCmd
 654  0236              #line 654 "e:\x-sense_svn\xp02\xp02\src\main.c"
 654  0236              ;# 654 "e:\x-sense_svn\xp02\xp02\src\main.c" 1
 654  0236  0001        	clr wdt
 654  0237  1780     R  	sdz _main_2[0]
 654  0238  2800     R  	jmp _L169
 654  0239  2800     R  	jmp _L168
 654  023A              _L219:
 661  023A              #line 661 "e:\x-sense_svn\xp02\xp02\src\main.c"
 661  023A              	fcall _LoadSmokeData
 661  0241  0700     E  	mov a,ra
 661  0242  0C01        	xor a,1
 661  0243  0500     E  	or a,rb
 661  0244  390A        	snz z
 661  0245  2800     R  	jmp _L170
 662  0246              #line 662 "e:\x-sense_svn\xp02\xp02\src\main.c"
 662  0246              	fcall _LoadCOData
 661  024D              #line 661 "e:\x-sense_svn\xp02\xp02\src\main.c"
 661  024D  0700     E  	mov a,ra
 661  024E  0C01        	xor a,1
 661  024F  0500     E  	or a,rb
 661  0250  390A        	snz z
文件：main.c       编译器版本 HGASM 0202 页次114

 661  0251  2800     R  	jmp _L170
 667  0252              #line 667 "e:\x-sense_svn\xp02\xp02\src\main.c"
 667  0252              ;# 667 "e:\x-sense_svn\xp02\xp02\src\main.c" 1
 667  0252              	IF 150000>263690
 667  0252              ;# 667 "e:\x-sense_svn\xp02\xp02\src\main.c" 1
 667  0252              	ERRMESSAGE 'the value 150000of the argument exceeds the maxinum 263690'
 667  0252              	ENDIF
 667  0252              ;# 667 "e:\x-sense_svn\xp02\xp02\src\main.c" 1
 667  0252              	IF 150000<0
 667  0252              ;# 667 "e:\x-sense_svn\xp02\xp02\src\main.c" 1
 667  0252              	ERRMESSAGE 'the value 150000 of the argument exceeds the mininum 0'
 667  0252              	ENDIF
 667  0252              ;# 667 "e:\x-sense_svn\xp02\xp02\src\main.c" 1
 667  0252              	IF 150000==0
 667  0252              ;# 667 "e:\x-sense_svn\xp02\xp02\src\main.c" 1
 667  0252              	JMP $
 667  0252              	ENDIF
 667  0252              ;# 667 "e:\x-sense_svn\xp02\xp02\src\main.c" 1
 667  0252              	IF (150000>=1) AND (150000<( 4 + __PBP__ * 2))
 667  0252              ;# 667 "e:\x-sense_svn\xp02\xp02\src\main.c" 1
 667  0252              	NOP
 667  0252              	ENDIF
 667  0252              ;# 667 "e:\x-sense_svn\xp02\xp02\src\main.c" 1
 667  0252              	IF (150000>=2) AND (150000<( 4 + __PBP__ * 2))
 667  0252              ;# 667 "e:\x-sense_svn\xp02\xp02\src\main.c" 1
 667  0252              	NOP
 667  0252              	ENDIF
 667  0252              ;# 667 "e:\x-sense_svn\xp02\xp02\src\main.c" 1
 667  0252              	IF (150000>=3) AND (150000<( 4 + __PBP__ * 2))
 667  0252              ;# 667 "e:\x-sense_svn\xp02\xp02\src\main.c" 1
 667  0252              	NOP
 667  0252              	ENDIF
 667  0252              ;# 667 "e:\x-sense_svn\xp02\xp02\src\main.c" 1
 667  0252              	IF (150000>=4) AND (150000<( 4 + __PBP__ * 2)) AND ( __PBP__ > 0 )
 667  0252              ;# 667 "e:\x-sense_svn\xp02\xp02\src\main.c" 1
 667  0252              	NOP
 667  0252              	ENDIF
 667  0252              ;# 667 "e:\x-sense_svn\xp02\xp02\src\main.c" 1
 667  0252              	IF (150000>=5) AND (150000<( 4 + __PBP__ * 2)) AND ( __PBP__ > 0 )
 667  0252              ;# 667 "e:\x-sense_svn\xp02\xp02\src\main.c" 1
 667  0252              	NOP
 667  0252              	ENDIF
 667  0252              ;# 667 "e:\x-sense_svn\xp02\xp02\src\main.c" 1
 667  0252              	IF (150000>=6) AND (150000<( 4 + __PBP__ * 2))  AND ( __PBP__ > 1 )
 667  0252              ;# 667 "e:\x-sense_svn\xp02\xp02\src\main.c" 1
 667  0252              	NOP
 667  0252              	ENDIF
 667  0252              ;# 667 "e:\x-sense_svn\xp02\xp02\src\main.c" 1
 667  0252              	IF (150000>=7) AND (150000<( 4 + __PBP__ * 2))  AND ( __PBP__ > 1 )
 667  0252              ;# 667 "e:\x-sense_svn\xp02\xp02\src\main.c" 1
 667  0252              	NOP
 667  0252              	ENDIF
 667  0252              ;# 667 "e:\x-sense_svn\xp02\xp02\src\main.c" 1
 667  0252              	IF (150000>=8) AND (150000<( 4 + __PBP__ * 2))  AND ( __PBP__ > 2 )
 667  0252              ;# 667 "e:\x-sense_svn\xp02\xp02\src\main.c" 1
 667  0252              	NOP
 667  0252              	ENDIF
 667  0252              ;# 667 "e:\x-sense_svn\xp02\xp02\src\main.c" 1
 667  0252              	IF (150000==9)  AND ( __PBP__ > 2 )
 667  0252              ;# 667 "e:\x-sense_svn\xp02\xp02\src\main.c" 1
文件：main.c       编译器版本 HGASM 0202 页次115

 667  0252              	NOP
 667  0252              	ENDIF
 667  0252              ;# 667 "e:\x-sense_svn\xp02\xp02\src\main.c" 1
 667  0252              	IF (150000< ( 8 + __PBP__ * 2)) AND (150000>( 3 + __PBP__ * 2))
 667  0252              ;# 667 "e:\x-sense_svn\xp02\xp02\src\main.c" 1
 667  0252              	fcall __DELAY3 + ( 7 + __PBP__ * 2) -150000
 667  0252              	ENDIF
 667  0252              ;# 667 "e:\x-sense_svn\xp02\xp02\src\main.c" 1
 667  0252              	IF (150000< ( 0404h + __PBP__ * 2)) AND (150000>( 7 + __PBP__ * 2))
 667  0252              ;# 667 "e:\x-sense_svn\xp02\xp02\src\main.c" 1
 667  0252              	MOV A,(150000-( 4 + __PBP__ * 2))/4
 667  0252              ;# 667 "e:\x-sense_svn\xp02\xp02\src\main.c" 1
 667  0252              	fcall __DELAYX3 + 3 -((150000-( 4 + __PBP__ * 2)) MOD 4) 
 667  0252              	ENDIF
 667  0252              ;# 667 "e:\x-sense_svn\xp02\xp02\src\main.c" 1
 667  0252              	IF (150000< ( 040bh + __PBP__ * 2)) AND (150000> ( 0403h + __PBP__ * 2))
 667  0252              ;# 667 "e:\x-sense_svn\xp02\xp02\src\main.c" 1
 667  0252              	MOV A,0 
 667  0252              ;# 667 "e:\x-sense_svn\xp02\xp02\src\main.c" 1
 667  0252              	fcall __DELAYX6 + ( 040ah + __PBP__ * 2) -150000
 667  0252              	ENDIF
 667  0252              ;# 667 "e:\x-sense_svn\xp02\xp02\src\main.c" 1
 667  0252              	IF (150000 >= ( 040bh + __PBP__ * 2)) AND ((((150000-( 9 + __PBP__ * 2))%0402h)/4+1)>256)
 667  0252              ;# 667 "e:\x-sense_svn\xp02\xp02\src\main.c" 1
 667  0252              	MOV A,(150000-( 9 + __PBP__ * 2))/0402h
 667  0252              ;# 667 "e:\x-sense_svn\xp02\xp02\src\main.c" 1
 667  0252              	MOV _builtin_holtek_delay_2,A
 667  0252              ;# 667 "e:\x-sense_svn\xp02\xp02\src\main.c" 1
 667  0252              	MOV A,0
 667  0252              ;# 667 "e:\x-sense_svn\xp02\xp02\src\main.c" 1
 667  0252              	fcall __DELAYY5 +5- (((150000-( 9 + __PBP__ * 2))%0402h)%6) 
 667  0252              	ENDIF
 667  0252              ;# 667 "e:\x-sense_svn\xp02\xp02\src\main.c" 1
 667  0252              	IF (150000 >= ( 040bh + __PBP__ * 2)) AND ((((150000-( 9 + __PBP__ * 2))%0402h)/4+1)<=256)
 667  0252              ;# 667 "e:\x-sense_svn\xp02\xp02\src\main.c" 1
 667  0252  0F92        	MOV A,(150000-( 9 + __PBP__ * 2))/0402h
 667  0253              ;# 667 "e:\x-sense_svn\xp02\xp02\src\main.c" 1
 667  0253  0080     E  	MOV _builtin_holtek_delay_2,A
 667  0254              ;# 667 "e:\x-sense_svn\xp02\xp02\src\main.c" 1
 667  0254  0F31        	MOV A,((150000-( 9 + __PBP__ * 2))%0402h)/4+1
 667  0255              ;# 667 "e:\x-sense_svn\xp02\xp02\src\main.c" 1
 667  0255              	fcall __DELAYY3 +3-(((150000-( 9 + __PBP__ * 2))%0402h)%4) 
 667  025C              	ENDIF
 668  025C              #line 668 "e:\x-sense_svn\xp02\xp02\src\main.c"
 668  025C  3E14        	sz [20].4
 668  025D  2800     R  	jmp _L170
 670  025E              #line 670 "e:\x-sense_svn\xp02\xp02\src\main.c"
 670  025E  0F0B        	mov a,11
 670  025F  0080     R  	mov _SysAO[0],a
 670  0260  1F00     R  	clr _SysAO[1]
 671  0261              #line 671 "e:\x-sense_svn\xp02\xp02\src\main.c"
 671  0261  0F01        	mov a,1
 671  0262  0080     R  	mov _SysteSetSig_2[0],a
 671  0263  1F00     R  	clr _SysteSetSig_2[1]
 671  0264              	fcall _SysteSetSig
 671  026B              _L170:
 674  026B              #line 674 "e:\x-sense_svn\xp02\xp02\src\main.c"
 674  026B  3216        	set [22].4
 674  026C              _L171:
 674  026C              #pragma debug scope 39 38
文件：main.c       编译器版本 HGASM 0202 页次116

 674  026C              #pragma debug scope 38 1
1555  026C              #line 1555 "e:\x-sense_svn\xp02\xp02\src\main.c"
1555  026C              ;# 1555 "e:\x-sense_svn\xp02\xp02\src\main.c" 1
1555  026C  0001        	clr wdt
1556  026D              #line 1556 "e:\x-sense_svn\xp02\xp02\src\main.c"
1556  026D              	fcall _Polling
1558  0274              #line 1558 "e:\x-sense_svn\xp02\xp02\src\main.c"
1558  0274              	fcall _PollingUartSend
1560  027B              #line 1560 "e:\x-sense_svn\xp02\xp02\src\main.c"
1560  027B              	fcall _KeyHandleMsg
1562  0282              #line 1562 "e:\x-sense_svn\xp02\xp02\src\main.c"
1562  0282              	fcall _UartService
1564  0289              #line 1564 "e:\x-sense_svn\xp02\xp02\src\main.c"
1564  0289              	fcall _SysteGetSig
1564  0290  0700     E  	mov a,ra
1564  0291  0080     R  	mov _SysAO[4],a
1564  0292  0700     E  	mov a,rb
1564  0293  0080     R  	mov _SysAO[5],a
1565  0294              #line 1565 "e:\x-sense_svn\xp02\xp02\src\main.c"
1565  0294  0700     E  	mov a,ra
1565  0295  0500     E  	or a,rb
1565  0296  3D0A        	sz z
1565  0297  2800     R  	jmp _L172
1572  0298              #line 1572 "e:\x-sense_svn\xp02\xp02\src\main.c"
1572  0298  0700     R  	mov a,_SysAO[0]
1572  0299  0080     E  	mov rb,a
1572  029A  0700     R  	mov a,_SysAO[1]
1572  029B  0080     E  	mov rc,a
1572  029C  0700     E  	mov a,rb
1572  029D  0500     E  	or a,rc
1572  029E  3D0A        	sz z
1572  029F  2800     R  	jmp _L174
1572  02A0  0700     E  	mov a,rb
1572  02A1  0C01        	xor a,1
1572  02A2  0500     E  	or a,rc
1572  02A3  3D0A        	sz z
1572  02A4  2800     R  	jmp _L175
1572  02A5  0700     E  	mov a,rb
1572  02A6  0C02        	xor a,2
1572  02A7  0500     E  	or a,rc
1572  02A8  3D0A        	sz z
1572  02A9  2800     R  	jmp _L176
1572  02AA  0700     E  	mov a,rb
1572  02AB  0C03        	xor a,3
1572  02AC  0500     E  	or a,rc
1572  02AD  3D0A        	sz z
1572  02AE  2800     R  	jmp _L177
1572  02AF  0700     E  	mov a,rb
1572  02B0  0C04        	xor a,4
1572  02B1  0500     E  	or a,rc
1572  02B2  3D0A        	sz z
1572  02B3  2800     R  	jmp _L178
1572  02B4  0700     E  	mov a,rb
1572  02B5  0C05        	xor a,5
1572  02B6  0500     E  	or a,rc
1572  02B7  3D0A        	sz z
1572  02B8  2800     R  	jmp _L179
1572  02B9  0700     E  	mov a,rb
1572  02BA  0C06        	xor a,6
1572  02BB  0500     E  	or a,rc
文件：main.c       编译器版本 HGASM 0202 页次117

1572  02BC  3D0A        	sz z
1572  02BD  2800     R  	jmp _L180
1572  02BE  0700     E  	mov a,rb
1572  02BF  0C07        	xor a,7
1572  02C0  0500     E  	or a,rc
1572  02C1  3D0A        	sz z
1572  02C2  2800     R  	jmp _L181
1572  02C3  0700     E  	mov a,rb
1572  02C4  0C08        	xor a,8
1572  02C5  0500     E  	or a,rc
1572  02C6  3D0A        	sz z
1572  02C7  2800     R  	jmp _L182
1572  02C8  0700     E  	mov a,rb
1572  02C9  0C09        	xor a,9
1572  02CA  0500     E  	or a,rc
1572  02CB  3D0A        	sz z
1572  02CC  2800     R  	jmp _L183
1572  02CD  0700     E  	mov a,rb
1572  02CE  0C0A        	xor a,10
1572  02CF  0500     E  	or a,rc
1572  02D0  3D0A        	sz z
1572  02D1  2800     R  	jmp _L184
1572  02D2  0700     E  	mov a,rb
1572  02D3  0C0B        	xor a,11
1572  02D4  0500     E  	or a,rc
1572  02D5  3D0A        	sz z
1572  02D6  2800     R  	jmp _L185
1572  02D7  0700     E  	mov a,rb
1572  02D8  0C0C        	xor a,12
1572  02D9  0500     E  	or a,rc
1572  02DA  3D0A        	sz z
1572  02DB  2800     R  	jmp _L185
1572  02DC  0700     E  	mov a,rb
1572  02DD  0C0D        	xor a,13
1572  02DE  0500     E  	or a,rc
1572  02DF  3D0A        	sz z
1572  02E0  2800     R  	jmp _L185
1572  02E1  0700     E  	mov a,rb
1572  02E2  0C0E        	xor a,14
1572  02E3  0500     E  	or a,rc
1572  02E4  3D0A        	sz z
1572  02E5  2800     R  	jmp _L185
1572  02E6  0700     E  	mov a,rb
1572  02E7  0C0F        	xor a,15
1572  02E8  0500     E  	or a,rc
1572  02E9  3D0A        	sz z
1572  02EA  2800     R  	jmp _L186
1572  02EB  0700     E  	mov a,rb
1572  02EC  0C10        	xor a,16
1572  02ED  0500     E  	or a,rc
1572  02EE  3D0A        	sz z
1572  02EF  2800     R  	jmp _L187
1572  02F0  0700     E  	mov a,rb
1572  02F1  0C11        	xor a,17
1572  02F2  0500     E  	or a,rc
1572  02F3  3D0A        	sz z
1572  02F4  2800     R  	jmp _L176
1572  02F5  0700     E  	mov a,rb
1572  02F6  0C12        	xor a,18
1572  02F7  0500     E  	or a,rc
文件：main.c       编译器版本 HGASM 0202 页次118

1572  02F8  3D0A        	sz z
1572  02F9  2800     R  	jmp _L188
1572  02FA  0700     E  	mov a,rb
1572  02FB  0C13        	xor a,19
1572  02FC  0500     E  	or a,rc
1572  02FD  3D0A        	sz z
1572  02FE  2800     R  	jmp _L188
1572  02FF  0700     E  	mov a,rb
1572  0300  0C14        	xor a,20
1572  0301  0500     E  	or a,rc
1572  0302  390A        	snz z
1572  0303  2800     R  	jmp _L173
1651  0304              #line 1651 "e:\x-sense_svn\xp02\xp02\src\main.c"
1651  0304              	fcall _LocationSettingMain
1652  030B              #line 1652 "e:\x-sense_svn\xp02\xp02\src\main.c"
1652  030B  2800     R  	jmp _L173
1652  030C              _L174:
1576  030C              #line 1576 "e:\x-sense_svn\xp02\xp02\src\main.c"
1576  030C              	fcall _NormalMain
1577  0313              #line 1577 "e:\x-sense_svn\xp02\xp02\src\main.c"
1577  0313  2800     R  	jmp _L173
1577  0314              _L175:
1580  0314              #line 1580 "e:\x-sense_svn\xp02\xp02\src\main.c"
1580  0314              	fcall _SmokeCaliMain
1581  031B              #line 1581 "e:\x-sense_svn\xp02\xp02\src\main.c"
1581  031B  2800     R  	jmp _L173
1581  031C              _L176:
1587  031C              #line 1587 "e:\x-sense_svn\xp02\xp02\src\main.c"
1587  031C              	fcall _SmokeTestMain
1588  0323              #line 1588 "e:\x-sense_svn\xp02\xp02\src\main.c"
1588  0323  2800     R  	jmp _L173
1588  0324              _L177:
1591  0324              #line 1591 "e:\x-sense_svn\xp02\xp02\src\main.c"
1591  0324              	fcall _SmokeAlarmMain
1592  032B              #line 1592 "e:\x-sense_svn\xp02\xp02\src\main.c"
1592  032B  2800     R  	jmp _L173
1592  032C              _L178:
1595  032C              #line 1595 "e:\x-sense_svn\xp02\xp02\src\main.c"
1595  032C              	fcall _SmokeMuteMain
1596  0333              #line 1596 "e:\x-sense_svn\xp02\xp02\src\main.c"
1596  0333  2800     R  	jmp _L173
1596  0334              _L179:
1599  0334              #line 1599 "e:\x-sense_svn\xp02\xp02\src\main.c"
1599  0334              	fcall _SmokeErrMain
1600  033B              #line 1600 "e:\x-sense_svn\xp02\xp02\src\main.c"
1600  033B  2800     R  	jmp _L173
1600  033C              _L180:
1605  033C              #line 1605 "e:\x-sense_svn\xp02\xp02\src\main.c"
1605  033C              	fcall _CoCaliMain
1606  0343              #line 1606 "e:\x-sense_svn\xp02\xp02\src\main.c"
1606  0343  2800     R  	jmp _L173
1606  0344              _L181:
1610  0344              #line 1610 "e:\x-sense_svn\xp02\xp02\src\main.c"
1610  0344              	fcall _CoTestMain
1611  034B              #line 1611 "e:\x-sense_svn\xp02\xp02\src\main.c"
1611  034B  2800     R  	jmp _L173
1611  034C              _L182:
1615  034C              #line 1615 "e:\x-sense_svn\xp02\xp02\src\main.c"
1615  034C              	fcall _CoAlarmMain
1616  0353              #line 1616 "e:\x-sense_svn\xp02\xp02\src\main.c"
文件：main.c       编译器版本 HGASM 0202 页次119

1616  0353  2800     R  	jmp _L173
1616  0354              _L184:
1619  0354              #line 1619 "e:\x-sense_svn\xp02\xp02\src\main.c"
1619  0354              	fcall _CoErrMain
1620  035B              #line 1620 "e:\x-sense_svn\xp02\xp02\src\main.c"
1620  035B  2800     R  	jmp _L173
1620  035C              _L183:
1623  035C              #line 1623 "e:\x-sense_svn\xp02\xp02\src\main.c"
1623  035C              	fcall _CoMuteMain
1624  0363              #line 1624 "e:\x-sense_svn\xp02\xp02\src\main.c"
1624  0363  2800     R  	jmp _L173
1624  0364              _L185:
1632  0364              #line 1632 "e:\x-sense_svn\xp02\xp02\src\main.c"
1632  0364  0700     E  	mov a,rb
1632  0365              	fcall _RfPairMain
1633  036C              #line 1633 "e:\x-sense_svn\xp02\xp02\src\main.c"
1633  036C  2800     R  	jmp _L173
1633  036D              _L186:
1636  036D              #line 1636 "e:\x-sense_svn\xp02\xp02\src\main.c"
1636  036D              	fcall _RfSmokeAlarmMain
1637  0374              #line 1637 "e:\x-sense_svn\xp02\xp02\src\main.c"
1637  0374  2800     R  	jmp _L173
1637  0375              _L187:
1640  0375              #line 1640 "e:\x-sense_svn\xp02\xp02\src\main.c"
1640  0375              	fcall _RfCoAlarmMain
1641  037C              #line 1641 "e:\x-sense_svn\xp02\xp02\src\main.c"
1641  037C  2800     R  	jmp _L173
1641  037D              _L188:
1645  037D              #line 1645 "e:\x-sense_svn\xp02\xp02\src\main.c"
1645  037D  0700     E  	mov a,rb
1645  037E              	fcall _RfIntranetTestMain
1645  0385              _L173:
1659  0385              #line 1659 "e:\x-sense_svn\xp02\xp02\src\main.c"
1659  0385  0700     R  	mov a,_SysAO[2]
1659  0386  0200     R  	sub a,_SysAO[0]
1659  0387  0700     R  	mov a,_SysAO[3]
1659  0388  1200     R  	sbc a,_SysAO[1]
1659  0389  3F0A        	sz cz
1659  038A  2800     R  	jmp _L171
1661  038B              #line 1661 "e:\x-sense_svn\xp02\xp02\src\main.c"
1661  038B  0F01        	mov a,1
1661  038C  0080     R  	mov _SysteSetSig_2[0],a
1661  038D  1F00     R  	clr _SysteSetSig_2[1]
1661  038E              	fcall _SysteSetSig
1662  0395              #line 1662 "e:\x-sense_svn\xp02\xp02\src\main.c"
1662  0395  0700     R  	mov a,_SysAO[0]
1662  0396  0080     R  	mov _SysAO[2],a
1662  0397  0700     R  	mov a,_SysAO[1]
1662  0398  0080     R  	mov _SysAO[3],a
1662  0399  2800     R  	jmp _L171
1662  039A              _L172:
1665  039A              #line 1665 "e:\x-sense_svn\xp02\xp02\src\main.c"
1665  039A  0700     R  	mov a,_SysAO[25]
1665  039B  0500     R  	or a,_SysAO[26]
1665  039C  0500     R  	or a,_SysAO[27]
1665  039D  0500     R  	or a,_SysAO[28]
1665  039E  390A        	snz z
1665  039F  2800     R  	jmp _L171
1667  03A0              #line 1667 "e:\x-sense_svn\xp02\xp02\src\main.c"
1667  03A0              	fcall _EnteryLowPower
文件：main.c       编译器版本 HGASM 0202 页次120

1667  03A7  2800     R  	jmp _L171
1667  03A8  2800     R  	jmp $
1667  03A9              _main endp
1667  03A9              
1667  03A9              @dummy endp
1667  03A9              
1667  03A9              #line 1667 "e:\x-sense_svn\xp02\xp02\src\main.c"
1667  03A9              #pragma debug scope 1 1
1667  0000              @HCCINIT	.section 'data'
1324  0000              #line 1324 "e:\x-sense_svn\xp02\xp02\src\main.c"
1324  0000              @HCCINIT___SetLocation_3318 .section 'data'
1324  0000              ___SetLocation_3318 label byte
1324  0000              #pragma debug variable 8 30 ___SetLocation_3318 "SetLocation"
1324  0000              	db 7
1324  0000              @ROMDATA_BASE .section inpage 'code'
1324  0000              	db 7
1324  0001              @HCCINIT___SetLocation_3318 .section 'data'
1323  0001              #line 1323 "e:\x-sense_svn\xp02\xp02\src\main.c"
1323  0000              @HCCINIT___Flag_3317 .section 'data'
1323  0000              ___Flag_3317 label byte
1323  0000              #pragma debug variable 12 30 ___Flag_3317 "Flag"
1323  0000              	db 0
1323  0001              @ROMDATA_BASE .section inpage 'code'
1323  0001              	db 0
1323  0001              @HCCINIT___Flag_3317 .section 'data'
1323  0001              	db 0
1323  0001              @ROMDATA_BASE .section inpage 'code'
1323  0001              	db 0
1323  0002              @HCCINIT___Flag_3317 .section 'data'
 700  0002              #line 700 "e:\x-sense_svn\xp02\xp02\src\main.c"
 700  0000              @HCCINIT___lastTick10ms_3194 .section 'data'
 700  0000              ___lastTick10ms_3194 label byte
 700  0000              #pragma debug variable 10 5 ___lastTick10ms_3194 "lastTick10ms"
 700  0000              	db 0
 700  0002              @ROMDATA_BASE .section inpage 'code'
 700  0002              	db 0
 700  0001              @HCCINIT___lastTick10ms_3194 .section 'data'
 700  0001              	db 0
 700  0002              @ROMDATA_BASE .section inpage 'code'
 700  0002              	db 0
 700  0002              @HCCINIT___lastTick10ms_3194 .section 'data'
  25  0002              #line 25 "e:\x-sense_svn\xp02\xp02\src\main.c"
  25  0002              public _SysAO
  25  0000              @HCCINIT0_SysAO .section 'data'
  25  0000  003B[       _SysAO	db 59 dup(0)
            00
            ]
  25  003B              #pragma debug struct_end
  25  003B              #pragma debug struct_end
  25  003B              #pragma debug struct_end
  25  003B              #pragma debug struct_end
  25  003B              #pragma debug variable 45 1 _SysAO "SysAO"
  25  003B              
  25  0000              @HCCINIT .section 'data'
  25  0000              public _SMOKE_ALARM_LEVEL
  23  0000              #line 23 "e:\x-sense_svn\xp02\xp02\src\main.c"
  23  0000              @HCCINIT_SMOKE_ALARM_LEVEL .section 'data'
  23  0000              _SMOKE_ALARM_LEVEL label byte
  23  0000              #pragma debug variable 10 1 _SMOKE_ALARM_LEVEL "SMOKE_ALARM_LEVEL"
  23  0000              	dw 510
文件：main.c       编译器版本 HGASM 0202 页次121

  23  0003              @ROMDATA_BASE .section inpage 'code'
  23  0003  01FE        	dc 510
  23  0002              @HCCINIT_SMOKE_ALARM_LEVEL .section 'data'
  23  0002              #pragma debug struct_end
  23  0002              #pragma debug struct_end
  23  0002              #pragma debug union_end
  23  0002              #pragma debug union_end
  23  0002              #pragma debug variable 47 1 ___scc "__scc" 1
  23  0002              #pragma debug struct_end
  23  0002              #pragma debug struct_end
  23  0002              #pragma debug union_end
  23  0002              #pragma debug union_end
  23  0002              #pragma debug variable 49 1 ___hircc "__hircc" 1
  23  0002              #pragma debug struct_end
  23  0002              #pragma debug struct_end
  23  0002              #pragma debug union_end
  23  0002              #pragma debug union_end
  23  0002              #pragma debug variable 51 1 ___pa "__pa" 1
  23  0002              #pragma debug struct_end
  23  0002              #pragma debug struct_end
  23  0002              #pragma debug union_end
  23  0002              #pragma debug union_end
  23  0002              #pragma debug variable 53 1 ___pac "__pac" 1
  23  0002              #pragma debug struct_end
  23  0002              #pragma debug struct_end
  23  0002              #pragma debug union_end
  23  0002              #pragma debug union_end
  23  0002              #pragma debug variable 55 1 ___papu "__papu" 1
  23  0002              #pragma debug struct_end
  23  0002              #pragma debug struct_end
  23  0002              #pragma debug union_end
  23  0002              #pragma debug union_end
  23  0002              #pragma debug variable 57 1 ___pawu "__pawu" 1
  23  0002              #pragma debug struct_end
  23  0002              #pragma debug struct_end
  23  0002              #pragma debug union_end
  23  0002              #pragma debug union_end
  23  0002              #pragma debug variable 59 1 ___pb "__pb" 1
  23  0002              #pragma debug struct_end
  23  0002              #pragma debug struct_end
  23  0002              #pragma debug union_end
  23  0002              #pragma debug union_end
  23  0002              #pragma debug variable 61 1 ___pbc "__pbc" 1
  23  0002              #pragma debug struct_end
  23  0002              #pragma debug struct_end
  23  0002              #pragma debug union_end
  23  0002              #pragma debug union_end
  23  0002              #pragma debug variable 63 1 ___pbpu "__pbpu" 1
  23  0002              #pragma debug struct_end
  23  0002              #pragma debug struct_end
  23  0002              #pragma debug union_end
  23  0002              #pragma debug union_end
  23  0002              #pragma debug variable 65 1 ___pc "__pc" 1
  23  0002              #pragma debug struct_end
  23  0002              #pragma debug struct_end
  23  0002              #pragma debug union_end
  23  0002              #pragma debug union_end
  23  0002              #pragma debug variable 67 1 ___pcc "__pcc" 1
  23  0002              #pragma debug struct_end
  23  0002              #pragma debug struct_end
文件：main.c       编译器版本 HGASM 0202 页次122

  23  0002              #pragma debug union_end
  23  0002              #pragma debug union_end
  23  0002              #pragma debug variable 69 1 ___pcpu "__pcpu" 1
  23  0002              #pragma debug struct_end
  23  0002              #pragma debug struct_end
  23  0002              #pragma debug union_end
  23  0002              #pragma debug union_end
  23  0002              #pragma debug variable 71 1 ___pd "__pd" 1
  23  0002              #pragma debug struct_end
  23  0002              #pragma debug struct_end
  23  0002              #pragma debug union_end
  23  0002              #pragma debug union_end
  23  0002              #pragma debug variable 73 1 ___pdc "__pdc" 1
  23  0002              #pragma debug struct_end
  23  0002              #pragma debug struct_end
  23  0002              #pragma debug union_end
  23  0002              #pragma debug union_end
  23  0002              #pragma debug variable 75 1 ___pdpu "__pdpu" 1
  23  0002              #pragma debug struct_end
  23  0002              #pragma debug struct_end
  23  0002              #pragma debug union_end
  23  0002              #pragma debug union_end
  23  0002              #pragma debug variable 77 1 ___wdtc "__wdtc" 1
  23  0002              #pragma debug struct_end
  23  0002              #pragma debug struct_end
  23  0002              #pragma debug union_end
  23  0002              #pragma debug union_end
  23  0002              #pragma debug variable 79 1 ___integ "__integ" 1
  23  0002              #pragma debug struct_end
  23  0002              #pragma debug struct_end
  23  0002              #pragma debug union_end
  23  0002              #pragma debug union_end
  23  0002              #pragma debug variable 81 1 ___intc0 "__intc0" 1
  23  0002              #pragma debug struct_end
  23  0002              #pragma debug struct_end
  23  0002              #pragma debug union_end
  23  0002              #pragma debug union_end
  23  0002              #pragma debug variable 83 1 ___intc2 "__intc2" 1
  23  0002              #pragma debug struct_end
  23  0002              #pragma debug struct_end
  23  0002              #pragma debug union_end
  23  0002              #pragma debug union_end
  23  0002              #pragma debug variable 85 1 ___pscr "__pscr" 1
  23  0002              #pragma debug struct_end
  23  0002              #pragma debug struct_end
  23  0002              #pragma debug union_end
  23  0002              #pragma debug union_end
  23  0002              #pragma debug variable 87 1 ___tb0c "__tb0c" 1
  23  0002              #pragma debug variable 8 1 ___stm0dl "__stm0dl" 1
  23  0002              #pragma debug variable 8 1 ___stm0dh "__stm0dh" 1
  23  0002              #pragma debug struct_end
  23  0002              #pragma debug struct_end
  23  0002              #pragma debug union_end
  23  0002              #pragma debug union_end
  23  0002              #pragma debug variable 89 1 ___sledc0 "__sledc0" 1
  23  0002              #pragma debug struct_end
  23  0002              #pragma debug struct_end
  23  0002              #pragma debug union_end
  23  0002              #pragma debug union_end
  23  0002              #pragma debug variable 91 1 ___sledc1 "__sledc1" 1
文件：main.c       编译器版本 HGASM 0202 页次123

  23  0002              #pragma debug struct_end
  23  0002              #pragma debug struct_end
  23  0002              #pragma debug union_end
  23  0002              #pragma debug union_end
  23  0002              #pragma debug variable 93 1 ___pas0 "__pas0" 1
  23  0002              #pragma debug struct_end
  23  0002              #pragma debug struct_end
  23  0002              #pragma debug union_end
  23  0002              #pragma debug union_end
  23  0002              #pragma debug variable 95 1 ___pas1 "__pas1" 1
  23  0002              #pragma debug struct_end
  23  0002              #pragma debug struct_end
  23  0002              #pragma debug union_end
  23  0002              #pragma debug union_end
  23  0002              #pragma debug variable 97 1 ___pbs0 "__pbs0" 1
  23  0002              #pragma debug struct_end
  23  0002              #pragma debug struct_end
  23  0002              #pragma debug union_end
  23  0002              #pragma debug union_end
  23  0002              #pragma debug variable 99 1 ___pbs1 "__pbs1" 1
  23  0002              #pragma debug struct_end
  23  0002              #pragma debug struct_end
  23  0002              #pragma debug union_end
  23  0002              #pragma debug union_end
  23  0002              #pragma debug variable 101 1 ___pcs0 "__pcs0" 1
  23  0002              #pragma debug struct_end
  23  0002              #pragma debug struct_end
  23  0002              #pragma debug union_end
  23  0002              #pragma debug union_end
  23  0002              #pragma debug variable 103 1 ___pcs1 "__pcs1" 1
  23  0002              #pragma debug struct_end
  23  0002              #pragma debug struct_end
  23  0002              #pragma debug union_end
  23  0002              #pragma debug union_end
  23  0002              #pragma debug variable 105 1 ___pds0 "__pds0" 1
  23  0002              
  23  0002              ; output external variables
  23  0002              extern _COAO:byte
  23  0002              extern _SmokeAO:byte
  23  0002              extern _PwrAO:byte
  23  0002              extern _RfAO:byte
  23  0002              extern r1:byte
  23  0002              extern r2:byte
  23  0002              extern r3:byte
1550  0002              #line 1550 "e:\x-sense_svn\xp02\xp02\src\main.c"
1550  0000              @code .section at 0 'code'
1550  0000  1F0B        	clr bp
1550  0001  2800     R  	jmp _main_startup1
1550  0002              
1550  0002              extern _printf_2:byte
1550  0002              extern _printf:near
1550  0002              extern _E2promRead:near
1550  0002              extern _builtin_holtek_udivmodhi4_2:byte
1550  0002              extern _builtin_holtek_udivmodhi4:near
1550  0002              extern _SpeakerSendCmdForPowerOn:near
1550  0002              extern _EnteryLowPower:near
1550  0002              extern _TmrInsertTimer_2:byte
1550  0002              extern _TmrInsertTimer:near
1550  0002              extern _TmrDeleteTimer_2:byte
1550  0002              extern _TmrDeleteTimer:near
文件：main.c       编译器版本 HGASM 0202 页次124

1550  0002              extern _SpeakerSendCmd_2:byte
1550  0002              extern _SpeakerSendCmd:near
1550  0002              extern _E2promWrite_2:byte
1550  0002              extern _E2promWrite:near
1550  0002              extern _GetRfPairedMode:near
1550  0002              extern _BatteryCheck:near
1550  0002              extern _SmokeAlarmCheck:near
1550  0002              extern _COSelfCheck_2:byte
1550  0002              extern _COSelfCheck:near
1550  0002              extern _CoAlarmCheck:near
1550  0002              extern _GetTempIndex:near
1550  0002              extern _STimerInit:near
1550  0002              extern _TmrInitHeader:near
1550  0002              extern _UsartCfg:near
1550  0002              extern _KeyInit:near
1550  0002              extern _PwrInit:near
1550  0002              extern _SmokeDetInit:near
1550  0002              extern _InitCO_Data:near
1550  0002              extern _BatteryCheckHandle:near
1550  0002              extern _SpeakerInit:near
1550  0002              extern _RfInit:near
1550  0002              extern _LoadSmokeData:near
1550  0002              extern _LoadCOData:near
1550  0002              extern _Polling:near
1550  0002              extern _PollingUartSend:near
1550  0002              extern _KeyHandleMsg:near
1550  0002              extern _UartService:near
1550  0002              extern _SmokeCaliMain:near
1550  0002              extern _SmokeTestMain:near
1550  0002              extern _SmokeAlarmMain:near
1550  0002              extern _SmokeMuteMain:near
1550  0002              extern _SmokeErrMain:near
1550  0002              extern _CoCaliMain:near
1550  0002              extern _CoTestMain:near
1550  0002              extern _CoAlarmMain:near
1550  0002              extern _CoErrMain:near
1550  0002              extern _CoMuteMain:near
1550  0002              extern _RfPairMain:near
1550  0002              extern _RfSmokeAlarmMain:near
1550  0002              extern _RfCoAlarmMain:near
1550  0002              extern _RfIntranetTestMain:near
1550  0002              
1550  0002              ; 
1550  0002              ; Generated by holtek-gcc v3.19, Wed Mar 01 19:42:18 2023
1550  0002              ; Rebuild 718
1550  0002              ; end of file


        0 Errors, 0