文件：Polling.c    编译器版本 HGASM 0202 页次1


   1  0000              ; Generated by holtek-gcc v3.19, Fri Nov 11 18:10:32 2022
   2  0000              ; 
   3  0000              ; Configuration:
   4  0000              ;       with long instruction
   5  0000              ;       Multi-ROM, Multi-RAM
   6  0000              ;       bits_per_rom_unit:16
   7  0000              ;       with mp1
   8  0000              ;       with tbhp, address(0x9)
   9  0000              ;          Use tabrd-const
  10  0000              ;       
  11  0000              ; SFR address of long-instruction arch:
  12  0000              ;    mp0 = -1,1,0
  13  0000              ;    mp1 = 4,3,2
  14  0000              ;    mp2 = 14,13,12
  15  0000              ;    tbp = 9,7,8
  16  0000              ;    acc = 5
  17  0000              ;    pcl = 6
  18  0000              ;    status = 10
  19  0000              ;    bp = 11
  20  0000              ;    intc = 67
  21  0000              ;       
  22  0000              ;       
  23  0000              ; use 'tabrdc' instead of 'tabrd'
  24  0000              ;       
  25  0000              
  26  0000              #pragma translator "holtek-gcc 4.6.4" "3.19" "build 20130711"
  27  0000              ; Rebuild 718
  28  0000              
  29  0000              ir equ [2]
  30  0000              mp equ [3]
  31  0000              sbp equ [4]
  32  0000              acc equ [5]
  33  0000              bp equ [11]
  34  0000              tblp equ [7]
  35  0000              tbhp equ [9]
  36  0000              status equ [10]
  37  0000              c equ [10].0
  38  0000              ac equ [10].1
  39  0000              z equ [10].2
  40  0000              ov equ [10].3
  41  0000              cz equ [10].6
  42  0000              sc equ [10].7
  43  0000              intc equ [67]
  44  0000              
  45  0000              extern ra:byte
  46  0000              extern rb:byte
  47  0000              extern rc:byte
  48  0000              extern rd:byte
  49  0000              extern re:byte
  50  0000              extern rf:byte
  51  0000              extern rg:byte
  52  0000              extern rh:byte
  53  0000              extern _Crom2Prom:near
  54  0000              extern _Crom2PromNext:near
  55  0000              
  56  0000              RAMBANK 0 @BITDATASEC, @BITDATASEC1
  57  0000              @HCCINIT	.section 'data'
  58  0000              @HCCINIT0	.section 'data'
  59  0000              @BITDATASEC	 .section 'data'
文件：Polling.ASM  编译器版本 HGASM 0202 页次2

  60  0000              @BITDATASEC1	 .section 'data'
  61  0000              
  62  0000              #pragma debug scope 1 1
  63  0000              	extern __DELAY3:near
  64  0000              	extern __DELAYX3:near
  65  0000              	extern __DELAYX6:near
  66  0000              	extern __DELAYY5:near
  67  0000              	extern __DELAYY3:near
  68  0000              	extern _builtin_holtek_delay_2:byte
  69  0000              public _TmrInitHeader
  70  0000              #pragma debug scope 2 1

  19  0000              #line 19 "e:\x-sense_svn\xp02\xp02\src\Polling.c"
  19  0000              _TmrInitHeader .section 'code'
  19  0000              _TmrInitHeader proc
  19  0000  00              local _TmrInitHeader_2 db 1 dup(?)	; 0,1
  19  0000  1F00     E  	clr rb
  19  0001  1F00     E  	clr rc
  19  0002              _L3:
  19  0002  0F00     R  	mov a,low offset _TimerInfo
  19  0003  0300     E  	add a,rb
  19  0004  0080     E  	mov rd,a
  19  0005  0F00     R  	mov a,high offset _TimerInfo
  19  0006  1300     E  	adc a,rc
  19  0007  0080     E  	mov re,a
  25  0008              #line 25 "e:\x-sense_svn\xp02\xp02\src\Polling.c"
  25  0008  0F06        	mov a,6
  25  0009  0300     E  	add a,rd
  25  000A  0083        	mov mp,a
  25  000B  0F00        	mov a,0
  25  000C  1300     E  	adc a,re
  25  000D  0084        	mov sbp,a
  25  000E              	fcall _Crom2Prom
  25  0015  0080     R  	mov _TmrInitHeader_2[0],a
  25  0016  0700     R  	mov a,_TmrInitHeader_2[0]
  25  0017  0EFC        	and a,252
  25  0018  0080     E  	mov ra,a
  25  0019  0700     E  	mov a,ra
  25  001A  0082        	mov ir,a
  26  001B              #line 26 "e:\x-sense_svn\xp02\xp02\src\Polling.c"
  26  001B  0F02        	mov a,2
  26  001C  0300     E  	add a,rd
  26  001D  0083        	mov mp,a
  26  001E  0F00        	mov a,0
  26  001F  1300     E  	adc a,re
  26  0020  0084        	mov sbp,a
  26  0021  1F02        	clr ir
  26  0022  1483        	inc mp
  26  0023  1F02        	clr ir
  27  0024              #line 27 "e:\x-sense_svn\xp02\xp02\src\Polling.c"
  27  0024  0F04        	mov a,4
  27  0025  0300     E  	add a,rd
  27  0026  0083        	mov mp,a
  27  0027  0F00        	mov a,0
  27  0028  1300     E  	adc a,re
  27  0029  0084        	mov sbp,a
  27  002A  1F02        	clr ir
  27  002B  1483        	inc mp
  27  002C  1F02        	clr ir
  28  002D              #line 28 "e:\x-sense_svn\xp02\xp02\src\Polling.c"
文件：Polling.c    编译器版本 HGASM 0202 页次3

  28  002D  0700     E  	mov a,rd
  28  002E  0083        	mov mp,a
  28  002F  0700     E  	mov a,re
  28  0030  0084        	mov sbp,a
  28  0031  1F02        	clr ir
  28  0032  1483        	inc mp
  28  0033  1F02        	clr ir
  28  0034  0F07        	mov a,7
  28  0035  0380     E  	addm a,rb
  28  0036  0F00        	mov a,0
  28  0037  1380     E  	adcm a,rc
  22  0038              #line 22 "e:\x-sense_svn\xp02\xp02\src\Polling.c"
  22  0038  0700     E  	mov a,rb
  22  0039  0C62        	xor a,98
  22  003A  0500     E  	or a,rc
  22  003B  390A        	snz z
  22  003C  2800     R  	jmp _L3
  22  003D  0003        	ret
  22  003E              _TmrInitHeader endp
  22  003E              #line 22 "e:\x-sense_svn\xp02\xp02\src\Polling.c"
  22  003E              #pragma debug scope 1 1
  22  003E              public _TmrInsertTimer
  22  003E              #pragma debug scope 3 1
  36  003E              #line 36 "e:\x-sense_svn\xp02\xp02\src\Polling.c"
  36  0000              _TmrInsertTimer .section 'code'
  36  0000              _TmrInsertTimer proc
  36  0000              public _TmrInsertTimer_2
  36  0000  0006[           local _TmrInsertTimer_2 db 6 dup(?)	; 6,0
            00
            ]
  36  0006              #pragma debug variable 12 3 _TmrInsertTimer_2+0 "eHandle"
  36  0006              #pragma debug variable 10 3 _TmrInsertTimer_2+2 "ReloadCnt"
  36  0006              #pragma debug pointer 42 7 3
  36  0006              #pragma debug pointer 42 7 3
  36  0006              #pragma debug variable 42 3 _TmrInsertTimer_2+4 "pCtx"
  38  0006              #line 38 "e:\x-sense_svn\xp02\xp02\src\Polling.c"
  38  0000  0F0D        	mov a,13
  38  0001  0200     R  	sub a,_TmrInsertTimer_2[0]
  38  0002  0F00        	mov a,0
  38  0003  1200     R  	sbc a,_TmrInsertTimer_2[1]
  38  0004  380A        	snz c
  38  0005  2800     R  	jmp _L5
  40  0006              #line 40 "e:\x-sense_svn\xp02\xp02\src\Polling.c"
  40  0006  0700     R  	mov a,_TmrInsertTimer_2[0]
  40  0007  0080     E  	mov rd,a
  40  0008  0700     R  	mov a,_TmrInsertTimer_2[1]
  40  0009  0080     E  	mov re,a
  40  000A  340A        	clr c
  40  000B  1A00     E  	rlca rd
  40  000C  0080     E  	mov rb,a
  40  000D  1A00     E  	rlca re
  40  000E  0080     E  	mov rc,a
  40  000F  0700     E  	mov a,rd
  40  0010  0380     E  	addm a,rb
  40  0011  0700     E  	mov a,re
  40  0012  1380     E  	adcm a,rc
  40  0013  340A        	clr c
  40  0014  1A80     E  	rlc rb
  40  0015  1A80     E  	rlc rc
  40  0016  0700     E  	mov a,rd
文件：Polling.c    编译器版本 HGASM 0202 页次4

  40  0017  0380     E  	addm a,rb
  40  0018  0700     E  	mov a,re
  40  0019  1380     E  	adcm a,rc
  40  001A  0F00     R  	mov a,low offset _TimerInfo
  40  001B  0380     E  	addm a,rb
  40  001C  0F00     R  	mov a,high offset _TimerInfo
  40  001D  1380     E  	adcm a,rc
  41  001E              #line 41 "e:\x-sense_svn\xp02\xp02\src\Polling.c"
  41  001E  0F06        	mov a,6
  41  001F  0300     E  	add a,rb
  41  0020  0083        	mov mp,a
  41  0021  0F00        	mov a,0
  41  0022  1300     E  	adc a,rc
  41  0023  0084        	mov sbp,a
  41  0024              	fcall _Crom2Prom
  41  002B  0080     E  	mov ra,a
  41  002C  3000     E  	set ra.0
  41  002D  0700     E  	mov a,ra
  41  002E  0082        	mov ir,a
  42  002F              #line 42 "e:\x-sense_svn\xp02\xp02\src\Polling.c"
  42  002F  0F02        	mov a,2
  42  0030  0300     E  	add a,rb
  42  0031  0083        	mov mp,a
  42  0032  0F00        	mov a,0
  42  0033  1300     E  	adc a,rc
  42  0034  0084        	mov sbp,a
  42  0035  0700     R  	mov a,_TmrInsertTimer_2[2]
  42  0036  0082        	mov ir,a
  42  0037  1483        	inc mp
  42  0038  0700     R  	mov a,_TmrInsertTimer_2[3]
  42  0039  0082        	mov ir,a
  43  003A              #line 43 "e:\x-sense_svn\xp02\xp02\src\Polling.c"
  43  003A  0F04        	mov a,4
  43  003B  0300     E  	add a,rb
  43  003C  0083        	mov mp,a
  43  003D  0F00        	mov a,0
  43  003E  1300     E  	adc a,rc
  43  003F  0084        	mov sbp,a
  43  0040  0700     R  	mov a,_TmrInsertTimer_2[2]
  43  0041  0082        	mov ir,a
  43  0042  1483        	inc mp
  43  0043  0700     R  	mov a,_TmrInsertTimer_2[3]
  43  0044  0082        	mov ir,a
  44  0045              #line 44 "e:\x-sense_svn\xp02\xp02\src\Polling.c"
  44  0045  0700     E  	mov a,rb
  44  0046  0083        	mov mp,a
  44  0047  0700     E  	mov a,rc
  44  0048  0084        	mov sbp,a
  44  0049  0700     R  	mov a,_TmrInsertTimer_2[4]
  44  004A  0082        	mov ir,a
  44  004B  1483        	inc mp
  44  004C  0700     R  	mov a,_TmrInsertTimer_2[5]
  44  004D  0082        	mov ir,a
  45  004E              #line 45 "e:\x-sense_svn\xp02\xp02\src\Polling.c"
  45  004E  0F01        	mov a,1
  45  004F  0080     E  	mov rd,a
  45  0050  1F00     E  	clr re
  45  0051  1F00     E  	clr rf
  45  0052  1F00     E  	clr rg
  45  0053  1400     R  	inca _TmrInsertTimer_2[0]
文件：Polling.c    编译器版本 HGASM 0202 页次5

  45  0054  2800     R  	jmp _LI1
  45  0055              _LI2:
  45  0055  340A        	clr c
  45  0056  1A80     E  	rlc rd
  45  0057  1A80     E  	rlc re
  45  0058  1A80     E  	rlc rf
  45  0059  1A80     E  	rlc rg
  45  005A              _LI1:
  45  005A  1785        	sdz acc
  45  005B  2800     R  	jmp _LI2
  45  005C  0700     E  	mov a,rg
  45  005D  0580     E  	orm a,_SysAO[26]
  45  005E  0700     E  	mov a,rf
  45  005F  0580     E  	orm a,_SysAO[25]
  45  0060  0700     E  	mov a,re
  45  0061  0580     E  	orm a,_SysAO[24]
  45  0062  0700     E  	mov a,rd
  45  0063  0580     E  	orm a,_SysAO[23]
  45  0064              _L5:
  45  0064  0003        	ret
  45  0065              _TmrInsertTimer endp
  45  0065              #line 45 "e:\x-sense_svn\xp02\xp02\src\Polling.c"
  45  0065              #pragma debug scope 1 1
  45  0065              public _TmrDeleteTimer
  45  0065              #pragma debug scope 4 1
  50  0065              #line 50 "e:\x-sense_svn\xp02\xp02\src\Polling.c"
  50  0000              _TmrDeleteTimer .section 'code'
  50  0000              _TmrDeleteTimer proc
  50  0000              public _TmrDeleteTimer_2
  50  0000  0003[           local _TmrDeleteTimer_2 db 3 dup(?)	; 2,1
            00
            ]
  50  0003              #pragma debug variable 12 4 _TmrDeleteTimer_2+0 "eHandle"
  53  0003              #line 53 "e:\x-sense_svn\xp02\xp02\src\Polling.c"
  53  0000  0F0D        	mov a,13
  53  0001  0200     R  	sub a,_TmrDeleteTimer_2[0]
  53  0002  0F00        	mov a,0
  53  0003  1200     R  	sbc a,_TmrDeleteTimer_2[1]
  53  0004  380A        	snz c
  53  0005  2800     R  	jmp _L7
  53  0006              #pragma debug scope 5 4
  53  0006              ;begin block, line: 53.-1
  53  0006              #pragma debug scope 6 5
  53  0006              ;begin block, line: 53.-1
  55  0006              #line 55 "e:\x-sense_svn\xp02\xp02\src\Polling.c"
  55  0006  0700     R  	mov a,_TmrDeleteTimer_2[0]
  55  0007  0080     E  	mov rd,a
  55  0008  0700     R  	mov a,_TmrDeleteTimer_2[1]
  55  0009  0080     E  	mov re,a
  55  000A  340A        	clr c
  55  000B  1A00     E  	rlca rd
  55  000C  0080     E  	mov rb,a
  55  000D  1A00     E  	rlca re
  55  000E  0080     E  	mov rc,a
  55  000F  0700     E  	mov a,rd
  55  0010  0380     E  	addm a,rb
  55  0011  0700     E  	mov a,re
  55  0012  1380     E  	adcm a,rc
  55  0013  340A        	clr c
  55  0014  1A80     E  	rlc rb
文件：Polling.c    编译器版本 HGASM 0202 页次6

  55  0015  1A80     E  	rlc rc
  55  0016  0700     E  	mov a,rd
  55  0017  0380     E  	addm a,rb
  55  0018  0700     E  	mov a,re
  55  0019  1380     E  	adcm a,rc
  55  001A  0F00     R  	mov a,low offset _TimerInfo
  55  001B  0380     E  	addm a,rb
  55  001C  0F00     R  	mov a,high offset _TimerInfo
  55  001D  1380     E  	adcm a,rc
  57  001E              #line 57 "e:\x-sense_svn\xp02\xp02\src\Polling.c"
  57  001E  0F06        	mov a,6
  57  001F  0300     E  	add a,rb
  57  0020  0083        	mov mp,a
  57  0021  0F00        	mov a,0
  57  0022  1300     E  	adc a,rc
  57  0023  0084        	mov sbp,a
  57  0024              	fcall _Crom2Prom
  57  002B  0080     R  	mov _TmrDeleteTimer_2[2],a
  57  002C  0700     R  	mov a,_TmrDeleteTimer_2[2]
  57  002D  0EFC        	and a,252
  57  002E  0080     E  	mov ra,a
  57  002F  0700     E  	mov a,ra
  57  0030  0082        	mov ir,a
  58  0031              #line 58 "e:\x-sense_svn\xp02\xp02\src\Polling.c"
  58  0031  0F02        	mov a,2
  58  0032  0300     E  	add a,rb
  58  0033  0083        	mov mp,a
  58  0034  0F00        	mov a,0
  58  0035  1300     E  	adc a,rc
  58  0036  0084        	mov sbp,a
  58  0037  1F02        	clr ir
  58  0038  1483        	inc mp
  58  0039  1F02        	clr ir
  59  003A              #line 59 "e:\x-sense_svn\xp02\xp02\src\Polling.c"
  59  003A  0F04        	mov a,4
  59  003B  0300     E  	add a,rb
  59  003C  0083        	mov mp,a
  59  003D  0F00        	mov a,0
  59  003E  1300     E  	adc a,rc
  59  003F  0084        	mov sbp,a
  59  0040  1F02        	clr ir
  59  0041  1483        	inc mp
  59  0042  1F02        	clr ir
  60  0043              #line 60 "e:\x-sense_svn\xp02\xp02\src\Polling.c"
  60  0043  0700     E  	mov a,rb
  60  0044  0083        	mov mp,a
  60  0045  0700     E  	mov a,rc
  60  0046  0084        	mov sbp,a
  60  0047  1F02        	clr ir
  60  0048  1483        	inc mp
  60  0049  1F02        	clr ir
  61  004A              #line 61 "e:\x-sense_svn\xp02\xp02\src\Polling.c"
  61  004A  0F01        	mov a,1
  61  004B  0080     E  	mov rd,a
  61  004C  1F00     E  	clr re
  61  004D  1F00     E  	clr rf
  61  004E  1F00     E  	clr rg
  61  004F  1400     R  	inca _TmrDeleteTimer_2[0]
  61  0050  2800     R  	jmp _LI3
  61  0051              _LI4:
文件：Polling.c    编译器版本 HGASM 0202 页次7

  61  0051  340A        	clr c
  61  0052  1A80     E  	rlc rd
  61  0053  1A80     E  	rlc re
  61  0054  1A80     E  	rlc rf
  61  0055  1A80     E  	rlc rg
  61  0056              _LI3:
  61  0056  1785        	sdz acc
  61  0057  2800     R  	jmp _LI4
  61  0058  0180     E  	cpl rd
  61  0059  0180     E  	cpl re
  61  005A  0180     E  	cpl rf
  61  005B  0180     E  	cpl rg
  61  005C  0700     E  	mov a,rd  
  61  005D  0680     E  	andm a,_SysAO[23]  
  61  005E  0700     E  	mov a,re  
  61  005F  0680     E  	andm a,_SysAO[24]  
  61  0060  0700     E  	mov a,rf  
  61  0061  0680     E  	andm a,_SysAO[25]  
  61  0062  0700     E  	mov a,rg  
  61  0063  0680     E  	andm a,_SysAO[26]
  61  0064              _L7:
  61  0064              #pragma debug scope 5 4
  61  0064              #pragma debug scope 4 1
  61  0064  0003        	ret
  61  0065              _TmrDeleteTimer endp
  61  0065              #line 61 "e:\x-sense_svn\xp02\xp02\src\Polling.c"
  61  0065              #pragma debug scope 1 1
  61  0065              public _PollingUartSend
  61  0065              #pragma debug scope 7 1
  73  0065              #line 73 "e:\x-sense_svn\xp02\xp02\src\Polling.c"
  73  0000              _PollingUartSend .section 'code'
  73  0000              _PollingUartSend proc
  73  0000  0002[           local _PollingUartSend_2 db 2 dup(?)	; 0,2
            00
            ]
  77  0002              #line 77 "e:\x-sense_svn\xp02\xp02\src\Polling.c"
  77  0000              	fcall _GetTicks
  77  0007  0700     E  	mov a,ra
  77  0008  0080     E  	mov rd,a
  77  0009  0700     E  	mov a,rb
  77  000A  0080     E  	mov re,a
  77  000B  1F00     E  	clr rf
  77  000C  1F00     E  	clr rg
  79  000D              #line 79 "e:\x-sense_svn\xp02\xp02\src\Polling.c"
  79  000D  0700     E  	mov a,rd
  79  000E  0500     E  	or a,re
  79  000F  0500     E  	or a,rf
  79  0010  0500     E  	or a,rg
  79  0011  3D0A        	sz z
  79  0012  2800     R  	jmp _L10
  81  0013              #line 81 "e:\x-sense_svn\xp02\xp02\src\Polling.c"
  81  0013  0700     R  	mov a,_TimerInfo[76]
  81  0014  0080     E  	mov rc,a
  81  0015  3800     E  	snz rc.0
  81  0016  2800     R  	jmp _L10
  83  0017              #line 83 "e:\x-sense_svn\xp02\xp02\src\Polling.c"
  83  0017  0700     R  	mov a,_TimerInfo[72]
  83  0018  0080     R  	mov _PollingUartSend_2[0],a
  83  0019  0700     R  	mov a,_TimerInfo[73]
  83  001A  0080     R  	mov _PollingUartSend_2[1],a
文件：Polling.c    编译器版本 HGASM 0202 页次8

  83  001B  1080     E  	sz rg
  83  001C  2800     R  	jmp _L11
  83  001D  1080     E  	sz rf
  83  001E  2800     R  	jmp _L11
  83  001F  0700     E  	mov a,rd
  83  0020  0200     R  	sub a,_PollingUartSend_2[0]
  83  0021  0700     E  	mov a,re
  83  0022  1200     R  	sbc a,_PollingUartSend_2[1]
  83  0023  3C0A        	sz c
  83  0024  2800     R  	jmp _L11
  85  0025              #line 85 "e:\x-sense_svn\xp02\xp02\src\Polling.c"
  85  0025  0700     R  	mov a,_PollingUartSend_2[0]
  85  0026  0200     E  	sub a,ra
  85  0027  0080     E  	mov rc,a
  85  0028  0700     R  	mov a,_PollingUartSend_2[1]
  85  0029  1200     E  	sbc a,rb
  85  002A  0080     E  	mov rd,a
  85  002B  0700     E  	mov a,rc
  85  002C  0080     R  	mov _TimerInfo[72],a
  85  002D  0700     E  	mov a,rd
  85  002E  0080     R  	mov _TimerInfo[73],a
  85  002F  2800     R  	jmp _L10
  85  0030              _L11:
  89  0030              #line 89 "e:\x-sense_svn\xp02\xp02\src\Polling.c"
  89  0030  0700     R  	mov a,_TimerInfo[74]
  89  0031  0080     R  	mov _TimerInfo[72],a
  89  0032  0700     R  	mov a,_TimerInfo[75]
  89  0033  0080     R  	mov _TimerInfo[73],a
  90  0034              #line 90 "e:\x-sense_svn\xp02\xp02\src\Polling.c"
  90  0034  3000     E  	set rc.1
  90  0035  0700     E  	mov a,rc
  90  0036  0080     R  	mov _TimerInfo[76],a
  90  0037              _L10:
  95  0037              #line 95 "e:\x-sense_svn\xp02\xp02\src\Polling.c"
  95  0037  0700     R  	mov a,_TimerInfo[76]
  95  0038  0080     E  	mov ra,a
  95  0039  3800     E  	snz ra.1
  95  003A  2800     R  	jmp _L9
  97  003B              #line 97 "e:\x-sense_svn\xp02\xp02\src\Polling.c"
  97  003B  3400     E  	clr ra.1
  97  003C  0700     E  	mov a,ra
  97  003D  0080     R  	mov _TimerInfo[76],a
  98  003E              #line 98 "e:\x-sense_svn\xp02\xp02\src\Polling.c"
  98  003E  0700     R  	mov a,_TimerInfo[70]
  98  003F  0080     E  	mov rb,a
  98  0040  0700     R  	mov a,_TimerInfo[71]
  98  0041  0080     E  	mov rc,a
  98  0042  0F01        	mov a,1
  98  0043  0300     E  	add a,rb
  98  0044  0080     R  	mov _TimerInfo[70],a
  98  0045  0F00        	mov a,0
  98  0046  1300     E  	adc a,rc
  98  0047  0080     R  	mov _TimerInfo[71],a
  98  0048  0700     E  	mov a,rb
  98  0049  0080     E  	mov _PollingUartSendTimeout_2[0],a
  98  004A  0700     E  	mov a,rc
  98  004B  0080     E  	mov _PollingUartSendTimeout_2[1],a
  98  004C              	fcall _PollingUartSendTimeout
  98  0053              _L9:
  98  0053  0003        	ret
文件：Polling.c    编译器版本 HGASM 0202 页次9

  98  0054              _PollingUartSend endp
  98  0054              #line 98 "e:\x-sense_svn\xp02\xp02\src\Polling.c"
  98  0054              #pragma debug scope 1 1
  98  0054              public _Polling
  98  0054              #pragma debug scope 8 1
 103  0054              #line 103 "e:\x-sense_svn\xp02\xp02\src\Polling.c"
 103  0000              _Polling .section 'code'
 103  0000              _Polling proc
 103  0000  000A[           local _Polling_2 db 10 dup(?)	; 0,10
            00
            ]
 103  000A              #pragma debug variable 14 8 _Polling_2+4 "Ticks"
 109  000A              #line 109 "e:\x-sense_svn\xp02\xp02\src\Polling.c"
 109  0000              	fcall _GetTicks
 109  0007  0700     E  	mov a,ra
 109  0008  0080     R  	mov _Polling_2[2],a
 109  0009  0700     E  	mov a,rb
 109  000A  0080     R  	mov _Polling_2[3],a
 109  000B  0700     E  	mov a,ra
 109  000C  0080     R  	mov _Polling_2[4],a
 109  000D  0700     E  	mov a,rb
 109  000E  0080     R  	mov _Polling_2[5],a
 109  000F  1F00     R  	clr _Polling_2[6]
 109  0010  1F00     R  	clr _Polling_2[7]
 111  0011              #line 111 "e:\x-sense_svn\xp02\xp02\src\Polling.c"
 111  0011  0700     R  	mov a,_Polling_2[4]
 111  0012  0500     R  	or a,_Polling_2[5]
 111  0013  0500     R  	or a,_Polling_2[6]
 111  0014  0500     R  	or a,_Polling_2[7]
 111  0015  3D0A        	sz z
 111  0016  2800     R  	jmp _L22
 111  0017              #line 111 "e:\x-sense_svn\xp02\xp02\src\Polling.c"
 111  0017  1F00     E  	clr rb
 111  0018  1F00     E  	clr rc
 111  0019              _L28:
 111  0019  0F00     R  	mov a,low offset _TimerInfo
 111  001A  0300     E  	add a,rb
 111  001B  0080     E  	mov rd,a
 111  001C  0F00     R  	mov a,high offset _TimerInfo
 111  001D  1300     E  	adc a,rc
 111  001E  0080     E  	mov re,a
 111  001F  0F06        	mov a,6
 111  0020  0300     E  	add a,rd
 111  0021  0080     R  	mov _Polling_2[8],a
 111  0022  0F00        	mov a,0
 111  0023  1300     E  	adc a,re
 111  0024  0080     R  	mov _Polling_2[9],a
 115  0025              #line 115 "e:\x-sense_svn\xp02\xp02\src\Polling.c"
 115  0025  0700     R  	mov a,_Polling_2[8]
 115  0026  0083        	mov mp,a
 115  0027  0700     R  	mov a,_Polling_2[9]
 115  0028  0084        	mov sbp,a
 115  0029              	fcall _Crom2Prom
 115  0030  0080     E  	mov ra,a
 115  0031  3800     E  	snz ra.0
 115  0032  2800     R  	jmp _L25
 115  0033  0F02        	mov a,2
 115  0034  0300     E  	add a,rd
 115  0035  0080     R  	mov _Polling_2[0],a
 115  0036  0F00        	mov a,0
文件：Polling.c    编译器版本 HGASM 0202 页次10

 115  0037  1300     E  	adc a,re
 115  0038  0080     R  	mov _Polling_2[1],a
 117  0039              #line 117 "e:\x-sense_svn\xp02\xp02\src\Polling.c"
 117  0039  0700     R  	mov a,_Polling_2[0]
 117  003A  0083        	mov mp,a
 117  003B  0700     R  	mov a,_Polling_2[1]
 117  003C  0084        	mov sbp,a
 117  003D              	fcall _Crom2Prom
 117  0044  0080     E  	mov rf,a
 117  0045              	fcall _Crom2PromNext
 117  004C  0080     E  	mov rg,a
 117  004D  1080     R  	sz _Polling_2[7]
 117  004E  2800     R  	jmp _L26
 117  004F  1080     R  	sz _Polling_2[6]
 117  0050  2800     R  	jmp _L26
 117  0051  0700     R  	mov a,_Polling_2[4]
 117  0052  0200     E  	sub a,rf
 117  0053  0700     R  	mov a,_Polling_2[5]
 117  0054  1200     E  	sbc a,rg
 117  0055  3C0A        	sz c
 117  0056  2800     R  	jmp _L26
 119  0057              #line 119 "e:\x-sense_svn\xp02\xp02\src\Polling.c"
 119  0057  0700     E  	mov a,rf
 119  0058  0200     R  	sub a,_Polling_2[2]
 119  0059  0080     E  	mov rf,a
 119  005A  0700     E  	mov a,rg
 119  005B  1200     R  	sbc a,_Polling_2[3]
 119  005C  0080     E  	mov rg,a
 119  005D  0700     R  	mov a,_Polling_2[0]
 119  005E  0083        	mov mp,a
 119  005F  0700     R  	mov a,_Polling_2[1]
 119  0060  0084        	mov sbp,a
 119  0061  0700     E  	mov a,rf
 119  0062  0082        	mov ir,a
 119  0063  1483        	inc mp
 119  0064  0700     E  	mov a,rg
 119  0065  0082        	mov ir,a
 119  0066  2800     R  	jmp _L25
 119  0067              _L26:
 123  0067              #line 123 "e:\x-sense_svn\xp02\xp02\src\Polling.c"
 123  0067  0F04        	mov a,4
 123  0068  0300     E  	add a,rd
 123  0069  0083        	mov mp,a
 123  006A  0F00        	mov a,0
 123  006B  1300     E  	adc a,re
 123  006C  0084        	mov sbp,a
 123  006D              	fcall _Crom2Prom
 123  0074  0080     E  	mov rd,a
 123  0075              	fcall _Crom2PromNext
 123  007C  0080     E  	mov re,a
 123  007D  0700     R  	mov a,_Polling_2[0]
 123  007E  0083        	mov mp,a
 123  007F  0700     R  	mov a,_Polling_2[1]
 123  0080  0084        	mov sbp,a
 123  0081  0700     E  	mov a,rd
 123  0082  0082        	mov ir,a
 123  0083  1483        	inc mp
 123  0084  0700     E  	mov a,re
 123  0085  0082        	mov ir,a
 124  0086              #line 124 "e:\x-sense_svn\xp02\xp02\src\Polling.c"
文件：Polling.c    编译器版本 HGASM 0202 页次11

 124  0086  3000     E  	set ra.1
 124  0087  0700     R  	mov a,_Polling_2[8]
 124  0088  0083        	mov mp,a
 124  0089  0700     R  	mov a,_Polling_2[9]
 124  008A  0084        	mov sbp,a
 124  008B  0700     E  	mov a,ra
 124  008C  0082        	mov ir,a
 124  008D              _L25:
 124  008D  0F07        	mov a,7
 124  008E  0380     E  	addm a,rb
 124  008F  0F00        	mov a,0
 124  0090  1380     E  	adcm a,rc
 113  0091              #line 113 "e:\x-sense_svn\xp02\xp02\src\Polling.c"
 113  0091  0700     E  	mov a,rb
 113  0092  0C62        	xor a,98
 113  0093  0500     E  	or a,rc
 113  0094  390A        	snz z
 113  0095  2800     R  	jmp _L28
 131  0096              #line 131 "e:\x-sense_svn\xp02\xp02\src\Polling.c"
 131  0096  0700     R  	mov a,_TimerInfo[6]
 131  0097  0080     E  	mov ra,a
 131  0098  3800     E  	snz ra.1
 131  0099  2800     R  	jmp _L29
 133  009A              #line 133 "e:\x-sense_svn\xp02\xp02\src\Polling.c"
 133  009A  3400     E  	clr ra.1
 133  009B  0700     E  	mov a,ra
 133  009C  0080     R  	mov _TimerInfo[6],a
 134  009D              #line 134 "e:\x-sense_svn\xp02\xp02\src\Polling.c"
 134  009D              	fcall _PollingKeyScan
 134  00A4              _L29:
 137  00A4              #line 137 "e:\x-sense_svn\xp02\xp02\src\Polling.c"
 137  00A4  0700     R  	mov a,_TimerInfo[13]
 137  00A5  0080     E  	mov ra,a
 137  00A6  3800     E  	snz ra.1
 137  00A7  2800     R  	jmp _L30
 139  00A8              #line 139 "e:\x-sense_svn\xp02\xp02\src\Polling.c"
 139  00A8  3400     E  	clr ra.1
 139  00A9  0700     E  	mov a,ra
 139  00AA  0080     R  	mov _TimerInfo[13],a
 140  00AB              #line 140 "e:\x-sense_svn\xp02\xp02\src\Polling.c"
 140  00AB              	fcall _PollingDoubleClickScan
 140  00B2              _L30:
 143  00B2              #line 143 "e:\x-sense_svn\xp02\xp02\src\Polling.c"
 143  00B2  0700     R  	mov a,_TimerInfo[20]
 143  00B3  0080     E  	mov ra,a
 143  00B4  3800     E  	snz ra.1
 143  00B5  2800     R  	jmp _L31
 145  00B6              #line 145 "e:\x-sense_svn\xp02\xp02\src\Polling.c"
 145  00B6  3400     E  	clr ra.1
 145  00B7  0700     E  	mov a,ra
 145  00B8  0080     R  	mov _TimerInfo[20],a
 146  00B9              #line 146 "e:\x-sense_svn\xp02\xp02\src\Polling.c"
 146  00B9  0F02        	mov a,2
 146  00BA  0080     R  	mov _TmrDeleteTimer_2[0],a
 146  00BB  1F00     R  	clr _TmrDeleteTimer_2[1]
 146  00BC              	fcall _TmrDeleteTimer
 147  00C3              #line 147 "e:\x-sense_svn\xp02\xp02\src\Polling.c"
 147  00C3              	fcall _PollingLEDOff
 147  00CA              _L31:
 150  00CA              #line 150 "e:\x-sense_svn\xp02\xp02\src\Polling.c"
文件：Polling.c    编译器版本 HGASM 0202 页次12

 150  00CA  0700     R  	mov a,_TimerInfo[27]
 150  00CB  0080     E  	mov ra,a
 150  00CC  3800     E  	snz ra.1
 150  00CD  2800     R  	jmp _L32
 151  00CE              #line 151 "e:\x-sense_svn\xp02\xp02\src\Polling.c"
 151  00CE  3400     E  	clr ra.1
 151  00CF  0700     E  	mov a,ra
 151  00D0  0080     R  	mov _TimerInfo[27],a
 152  00D1              #line 152 "e:\x-sense_svn\xp02\xp02\src\Polling.c"
 152  00D1  0F03        	mov a,3
 152  00D2  0080     R  	mov _TmrDeleteTimer_2[0],a
 152  00D3  1F00     R  	clr _TmrDeleteTimer_2[1]
 152  00D4              	fcall _TmrDeleteTimer
 153  00DB              #line 153 "e:\x-sense_svn\xp02\xp02\src\Polling.c"
 153  00DB              	fcall _PollingBeepOff
 153  00E2              _L32:
 156  00E2              #line 156 "e:\x-sense_svn\xp02\xp02\src\Polling.c"
 156  00E2  0700     R  	mov a,_TimerInfo[41]
 156  00E3  0080     E  	mov ra,a
 156  00E4  3800     E  	snz ra.1
 156  00E5  2800     R  	jmp _L33
 158  00E6              #line 158 "e:\x-sense_svn\xp02\xp02\src\Polling.c"
 158  00E6  3400     E  	clr ra.1
 158  00E7  0700     E  	mov a,ra
 158  00E8  0080     R  	mov _TimerInfo[41],a
 159  00E9              #line 159 "e:\x-sense_svn\xp02\xp02\src\Polling.c"
 159  00E9  0700     R  	mov a,_TimerInfo[35]
 159  00EA  0080     E  	mov _PollingSmoke_2[0],a
 159  00EB  0700     R  	mov a,_TimerInfo[36]
 159  00EC  0080     E  	mov _PollingSmoke_2[1],a
 159  00ED              	fcall _PollingSmoke
 159  00F4              _L33:
 162  00F4              #line 162 "e:\x-sense_svn\xp02\xp02\src\Polling.c"
 162  00F4  0700     R  	mov a,_TimerInfo[55]
 162  00F5  0080     E  	mov ra,a
 162  00F6  3800     E  	snz ra.1
 162  00F7  2800     R  	jmp _L34
 164  00F8              #line 164 "e:\x-sense_svn\xp02\xp02\src\Polling.c"
 164  00F8  3400     E  	clr ra.1
 164  00F9  0700     E  	mov a,ra
 164  00FA  0080     R  	mov _TimerInfo[55],a
 165  00FB              #line 165 "e:\x-sense_svn\xp02\xp02\src\Polling.c"
 165  00FB  0700     R  	mov a,_TimerInfo[49]
 165  00FC  0080     E  	mov _PollingMuteTimeout_2[0],a
 165  00FD  0700     R  	mov a,_TimerInfo[50]
 165  00FE  0080     E  	mov _PollingMuteTimeout_2[1],a
 165  00FF              	fcall _PollingMuteTimeout
 165  0106              _L34:
 168  0106              #line 168 "e:\x-sense_svn\xp02\xp02\src\Polling.c"
 168  0106  0700     R  	mov a,_TimerInfo[48]
 168  0107  0080     E  	mov ra,a
 168  0108  3800     E  	snz ra.1
 168  0109  2800     R  	jmp _L35
 170  010A              #line 170 "e:\x-sense_svn\xp02\xp02\src\Polling.c"
 170  010A  3400     E  	clr ra.1
 170  010B  0700     E  	mov a,ra
 170  010C  0080     R  	mov _TimerInfo[48],a
 171  010D              #line 171 "e:\x-sense_svn\xp02\xp02\src\Polling.c"
 171  010D  0700     R  	mov a,_TimerInfo[42]
 171  010E  0080     E  	mov _PollingCo_2[0],a
文件：Polling.c    编译器版本 HGASM 0202 页次13

 171  010F  0700     R  	mov a,_TimerInfo[43]
 171  0110  0080     E  	mov _PollingCo_2[1],a
 171  0111              	fcall _PollingCo
 171  0118              _L35:
 175  0118              #line 175 "e:\x-sense_svn\xp02\xp02\src\Polling.c"
 175  0118  0700     R  	mov a,_TimerInfo[62]
 175  0119  0080     E  	mov ra,a
 175  011A  3800     E  	snz ra.1
 175  011B  2800     R  	jmp _L36
 176  011C              #line 176 "e:\x-sense_svn\xp02\xp02\src\Polling.c"
 176  011C  3400     E  	clr ra.1
 176  011D  0700     E  	mov a,ra
 176  011E  0080     R  	mov _TimerInfo[62],a
 177  011F              #line 177 "e:\x-sense_svn\xp02\xp02\src\Polling.c"
 177  011F  0700     R  	mov a,_TimerInfo[56]
 177  0120  0080     E  	mov _RFLedFlash_2[0],a
 177  0121  0700     R  	mov a,_TimerInfo[57]
 177  0122  0080     E  	mov _RFLedFlash_2[1],a
 177  0123              	fcall _RFLedFlash
 177  012A              _L36:
 180  012A              #line 180 "e:\x-sense_svn\xp02\xp02\src\Polling.c"
 180  012A  0700     R  	mov a,_TimerInfo[69]
 180  012B  0080     E  	mov ra,a
 180  012C  3800     E  	snz ra.1
 180  012D  2800     R  	jmp _L37
 181  012E              #line 181 "e:\x-sense_svn\xp02\xp02\src\Polling.c"
 181  012E  3400     E  	clr ra.1
 181  012F  0700     E  	mov a,ra
 181  0130  0080     R  	mov _TimerInfo[69],a
 182  0131              #line 182 "e:\x-sense_svn\xp02\xp02\src\Polling.c"
 182  0131              	fcall _PollingRfTimeout
 182  0138              _L37:
 185  0138              #line 185 "e:\x-sense_svn\xp02\xp02\src\Polling.c"
 185  0138  0700     R  	mov a,_TimerInfo[76]
 185  0139  0080     E  	mov ra,a
 185  013A  3800     E  	snz ra.1
 185  013B  2800     R  	jmp _L38
 186  013C              #line 186 "e:\x-sense_svn\xp02\xp02\src\Polling.c"
 186  013C  3400     E  	clr ra.1
 186  013D  0700     E  	mov a,ra
 186  013E  0080     R  	mov _TimerInfo[76],a
 187  013F              #line 187 "e:\x-sense_svn\xp02\xp02\src\Polling.c"
 187  013F  0700     R  	mov a,_TimerInfo[70]
 187  0140  0080     E  	mov rb,a
 187  0141  0700     R  	mov a,_TimerInfo[71]
 187  0142  0080     E  	mov rc,a
 187  0143  0F01        	mov a,1
 187  0144  0300     E  	add a,rb
 187  0145  0080     R  	mov _TimerInfo[70],a
 187  0146  0F00        	mov a,0
 187  0147  1300     E  	adc a,rc
 187  0148  0080     R  	mov _TimerInfo[71],a
 187  0149  0700     E  	mov a,rb
 187  014A  0080     E  	mov _PollingUartSendTimeout_2[0],a
 187  014B  0700     E  	mov a,rc
 187  014C  0080     E  	mov _PollingUartSendTimeout_2[1],a
 187  014D              	fcall _PollingUartSendTimeout
 187  0154              _L38:
 190  0154              #line 190 "e:\x-sense_svn\xp02\xp02\src\Polling.c"
 190  0154  0700     R  	mov a,_TimerInfo[83]
文件：Polling.c    编译器版本 HGASM 0202 页次14

 190  0155  0080     E  	mov ra,a
 190  0156  3800     E  	snz ra.1
 190  0157  2800     R  	jmp _L39
 191  0158              #line 191 "e:\x-sense_svn\xp02\xp02\src\Polling.c"
 191  0158  3400     E  	clr ra.1
 191  0159  0700     E  	mov a,ra
 191  015A  0080     R  	mov _TimerInfo[83],a
 192  015B              #line 192 "e:\x-sense_svn\xp02\xp02\src\Polling.c"
 192  015B  0700     R  	mov a,_TimerInfo[77]
 192  015C  0080     E  	mov _PollingGREENLEDFlicker_2[0],a
 192  015D  0700     R  	mov a,_TimerInfo[78]
 192  015E  0080     E  	mov _PollingGREENLEDFlicker_2[1],a
 192  015F              	fcall _PollingGREENLEDFlicker
 192  0166              _L39:
 195  0166              #line 195 "e:\x-sense_svn\xp02\xp02\src\Polling.c"
 195  0166  0700     R  	mov a,_TimerInfo[90]
 195  0167  0080     E  	mov ra,a
 195  0168  3800     E  	snz ra.1
 195  0169  2800     R  	jmp _L40
 196  016A              #line 196 "e:\x-sense_svn\xp02\xp02\src\Polling.c"
 196  016A  3400     E  	clr ra.1
 196  016B  0700     E  	mov a,ra
 196  016C  0080     R  	mov _TimerInfo[90],a
 197  016D              #line 197 "e:\x-sense_svn\xp02\xp02\src\Polling.c"
 197  016D  0F0C        	mov a,12
 197  016E  0080     R  	mov _TmrDeleteTimer_2[0],a
 197  016F  1F00     R  	clr _TmrDeleteTimer_2[1]
 197  0170              	fcall _TmrDeleteTimer
 198  0177              #line 198 "e:\x-sense_svn\xp02\xp02\src\Polling.c"
 198  0177              	fcall _PollingGreenLEDOff
 198  017E              _L40:
 203  017E              #line 203 "e:\x-sense_svn\xp02\xp02\src\Polling.c"
 203  017E  3800     R  	snz _TimerInfo[97].1
 203  017F  2800     R  	jmp _L22
 205  0180              #line 205 "e:\x-sense_svn\xp02\xp02\src\Polling.c"
 205  0180  0F0D        	mov a,13
 205  0181  0080     R  	mov _TmrDeleteTimer_2[0],a
 205  0182  1F00     R  	clr _TmrDeleteTimer_2[1]
 205  0183              	fcall _TmrDeleteTimer
 206  018A              #line 206 "e:\x-sense_svn\xp02\xp02\src\Polling.c"
 206  018A  3400     R  	clr _TimerInfo[97].1
 207  018B              #line 207 "e:\x-sense_svn\xp02\xp02\src\Polling.c"
 207  018B              	fcall _PollingSetLocation
 207  0192              _L22:
 207  0192  0003        	ret
 207  0193              _Polling endp
 207  0193              #line 207 "e:\x-sense_svn\xp02\xp02\src\Polling.c"
 207  0193              #pragma debug scope 1 1
 207  0193              public _TmrGetCtx
 207  0193              #pragma debug scope 9 1
 214  0193              #line 214 "e:\x-sense_svn\xp02\xp02\src\Polling.c"
 214  0000              _TmrGetCtx .section 'code'
 214  0000              _TmrGetCtx proc
 214  0000              public _TmrGetCtx_2
 214  0000  0002[           local _TmrGetCtx_2 db 2 dup(?)	; 2,0
            00
            ]
 214  0002              #pragma debug variable 12 9 _TmrGetCtx_2+0 "eHandle"
 217  0002              #line 217 "e:\x-sense_svn\xp02\xp02\src\Polling.c"
 217  0000  0F0D        	mov a,13
文件：Polling.c    编译器版本 HGASM 0202 页次15

 217  0001  0200     R  	sub a,_TmrGetCtx_2[0]
 217  0002  0F00        	mov a,0
 217  0003  1200     R  	sbc a,_TmrGetCtx_2[1]
 217  0004  380A        	snz c
 217  0005  2800     R  	jmp _L86
 219  0006              #line 219 "e:\x-sense_svn\xp02\xp02\src\Polling.c"
 219  0006  0700     R  	mov a,_TmrGetCtx_2[0]
 219  0007  0080     E  	mov rb,a
 219  0008  0700     R  	mov a,_TmrGetCtx_2[1]
 219  0009  0080     E  	mov rc,a
 219  000A  340A        	clr c
 219  000B  1A00     E  	rlca rb
 219  000C  0080     E  	mov rd,a
 219  000D  1A00     E  	rlca rc
 219  000E  0080     E  	mov re,a
 219  000F  0700     E  	mov a,rb
 219  0010  0380     E  	addm a,rd
 219  0011  0700     E  	mov a,rc
 219  0012  1380     E  	adcm a,re
 219  0013  340A        	clr c
 219  0014  1A80     E  	rlc rd
 219  0015  1A80     E  	rlc re
 219  0016  0700     E  	mov a,rd
 219  0017  0380     E  	addm a,rb
 219  0018  0700     E  	mov a,re
 219  0019  1380     E  	adcm a,rc
 219  001A  0F00     R  	mov a,low offset _TimerInfo
 219  001B  0300     E  	add a,rb
 219  001C  0083        	mov mp,a
 219  001D  0F00     R  	mov a,high offset _TimerInfo
 219  001E  1300     E  	adc a,rc
 219  001F  0084        	mov sbp,a
 219  0020              	fcall _Crom2Prom
 219  0027  0080     E  	mov ra,a
 219  0028              	fcall _Crom2PromNext
 219  002F  0080     E  	mov rb,a
 219  0030  2800     R  	jmp _L85
 219  0031              _L86:
 215  0031              #line 215 "e:\x-sense_svn\xp02\xp02\src\Polling.c"
 215  0031  1F00     E  	clr ra
 215  0032  1F00     E  	clr rb
 215  0033              _L85:
 215  0033  0003        	ret
 215  0034              _TmrGetCtx endp
 215  0034              #line 215 "e:\x-sense_svn\xp02\xp02\src\Polling.c"
 215  0034              #pragma debug scope 1 1
 215  0034              public _TmrSetCurCnt
 215  0034              #pragma debug scope 10 1
 226  0034              #line 226 "e:\x-sense_svn\xp02\xp02\src\Polling.c"
 226  0000              _TmrSetCurCnt .section 'code'
 226  0000              _TmrSetCurCnt proc
 226  0000              public _TmrSetCurCnt_2
 226  0000  0004[           local _TmrSetCurCnt_2 db 4 dup(?)	; 4,0
            00
            ]
 226  0004              #pragma debug variable 12 10 _TmrSetCurCnt_2+0 "eHandle"
 226  0004              #pragma debug variable 10 10 _TmrSetCurCnt_2+2 "CurCnt"
 227  0004              #line 227 "e:\x-sense_svn\xp02\xp02\src\Polling.c"
 227  0000  0F0D        	mov a,13
 227  0001  0200     R  	sub a,_TmrSetCurCnt_2[0]
文件：Polling.c    编译器版本 HGASM 0202 页次16

 227  0002  0F00        	mov a,0
 227  0003  1200     R  	sbc a,_TmrSetCurCnt_2[1]
 227  0004  380A        	snz c
 227  0005  2800     R  	jmp _L87
 229  0006              #line 229 "e:\x-sense_svn\xp02\xp02\src\Polling.c"
 229  0006  0700     R  	mov a,_TmrSetCurCnt_2[0]
 229  0007  0080     E  	mov rb,a
 229  0008  0700     R  	mov a,_TmrSetCurCnt_2[1]
 229  0009  0080     E  	mov rc,a
 229  000A  340A        	clr c
 229  000B  1A00     E  	rlca rb
 229  000C  0080     E  	mov rd,a
 229  000D  1A00     E  	rlca rc
 229  000E  0080     E  	mov re,a
 229  000F  0700     E  	mov a,rb
 229  0010  0380     E  	addm a,rd
 229  0011  0700     E  	mov a,rc
 229  0012  1380     E  	adcm a,re
 229  0013  340A        	clr c
 229  0014  1A80     E  	rlc rd
 229  0015  1A80     E  	rlc re
 229  0016  0700     E  	mov a,rd
 229  0017  0380     E  	addm a,rb
 229  0018  0700     E  	mov a,re
 229  0019  1380     E  	adcm a,rc
 229  001A  0F00     R  	mov a,low (offset _TimerInfo+2)
 229  001B  0300     E  	add a,rb
 229  001C  0083        	mov mp,a
 229  001D  0F00     R  	mov a,high (offset _TimerInfo+2)
 229  001E  1300     E  	adc a,rc
 229  001F  0084        	mov sbp,a
 229  0020  0700     R  	mov a,_TmrSetCurCnt_2[2]
 229  0021  0082        	mov ir,a
 229  0022  1483        	inc mp
 229  0023  0700     R  	mov a,_TmrSetCurCnt_2[3]
 229  0024  0082        	mov ir,a
 229  0025              _L87:
 229  0025  0003        	ret
 229  0026              _TmrSetCurCnt endp
 229  0026              #line 229 "e:\x-sense_svn\xp02\xp02\src\Polling.c"
 229  0026              #pragma debug scope 1 1
 229  0026              public _TmrResetCurCnt
 229  0026              #pragma debug scope 11 1
 234  0026              #line 234 "e:\x-sense_svn\xp02\xp02\src\Polling.c"
 234  0000              _TmrResetCurCnt .section 'code'
 234  0000              _TmrResetCurCnt proc
 234  0000              public _TmrResetCurCnt_2
 234  0000  0002[           local _TmrResetCurCnt_2 db 2 dup(?)	; 2,0
            00
            ]
 234  0002              #pragma debug variable 12 11 _TmrResetCurCnt_2+0 "eHandle"
 235  0002              #line 235 "e:\x-sense_svn\xp02\xp02\src\Polling.c"
 235  0000  0F0D        	mov a,13
 235  0001  0200     R  	sub a,_TmrResetCurCnt_2[0]
 235  0002  0F00        	mov a,0
 235  0003  1200     R  	sbc a,_TmrResetCurCnt_2[1]
 235  0004  380A        	snz c
 235  0005  2800     R  	jmp _L89
 237  0006              #line 237 "e:\x-sense_svn\xp02\xp02\src\Polling.c"
 237  0006  0700     R  	mov a,_TmrResetCurCnt_2[0]
文件：Polling.c    编译器版本 HGASM 0202 页次17

 237  0007  0080     E  	mov rb,a
 237  0008  0700     R  	mov a,_TmrResetCurCnt_2[1]
 237  0009  0080     E  	mov rc,a
 237  000A  340A        	clr c
 237  000B  1A00     E  	rlca rb
 237  000C  0080     E  	mov rd,a
 237  000D  1A00     E  	rlca rc
 237  000E  0080     E  	mov re,a
 237  000F  0700     E  	mov a,rb
 237  0010  0380     E  	addm a,rd
 237  0011  0700     E  	mov a,rc
 237  0012  1380     E  	adcm a,re
 237  0013  340A        	clr c
 237  0014  1A80     E  	rlc rd
 237  0015  1A80     E  	rlc re
 237  0016  0700     E  	mov a,rd
 237  0017  0380     E  	addm a,rb
 237  0018  0700     E  	mov a,re
 237  0019  1380     E  	adcm a,rc
 237  001A  0F00     R  	mov a,low (offset _TimerInfo+4)
 237  001B  0300     E  	add a,rb
 237  001C  0083        	mov mp,a
 237  001D  0F00     R  	mov a,high (offset _TimerInfo+4)
 237  001E  1300     E  	adc a,rc
 237  001F  0084        	mov sbp,a
 237  0020              	fcall _Crom2Prom
 237  0027  0080     E  	mov rd,a
 237  0028              	fcall _Crom2PromNext
 237  002F  0080     E  	mov re,a
 237  0030  0F00     R  	mov a,low (offset _TimerInfo+2)
 237  0031  0300     E  	add a,rb
 237  0032  0083        	mov mp,a
 237  0033  0F00     R  	mov a,high (offset _TimerInfo+2)
 237  0034  1300     E  	adc a,rc
 237  0035  0084        	mov sbp,a
 237  0036  0700     E  	mov a,rd
 237  0037  0082        	mov ir,a
 237  0038  1483        	inc mp
 237  0039  0700     E  	mov a,re
 237  003A  0082        	mov ir,a
 237  003B              _L89:
 237  003B  0003        	ret
 237  003C              _TmrResetCurCnt endp
 237  003C              #line 237 "e:\x-sense_svn\xp02\xp02\src\Polling.c"
 237  003C              #pragma debug scope 1 1
 237  003C              public _TmrGetMbs
 237  003C              #pragma debug scope 12 1
 242  003C              #line 242 "e:\x-sense_svn\xp02\xp02\src\Polling.c"
 242  0000              _TmrGetMbs .section 'code'
 242  0000              _TmrGetMbs proc
 244  0000              #line 244 "e:\x-sense_svn\xp02\xp02\src\Polling.c"
 244  0000  0F0E        	mov a,14
 244  0001  0080     E  	mov ra,a
 244  0002  1F00     E  	clr rb
 244  0003  1F00     E  	clr rc
 244  0004  1F00     E  	clr rd
 244  0005  0003        	ret
 244  0006              _TmrGetMbs endp
 244  0006              #line 244 "e:\x-sense_svn\xp02\xp02\src\Polling.c"
 244  0006              #pragma debug scope 1 1
文件：Polling.c    编译器版本 HGASM 0202 页次18

 244  0000              @HCCINIT0_TimerInfo .section 'data'
 244  0000  0062[       _TimerInfo	db 98 dup(0)
            00
            ]
 244  0062              #pragma debug struct_end
 244  0062              #pragma debug struct_end
 244  0062              #pragma debug array 44 43 14 1
 244  0062              #pragma debug array 44 43 14 1
 244  0062              #pragma debug variable 44 1 _TimerInfo "TimerInfo"
 244  0062              
 244  0000              @HCCINIT .section 'data'
 244  0000              
 244  0000              ; output external variables
 244  0000              extern _SysAO:byte
 244  0000              extern _GetTicks:near
 244  0000              extern _PollingUartSendTimeout_2:byte
 244  0000              extern _PollingUartSendTimeout:near
 244  0000              extern _PollingKeyScan:near
 244  0000              extern _PollingDoubleClickScan:near
 244  0000              extern _PollingLEDOff:near
 244  0000              extern _PollingBeepOff:near
 244  0000              extern _PollingSmoke_2:byte
 244  0000              extern _PollingSmoke:near
 244  0000              extern _PollingMuteTimeout_2:byte
 244  0000              extern _PollingMuteTimeout:near
 244  0000              extern _PollingCo_2:byte
 244  0000              extern _PollingCo:near
 244  0000              extern _RFLedFlash_2:byte
 244  0000              extern _RFLedFlash:near
 244  0000              extern _PollingRfTimeout:near
 244  0000              extern _PollingGREENLEDFlicker_2:byte
 244  0000              extern _PollingGREENLEDFlicker:near
 244  0000              extern _PollingGreenLEDOff:near
 244  0000              extern _PollingSetLocation:near
 244  0000              
 244  0000              ; 
 244  0000              ; Generated by holtek-gcc v3.19, Fri Nov 11 18:10:32 2022
 244  0000              ; Rebuild 718
 244  0000              ; end of file


        0 Errors, 0