文件：Smoke.c      编译器版本 HGASM 0202 页次1


   1  0000              ; Generated by holtek-gcc v3.19, Fri Nov 11 18:10:32 2022
   2  0000              ; 
   3  0000              ; Configuration:
   4  0000              ;       with long instruction
   5  0000              ;       Multi-ROM, Multi-RAM
   6  0000              ;       bits_per_rom_unit:16
   7  0000              ;       with mp1
   8  0000              ;       with tbhp, address(0x9)
   9  0000              ;          Use tabrd-const
  10  0000              ;       
  11  0000              ; SFR address of long-instruction arch:
  12  0000              ;    mp0 = -1,1,0
  13  0000              ;    mp1 = 4,3,2
  14  0000              ;    mp2 = 14,13,12
  15  0000              ;    tbp = 9,7,8
  16  0000              ;    acc = 5
  17  0000              ;    pcl = 6
  18  0000              ;    status = 10
  19  0000              ;    bp = 11
  20  0000              ;    intc = 67
  21  0000              ;       
  22  0000              ;       
  23  0000              ; use 'tabrdc' instead of 'tabrd'
  24  0000              ;       
  25  0000              
  26  0000              #pragma translator "holtek-gcc 4.6.4" "3.19" "build 20130711"
  27  0000              ; Rebuild 718
  28  0000              
  29  0000              ir equ [2]
  30  0000              mp equ [3]
  31  0000              sbp equ [4]
  32  0000              acc equ [5]
  33  0000              bp equ [11]
  34  0000              tblp equ [7]
  35  0000              tbhp equ [9]
  36  0000              status equ [10]
  37  0000              c equ [10].0
  38  0000              ac equ [10].1
  39  0000              z equ [10].2
  40  0000              ov equ [10].3
  41  0000              cz equ [10].6
  42  0000              sc equ [10].7
  43  0000              intc equ [67]
  44  0000              
  45  0000              extern ra:byte
  46  0000              extern rb:byte
  47  0000              extern rc:byte
  48  0000              extern rd:byte
  49  0000              extern re:byte
  50  0000              extern rf:byte
  51  0000              extern rg:byte
  52  0000              extern rh:byte
  53  0000              extern _Crom2Prom:near
  54  0000              extern _Crom2PromNext:near
  55  0000              
  56  0000              RAMBANK 0 @BITDATASEC, @BITDATASEC1
  57  0000              @HCCINIT	.section 'data'
  58  0000              @HCCINIT0	.section 'data'
  59  0000              @BITDATASEC	 .section 'data'
文件：Smoke.ASM    编译器版本 HGASM 0202 页次2

  60  0000              @BITDATASEC1	 .section 'data'
  61  0000              
  62  0000              #pragma debug scope 1 1
  63  0000              	extern __DELAY3:near
  64  0000              	extern __DELAYX3:near
  65  0000              	extern __DELAYX6:near
  66  0000              	extern __DELAYY5:near
  67  0000              	extern __DELAYY3:near
  68  0000              	extern _builtin_holtek_delay_2:byte
  69  0000              ___sda0vos equ [38]
  70  0000              ___sda0c equ [37]
  71  0000              public _S_ADJ_OPA
  72  0000              #pragma debug scope 2 1

 183  0000              #line 183 "e:\x-sense_svn\xp02\xp02\src\Smoke.c"
 183  0000              _S_ADJ_OPA .section 'code'
 183  0000              _S_ADJ_OPA proc
 218  0000              #line 218 "e:\x-sense_svn\xp02\xp02\src\Smoke.c"
 218  0000  1FA6        	set [38]
 218  0001              _L6:
 223  0001              #line 223 "e:\x-sense_svn\xp02\xp02\src\Smoke.c"
 223  0001              ;# 223 "e:\x-sense_svn\xp02\xp02\src\Smoke.c" 1
 223  0001              	IF 10000>263690
 223  0001              ;# 223 "e:\x-sense_svn\xp02\xp02\src\Smoke.c" 1
 223  0001              	ERRMESSAGE 'the value 10000of the argument exceeds the maxinum 263690'
 223  0001              	ENDIF
 223  0001              ;# 223 "e:\x-sense_svn\xp02\xp02\src\Smoke.c" 1
 223  0001              	IF 10000<0
 223  0001              ;# 223 "e:\x-sense_svn\xp02\xp02\src\Smoke.c" 1
 223  0001              	ERRMESSAGE 'the value 10000 of the argument exceeds the mininum 0'
 223  0001              	ENDIF
 223  0001              ;# 223 "e:\x-sense_svn\xp02\xp02\src\Smoke.c" 1
 223  0001              	IF 10000==0
 223  0001              ;# 223 "e:\x-sense_svn\xp02\xp02\src\Smoke.c" 1
 223  0001              	JMP $
 223  0001              	ENDIF
 223  0001              ;# 223 "e:\x-sense_svn\xp02\xp02\src\Smoke.c" 1
 223  0001              	IF (10000>=1) AND (10000<( 4 + __PBP__ * 2))
 223  0001              ;# 223 "e:\x-sense_svn\xp02\xp02\src\Smoke.c" 1
 223  0001              	NOP
 223  0001              	ENDIF
 223  0001              ;# 223 "e:\x-sense_svn\xp02\xp02\src\Smoke.c" 1
 223  0001              	IF (10000>=2) AND (10000<( 4 + __PBP__ * 2))
 223  0001              ;# 223 "e:\x-sense_svn\xp02\xp02\src\Smoke.c" 1
 223  0001              	NOP
 223  0001              	ENDIF
 223  0001              ;# 223 "e:\x-sense_svn\xp02\xp02\src\Smoke.c" 1
 223  0001              	IF (10000>=3) AND (10000<( 4 + __PBP__ * 2))
 223  0001              ;# 223 "e:\x-sense_svn\xp02\xp02\src\Smoke.c" 1
 223  0001              	NOP
 223  0001              	ENDIF
 223  0001              ;# 223 "e:\x-sense_svn\xp02\xp02\src\Smoke.c" 1
 223  0001              	IF (10000>=4) AND (10000<( 4 + __PBP__ * 2)) AND ( __PBP__ > 0 )
 223  0001              ;# 223 "e:\x-sense_svn\xp02\xp02\src\Smoke.c" 1
 223  0001              	NOP
 223  0001              	ENDIF
 223  0001              ;# 223 "e:\x-sense_svn\xp02\xp02\src\Smoke.c" 1
 223  0001              	IF (10000>=5) AND (10000<( 4 + __PBP__ * 2)) AND ( __PBP__ > 0 )
 223  0001              ;# 223 "e:\x-sense_svn\xp02\xp02\src\Smoke.c" 1
 223  0001              	NOP
文件：Smoke.c      编译器版本 HGASM 0202 页次3

 223  0001              	ENDIF
 223  0001              ;# 223 "e:\x-sense_svn\xp02\xp02\src\Smoke.c" 1
 223  0001              	IF (10000>=6) AND (10000<( 4 + __PBP__ * 2))  AND ( __PBP__ > 1 )
 223  0001              ;# 223 "e:\x-sense_svn\xp02\xp02\src\Smoke.c" 1
 223  0001              	NOP
 223  0001              	ENDIF
 223  0001              ;# 223 "e:\x-sense_svn\xp02\xp02\src\Smoke.c" 1
 223  0001              	IF (10000>=7) AND (10000<( 4 + __PBP__ * 2))  AND ( __PBP__ > 1 )
 223  0001              ;# 223 "e:\x-sense_svn\xp02\xp02\src\Smoke.c" 1
 223  0001              	NOP
 223  0001              	ENDIF
 223  0001              ;# 223 "e:\x-sense_svn\xp02\xp02\src\Smoke.c" 1
 223  0001              	IF (10000>=8) AND (10000<( 4 + __PBP__ * 2))  AND ( __PBP__ > 2 )
 223  0001              ;# 223 "e:\x-sense_svn\xp02\xp02\src\Smoke.c" 1
 223  0001              	NOP
 223  0001              	ENDIF
 223  0001              ;# 223 "e:\x-sense_svn\xp02\xp02\src\Smoke.c" 1
 223  0001              	IF (10000==9)  AND ( __PBP__ > 2 )
 223  0001              ;# 223 "e:\x-sense_svn\xp02\xp02\src\Smoke.c" 1
 223  0001              	NOP
 223  0001              	ENDIF
 223  0001              ;# 223 "e:\x-sense_svn\xp02\xp02\src\Smoke.c" 1
 223  0001              	IF (10000< ( 8 + __PBP__ * 2)) AND (10000>( 3 + __PBP__ * 2))
 223  0001              ;# 223 "e:\x-sense_svn\xp02\xp02\src\Smoke.c" 1
 223  0001              	fcall __DELAY3 + ( 7 + __PBP__ * 2) -10000
 223  0001              	ENDIF
 223  0001              ;# 223 "e:\x-sense_svn\xp02\xp02\src\Smoke.c" 1
 223  0001              	IF (10000< ( 0404h + __PBP__ * 2)) AND (10000>( 7 + __PBP__ * 2))
 223  0001              ;# 223 "e:\x-sense_svn\xp02\xp02\src\Smoke.c" 1
 223  0001              	MOV A,(10000-( 4 + __PBP__ * 2))/4
 223  0001              ;# 223 "e:\x-sense_svn\xp02\xp02\src\Smoke.c" 1
 223  0001              	fcall __DELAYX3 + 3 -((10000-( 4 + __PBP__ * 2)) MOD 4) 
 223  0001              	ENDIF
 223  0001              ;# 223 "e:\x-sense_svn\xp02\xp02\src\Smoke.c" 1
 223  0001              	IF (10000< ( 040bh + __PBP__ * 2)) AND (10000> ( 0403h + __PBP__ * 2))
 223  0001              ;# 223 "e:\x-sense_svn\xp02\xp02\src\Smoke.c" 1
 223  0001              	MOV A,0 
 223  0001              ;# 223 "e:\x-sense_svn\xp02\xp02\src\Smoke.c" 1
 223  0001              	fcall __DELAYX6 + ( 040ah + __PBP__ * 2) -10000
 223  0001              	ENDIF
 223  0001              ;# 223 "e:\x-sense_svn\xp02\xp02\src\Smoke.c" 1
 223  0001              	IF (10000 >= ( 040bh + __PBP__ * 2)) AND ((((10000-( 9 + __PBP__ * 2))%0402h)/4+1)>256)
 223  0001              ;# 223 "e:\x-sense_svn\xp02\xp02\src\Smoke.c" 1
 223  0001              	MOV A,(10000-( 9 + __PBP__ * 2))/0402h
 223  0001              ;# 223 "e:\x-sense_svn\xp02\xp02\src\Smoke.c" 1
 223  0001              	MOV _builtin_holtek_delay_2,A
 223  0001              ;# 223 "e:\x-sense_svn\xp02\xp02\src\Smoke.c" 1
 223  0001              	MOV A,0
 223  0001              ;# 223 "e:\x-sense_svn\xp02\xp02\src\Smoke.c" 1
 223  0001              	fcall __DELAYY5 +5- (((10000-( 9 + __PBP__ * 2))%0402h)%6) 
 223  0001              	ENDIF
 223  0001              ;# 223 "e:\x-sense_svn\xp02\xp02\src\Smoke.c" 1
 223  0001              	IF (10000 >= ( 040bh + __PBP__ * 2)) AND ((((10000-( 9 + __PBP__ * 2))%0402h)/4+1)<=256)
 223  0001              ;# 223 "e:\x-sense_svn\xp02\xp02\src\Smoke.c" 1
 223  0001  0F09        	MOV A,(10000-( 9 + __PBP__ * 2))/0402h
 223  0002              ;# 223 "e:\x-sense_svn\xp02\xp02\src\Smoke.c" 1
 223  0002  0080     E  	MOV _builtin_holtek_delay_2,A
 223  0003              ;# 223 "e:\x-sense_svn\xp02\xp02\src\Smoke.c" 1
 223  0003  0FBD        	MOV A,((10000-( 9 + __PBP__ * 2))%0402h)/4+1
 223  0004              ;# 223 "e:\x-sense_svn\xp02\xp02\src\Smoke.c" 1
文件：Smoke.c      编译器版本 HGASM 0202 页次4

 223  0004              	fcall __DELAYY3 +3-(((10000-( 9 + __PBP__ * 2))%0402h)%4) 
 223  000B              	ENDIF
 220  000B              #line 220 "e:\x-sense_svn\xp02\xp02\src\Smoke.c"
 220  000B  3AA5        	snz [37].5
 220  000C  2800     R  	jmp _L9
 222  000D              #line 222 "e:\x-sense_svn\xp02\xp02\src\Smoke.c"
 222  000D  15A6        	dec [38]
 222  000E  2800     R  	jmp _L6
 222  000F              _L9:
 226  000F              #line 226 "e:\x-sense_svn\xp02\xp02\src\Smoke.c"
 226  000F  0726        	mov a,[38]
 226  0010  0E3F        	and a,63
 226  0011  0080     E  	mov ra,a
 227  0012              #line 227 "e:\x-sense_svn\xp02\xp02\src\Smoke.c"
 227  0012  0FC0        	mov a,192
 227  0013  00A6        	mov [38],a
 227  0014              _L7:
 232  0014              #line 232 "e:\x-sense_svn\xp02\xp02\src\Smoke.c"
 232  0014              ;# 232 "e:\x-sense_svn\xp02\xp02\src\Smoke.c" 1
 232  0014              	IF 10000>263690
 232  0014              ;# 232 "e:\x-sense_svn\xp02\xp02\src\Smoke.c" 1
 232  0014              	ERRMESSAGE 'the value 10000of the argument exceeds the maxinum 263690'
 232  0014              	ENDIF
 232  0014              ;# 232 "e:\x-sense_svn\xp02\xp02\src\Smoke.c" 1
 232  0014              	IF 10000<0
 232  0014              ;# 232 "e:\x-sense_svn\xp02\xp02\src\Smoke.c" 1
 232  0014              	ERRMESSAGE 'the value 10000 of the argument exceeds the mininum 0'
 232  0014              	ENDIF
 232  0014              ;# 232 "e:\x-sense_svn\xp02\xp02\src\Smoke.c" 1
 232  0014              	IF 10000==0
 232  0014              ;# 232 "e:\x-sense_svn\xp02\xp02\src\Smoke.c" 1
 232  0014              	JMP $
 232  0014              	ENDIF
 232  0014              ;# 232 "e:\x-sense_svn\xp02\xp02\src\Smoke.c" 1
 232  0014              	IF (10000>=1) AND (10000<( 4 + __PBP__ * 2))
 232  0014              ;# 232 "e:\x-sense_svn\xp02\xp02\src\Smoke.c" 1
 232  0014              	NOP
 232  0014              	ENDIF
 232  0014              ;# 232 "e:\x-sense_svn\xp02\xp02\src\Smoke.c" 1
 232  0014              	IF (10000>=2) AND (10000<( 4 + __PBP__ * 2))
 232  0014              ;# 232 "e:\x-sense_svn\xp02\xp02\src\Smoke.c" 1
 232  0014              	NOP
 232  0014              	ENDIF
 232  0014              ;# 232 "e:\x-sense_svn\xp02\xp02\src\Smoke.c" 1
 232  0014              	IF (10000>=3) AND (10000<( 4 + __PBP__ * 2))
 232  0014              ;# 232 "e:\x-sense_svn\xp02\xp02\src\Smoke.c" 1
 232  0014              	NOP
 232  0014              	ENDIF
 232  0014              ;# 232 "e:\x-sense_svn\xp02\xp02\src\Smoke.c" 1
 232  0014              	IF (10000>=4) AND (10000<( 4 + __PBP__ * 2)) AND ( __PBP__ > 0 )
 232  0014              ;# 232 "e:\x-sense_svn\xp02\xp02\src\Smoke.c" 1
 232  0014              	NOP
 232  0014              	ENDIF
 232  0014              ;# 232 "e:\x-sense_svn\xp02\xp02\src\Smoke.c" 1
 232  0014              	IF (10000>=5) AND (10000<( 4 + __PBP__ * 2)) AND ( __PBP__ > 0 )
 232  0014              ;# 232 "e:\x-sense_svn\xp02\xp02\src\Smoke.c" 1
 232  0014              	NOP
 232  0014              	ENDIF
 232  0014              ;# 232 "e:\x-sense_svn\xp02\xp02\src\Smoke.c" 1
 232  0014              	IF (10000>=6) AND (10000<( 4 + __PBP__ * 2))  AND ( __PBP__ > 1 )
文件：Smoke.c      编译器版本 HGASM 0202 页次5

 232  0014              ;# 232 "e:\x-sense_svn\xp02\xp02\src\Smoke.c" 1
 232  0014              	NOP
 232  0014              	ENDIF
 232  0014              ;# 232 "e:\x-sense_svn\xp02\xp02\src\Smoke.c" 1
 232  0014              	IF (10000>=7) AND (10000<( 4 + __PBP__ * 2))  AND ( __PBP__ > 1 )
 232  0014              ;# 232 "e:\x-sense_svn\xp02\xp02\src\Smoke.c" 1
 232  0014              	NOP
 232  0014              	ENDIF
 232  0014              ;# 232 "e:\x-sense_svn\xp02\xp02\src\Smoke.c" 1
 232  0014              	IF (10000>=8) AND (10000<( 4 + __PBP__ * 2))  AND ( __PBP__ > 2 )
 232  0014              ;# 232 "e:\x-sense_svn\xp02\xp02\src\Smoke.c" 1
 232  0014              	NOP
 232  0014              	ENDIF
 232  0014              ;# 232 "e:\x-sense_svn\xp02\xp02\src\Smoke.c" 1
 232  0014              	IF (10000==9)  AND ( __PBP__ > 2 )
 232  0014              ;# 232 "e:\x-sense_svn\xp02\xp02\src\Smoke.c" 1
 232  0014              	NOP
 232  0014              	ENDIF
 232  0014              ;# 232 "e:\x-sense_svn\xp02\xp02\src\Smoke.c" 1
 232  0014              	IF (10000< ( 8 + __PBP__ * 2)) AND (10000>( 3 + __PBP__ * 2))
 232  0014              ;# 232 "e:\x-sense_svn\xp02\xp02\src\Smoke.c" 1
 232  0014              	fcall __DELAY3 + ( 7 + __PBP__ * 2) -10000
 232  0014              	ENDIF
 232  0014              ;# 232 "e:\x-sense_svn\xp02\xp02\src\Smoke.c" 1
 232  0014              	IF (10000< ( 0404h + __PBP__ * 2)) AND (10000>( 7 + __PBP__ * 2))
 232  0014              ;# 232 "e:\x-sense_svn\xp02\xp02\src\Smoke.c" 1
 232  0014              	MOV A,(10000-( 4 + __PBP__ * 2))/4
 232  0014              ;# 232 "e:\x-sense_svn\xp02\xp02\src\Smoke.c" 1
 232  0014              	fcall __DELAYX3 + 3 -((10000-( 4 + __PBP__ * 2)) MOD 4) 
 232  0014              	ENDIF
 232  0014              ;# 232 "e:\x-sense_svn\xp02\xp02\src\Smoke.c" 1
 232  0014              	IF (10000< ( 040bh + __PBP__ * 2)) AND (10000> ( 0403h + __PBP__ * 2))
 232  0014              ;# 232 "e:\x-sense_svn\xp02\xp02\src\Smoke.c" 1
 232  0014              	MOV A,0 
 232  0014              ;# 232 "e:\x-sense_svn\xp02\xp02\src\Smoke.c" 1
 232  0014              	fcall __DELAYX6 + ( 040ah + __PBP__ * 2) -10000
 232  0014              	ENDIF
 232  0014              ;# 232 "e:\x-sense_svn\xp02\xp02\src\Smoke.c" 1
 232  0014              	IF (10000 >= ( 040bh + __PBP__ * 2)) AND ((((10000-( 9 + __PBP__ * 2))%0402h)/4+1)>256)
 232  0014              ;# 232 "e:\x-sense_svn\xp02\xp02\src\Smoke.c" 1
 232  0014              	MOV A,(10000-( 9 + __PBP__ * 2))/0402h
 232  0014              ;# 232 "e:\x-sense_svn\xp02\xp02\src\Smoke.c" 1
 232  0014              	MOV _builtin_holtek_delay_2,A
 232  0014              ;# 232 "e:\x-sense_svn\xp02\xp02\src\Smoke.c" 1
 232  0014              	MOV A,0
 232  0014              ;# 232 "e:\x-sense_svn\xp02\xp02\src\Smoke.c" 1
 232  0014              	fcall __DELAYY5 +5- (((10000-( 9 + __PBP__ * 2))%0402h)%6) 
 232  0014              	ENDIF
 232  0014              ;# 232 "e:\x-sense_svn\xp02\xp02\src\Smoke.c" 1
 232  0014              	IF (10000 >= ( 040bh + __PBP__ * 2)) AND ((((10000-( 9 + __PBP__ * 2))%0402h)/4+1)<=256)
 232  0014              ;# 232 "e:\x-sense_svn\xp02\xp02\src\Smoke.c" 1
 232  0014  0F09        	MOV A,(10000-( 9 + __PBP__ * 2))/0402h
 232  0015              ;# 232 "e:\x-sense_svn\xp02\xp02\src\Smoke.c" 1
 232  0015  0080     E  	MOV _builtin_holtek_delay_2,A
 232  0016              ;# 232 "e:\x-sense_svn\xp02\xp02\src\Smoke.c" 1
 232  0016  0FBD        	MOV A,((10000-( 9 + __PBP__ * 2))%0402h)/4+1
 232  0017              ;# 232 "e:\x-sense_svn\xp02\xp02\src\Smoke.c" 1
 232  0017              	fcall __DELAYY3 +3-(((10000-( 9 + __PBP__ * 2))%0402h)%4) 
 232  001E              	ENDIF
 229  001E              #line 229 "e:\x-sense_svn\xp02\xp02\src\Smoke.c"
文件：Smoke.c      编译器版本 HGASM 0202 页次6

 229  001E  3EA5        	sz [37].5
 229  001F  2800     R  	jmp _L10
 231  0020              #line 231 "e:\x-sense_svn\xp02\xp02\src\Smoke.c"
 231  0020  14A6        	inc [38]
 231  0021  2800     R  	jmp _L7
 231  0022              _L10:
 235  0022              #line 235 "e:\x-sense_svn\xp02\xp02\src\Smoke.c"
 235  0022  0726        	mov a,[38]
 235  0023  0E3F        	and a,63
 235  0024  0080     E  	mov rb,a
 236  0025              #line 236 "e:\x-sense_svn\xp02\xp02\src\Smoke.c"
 236  0025  0700     E  	mov a,rb
 236  0026  0380     E  	addm a,ra
 236  0027  1B80     E  	rrc ra
 236  0028  0700     E  	mov a,ra
 236  0029  00A6        	mov [38],a
 236  002A  0003        	ret
 236  002B              _S_ADJ_OPA endp
 236  002B              #line 236 "e:\x-sense_svn\xp02\xp02\src\Smoke.c"
 236  002B              #pragma debug scope 1 1
 236  002B              ___sda1vos equ [40]
 236  002B              ___sda1c equ [39]
 236  002B              public _S_ADJ_OPA1
 236  002B              #pragma debug scope 3 1
 249  002B              #line 249 "e:\x-sense_svn\xp02\xp02\src\Smoke.c"
 249  0000              _S_ADJ_OPA1 .section 'code'
 249  0000              _S_ADJ_OPA1 proc
 288  0000              #line 288 "e:\x-sense_svn\xp02\xp02\src\Smoke.c"
 288  0000  1FA8        	set [40]
 288  0001              _L16:
 293  0001              #line 293 "e:\x-sense_svn\xp02\xp02\src\Smoke.c"
 293  0001              ;# 293 "e:\x-sense_svn\xp02\xp02\src\Smoke.c" 1
 293  0001              	IF 10000>263690
 293  0001              ;# 293 "e:\x-sense_svn\xp02\xp02\src\Smoke.c" 1
 293  0001              	ERRMESSAGE 'the value 10000of the argument exceeds the maxinum 263690'
 293  0001              	ENDIF
 293  0001              ;# 293 "e:\x-sense_svn\xp02\xp02\src\Smoke.c" 1
 293  0001              	IF 10000<0
 293  0001              ;# 293 "e:\x-sense_svn\xp02\xp02\src\Smoke.c" 1
 293  0001              	ERRMESSAGE 'the value 10000 of the argument exceeds the mininum 0'
 293  0001              	ENDIF
 293  0001              ;# 293 "e:\x-sense_svn\xp02\xp02\src\Smoke.c" 1
 293  0001              	IF 10000==0
 293  0001              ;# 293 "e:\x-sense_svn\xp02\xp02\src\Smoke.c" 1
 293  0001              	JMP $
 293  0001              	ENDIF
 293  0001              ;# 293 "e:\x-sense_svn\xp02\xp02\src\Smoke.c" 1
 293  0001              	IF (10000>=1) AND (10000<( 4 + __PBP__ * 2))
 293  0001              ;# 293 "e:\x-sense_svn\xp02\xp02\src\Smoke.c" 1
 293  0001              	NOP
 293  0001              	ENDIF
 293  0001              ;# 293 "e:\x-sense_svn\xp02\xp02\src\Smoke.c" 1
 293  0001              	IF (10000>=2) AND (10000<( 4 + __PBP__ * 2))
 293  0001              ;# 293 "e:\x-sense_svn\xp02\xp02\src\Smoke.c" 1
 293  0001              	NOP
 293  0001              	ENDIF
 293  0001              ;# 293 "e:\x-sense_svn\xp02\xp02\src\Smoke.c" 1
 293  0001              	IF (10000>=3) AND (10000<( 4 + __PBP__ * 2))
 293  0001              ;# 293 "e:\x-sense_svn\xp02\xp02\src\Smoke.c" 1
 293  0001              	NOP
文件：Smoke.c      编译器版本 HGASM 0202 页次7

 293  0001              	ENDIF
 293  0001              ;# 293 "e:\x-sense_svn\xp02\xp02\src\Smoke.c" 1
 293  0001              	IF (10000>=4) AND (10000<( 4 + __PBP__ * 2)) AND ( __PBP__ > 0 )
 293  0001              ;# 293 "e:\x-sense_svn\xp02\xp02\src\Smoke.c" 1
 293  0001              	NOP
 293  0001              	ENDIF
 293  0001              ;# 293 "e:\x-sense_svn\xp02\xp02\src\Smoke.c" 1
 293  0001              	IF (10000>=5) AND (10000<( 4 + __PBP__ * 2)) AND ( __PBP__ > 0 )
 293  0001              ;# 293 "e:\x-sense_svn\xp02\xp02\src\Smoke.c" 1
 293  0001              	NOP
 293  0001              	ENDIF
 293  0001              ;# 293 "e:\x-sense_svn\xp02\xp02\src\Smoke.c" 1
 293  0001              	IF (10000>=6) AND (10000<( 4 + __PBP__ * 2))  AND ( __PBP__ > 1 )
 293  0001              ;# 293 "e:\x-sense_svn\xp02\xp02\src\Smoke.c" 1
 293  0001              	NOP
 293  0001              	ENDIF
 293  0001              ;# 293 "e:\x-sense_svn\xp02\xp02\src\Smoke.c" 1
 293  0001              	IF (10000>=7) AND (10000<( 4 + __PBP__ * 2))  AND ( __PBP__ > 1 )
 293  0001              ;# 293 "e:\x-sense_svn\xp02\xp02\src\Smoke.c" 1
 293  0001              	NOP
 293  0001              	ENDIF
 293  0001              ;# 293 "e:\x-sense_svn\xp02\xp02\src\Smoke.c" 1
 293  0001              	IF (10000>=8) AND (10000<( 4 + __PBP__ * 2))  AND ( __PBP__ > 2 )
 293  0001              ;# 293 "e:\x-sense_svn\xp02\xp02\src\Smoke.c" 1
 293  0001              	NOP
 293  0001              	ENDIF
 293  0001              ;# 293 "e:\x-sense_svn\xp02\xp02\src\Smoke.c" 1
 293  0001              	IF (10000==9)  AND ( __PBP__ > 2 )
 293  0001              ;# 293 "e:\x-sense_svn\xp02\xp02\src\Smoke.c" 1
 293  0001              	NOP
 293  0001              	ENDIF
 293  0001              ;# 293 "e:\x-sense_svn\xp02\xp02\src\Smoke.c" 1
 293  0001              	IF (10000< ( 8 + __PBP__ * 2)) AND (10000>( 3 + __PBP__ * 2))
 293  0001              ;# 293 "e:\x-sense_svn\xp02\xp02\src\Smoke.c" 1
 293  0001              	fcall __DELAY3 + ( 7 + __PBP__ * 2) -10000
 293  0001              	ENDIF
 293  0001              ;# 293 "e:\x-sense_svn\xp02\xp02\src\Smoke.c" 1
 293  0001              	IF (10000< ( 0404h + __PBP__ * 2)) AND (10000>( 7 + __PBP__ * 2))
 293  0001              ;# 293 "e:\x-sense_svn\xp02\xp02\src\Smoke.c" 1
 293  0001              	MOV A,(10000-( 4 + __PBP__ * 2))/4
 293  0001              ;# 293 "e:\x-sense_svn\xp02\xp02\src\Smoke.c" 1
 293  0001              	fcall __DELAYX3 + 3 -((10000-( 4 + __PBP__ * 2)) MOD 4) 
 293  0001              	ENDIF
 293  0001              ;# 293 "e:\x-sense_svn\xp02\xp02\src\Smoke.c" 1
 293  0001              	IF (10000< ( 040bh + __PBP__ * 2)) AND (10000> ( 0403h + __PBP__ * 2))
 293  0001              ;# 293 "e:\x-sense_svn\xp02\xp02\src\Smoke.c" 1
 293  0001              	MOV A,0 
 293  0001              ;# 293 "e:\x-sense_svn\xp02\xp02\src\Smoke.c" 1
 293  0001              	fcall __DELAYX6 + ( 040ah + __PBP__ * 2) -10000
 293  0001              	ENDIF
 293  0001              ;# 293 "e:\x-sense_svn\xp02\xp02\src\Smoke.c" 1
 293  0001              	IF (10000 >= ( 040bh + __PBP__ * 2)) AND ((((10000-( 9 + __PBP__ * 2))%0402h)/4+1)>256)
 293  0001              ;# 293 "e:\x-sense_svn\xp02\xp02\src\Smoke.c" 1
 293  0001              	MOV A,(10000-( 9 + __PBP__ * 2))/0402h
 293  0001              ;# 293 "e:\x-sense_svn\xp02\xp02\src\Smoke.c" 1
 293  0001              	MOV _builtin_holtek_delay_2,A
 293  0001              ;# 293 "e:\x-sense_svn\xp02\xp02\src\Smoke.c" 1
 293  0001              	MOV A,0
 293  0001              ;# 293 "e:\x-sense_svn\xp02\xp02\src\Smoke.c" 1
 293  0001              	fcall __DELAYY5 +5- (((10000-( 9 + __PBP__ * 2))%0402h)%6) 
文件：Smoke.c      编译器版本 HGASM 0202 页次8

 293  0001              	ENDIF
 293  0001              ;# 293 "e:\x-sense_svn\xp02\xp02\src\Smoke.c" 1
 293  0001              	IF (10000 >= ( 040bh + __PBP__ * 2)) AND ((((10000-( 9 + __PBP__ * 2))%0402h)/4+1)<=256)
 293  0001              ;# 293 "e:\x-sense_svn\xp02\xp02\src\Smoke.c" 1
 293  0001  0F09        	MOV A,(10000-( 9 + __PBP__ * 2))/0402h
 293  0002              ;# 293 "e:\x-sense_svn\xp02\xp02\src\Smoke.c" 1
 293  0002  0080     E  	MOV _builtin_holtek_delay_2,A
 293  0003              ;# 293 "e:\x-sense_svn\xp02\xp02\src\Smoke.c" 1
 293  0003  0FBD        	MOV A,((10000-( 9 + __PBP__ * 2))%0402h)/4+1
 293  0004              ;# 293 "e:\x-sense_svn\xp02\xp02\src\Smoke.c" 1
 293  0004              	fcall __DELAYY3 +3-(((10000-( 9 + __PBP__ * 2))%0402h)%4) 
 293  000B              	ENDIF
 290  000B              #line 290 "e:\x-sense_svn\xp02\xp02\src\Smoke.c"
 290  000B  3AA7        	snz [39].5
 290  000C  2800     R  	jmp _L18
 292  000D              #line 292 "e:\x-sense_svn\xp02\xp02\src\Smoke.c"
 292  000D  15A8        	dec [40]
 292  000E  2800     R  	jmp _L16
 292  000F              _L18:
 296  000F              #line 296 "e:\x-sense_svn\xp02\xp02\src\Smoke.c"
 296  000F  0728        	mov a,[40]
 296  0010  0E3F        	and a,63
 296  0011  0080     E  	mov ra,a
 297  0012              #line 297 "e:\x-sense_svn\xp02\xp02\src\Smoke.c"
 297  0012  0FC0        	mov a,192
 297  0013  00A8        	mov [40],a
 297  0014              _L17:
 302  0014              #line 302 "e:\x-sense_svn\xp02\xp02\src\Smoke.c"
 302  0014              ;# 302 "e:\x-sense_svn\xp02\xp02\src\Smoke.c" 1
 302  0014              	IF 10000>263690
 302  0014              ;# 302 "e:\x-sense_svn\xp02\xp02\src\Smoke.c" 1
 302  0014              	ERRMESSAGE 'the value 10000of the argument exceeds the maxinum 263690'
 302  0014              	ENDIF
 302  0014              ;# 302 "e:\x-sense_svn\xp02\xp02\src\Smoke.c" 1
 302  0014              	IF 10000<0
 302  0014              ;# 302 "e:\x-sense_svn\xp02\xp02\src\Smoke.c" 1
 302  0014              	ERRMESSAGE 'the value 10000 of the argument exceeds the mininum 0'
 302  0014              	ENDIF
 302  0014              ;# 302 "e:\x-sense_svn\xp02\xp02\src\Smoke.c" 1
 302  0014              	IF 10000==0
 302  0014              ;# 302 "e:\x-sense_svn\xp02\xp02\src\Smoke.c" 1
 302  0014              	JMP $
 302  0014              	ENDIF
 302  0014              ;# 302 "e:\x-sense_svn\xp02\xp02\src\Smoke.c" 1
 302  0014              	IF (10000>=1) AND (10000<( 4 + __PBP__ * 2))
 302  0014              ;# 302 "e:\x-sense_svn\xp02\xp02\src\Smoke.c" 1
 302  0014              	NOP
 302  0014              	ENDIF
 302  0014              ;# 302 "e:\x-sense_svn\xp02\xp02\src\Smoke.c" 1
 302  0014              	IF (10000>=2) AND (10000<( 4 + __PBP__ * 2))
 302  0014              ;# 302 "e:\x-sense_svn\xp02\xp02\src\Smoke.c" 1
 302  0014              	NOP
 302  0014              	ENDIF
 302  0014              ;# 302 "e:\x-sense_svn\xp02\xp02\src\Smoke.c" 1
 302  0014              	IF (10000>=3) AND (10000<( 4 + __PBP__ * 2))
 302  0014              ;# 302 "e:\x-sense_svn\xp02\xp02\src\Smoke.c" 1
 302  0014              	NOP
 302  0014              	ENDIF
 302  0014              ;# 302 "e:\x-sense_svn\xp02\xp02\src\Smoke.c" 1
 302  0014              	IF (10000>=4) AND (10000<( 4 + __PBP__ * 2)) AND ( __PBP__ > 0 )
文件：Smoke.c      编译器版本 HGASM 0202 页次9

 302  0014              ;# 302 "e:\x-sense_svn\xp02\xp02\src\Smoke.c" 1
 302  0014              	NOP
 302  0014              	ENDIF
 302  0014              ;# 302 "e:\x-sense_svn\xp02\xp02\src\Smoke.c" 1
 302  0014              	IF (10000>=5) AND (10000<( 4 + __PBP__ * 2)) AND ( __PBP__ > 0 )
 302  0014              ;# 302 "e:\x-sense_svn\xp02\xp02\src\Smoke.c" 1
 302  0014              	NOP
 302  0014              	ENDIF
 302  0014              ;# 302 "e:\x-sense_svn\xp02\xp02\src\Smoke.c" 1
 302  0014              	IF (10000>=6) AND (10000<( 4 + __PBP__ * 2))  AND ( __PBP__ > 1 )
 302  0014              ;# 302 "e:\x-sense_svn\xp02\xp02\src\Smoke.c" 1
 302  0014              	NOP
 302  0014              	ENDIF
 302  0014              ;# 302 "e:\x-sense_svn\xp02\xp02\src\Smoke.c" 1
 302  0014              	IF (10000>=7) AND (10000<( 4 + __PBP__ * 2))  AND ( __PBP__ > 1 )
 302  0014              ;# 302 "e:\x-sense_svn\xp02\xp02\src\Smoke.c" 1
 302  0014              	NOP
 302  0014              	ENDIF
 302  0014              ;# 302 "e:\x-sense_svn\xp02\xp02\src\Smoke.c" 1
 302  0014              	IF (10000>=8) AND (10000<( 4 + __PBP__ * 2))  AND ( __PBP__ > 2 )
 302  0014              ;# 302 "e:\x-sense_svn\xp02\xp02\src\Smoke.c" 1
 302  0014              	NOP
 302  0014              	ENDIF
 302  0014              ;# 302 "e:\x-sense_svn\xp02\xp02\src\Smoke.c" 1
 302  0014              	IF (10000==9)  AND ( __PBP__ > 2 )
 302  0014              ;# 302 "e:\x-sense_svn\xp02\xp02\src\Smoke.c" 1
 302  0014              	NOP
 302  0014              	ENDIF
 302  0014              ;# 302 "e:\x-sense_svn\xp02\xp02\src\Smoke.c" 1
 302  0014              	IF (10000< ( 8 + __PBP__ * 2)) AND (10000>( 3 + __PBP__ * 2))
 302  0014              ;# 302 "e:\x-sense_svn\xp02\xp02\src\Smoke.c" 1
 302  0014              	fcall __DELAY3 + ( 7 + __PBP__ * 2) -10000
 302  0014              	ENDIF
 302  0014              ;# 302 "e:\x-sense_svn\xp02\xp02\src\Smoke.c" 1
 302  0014              	IF (10000< ( 0404h + __PBP__ * 2)) AND (10000>( 7 + __PBP__ * 2))
 302  0014              ;# 302 "e:\x-sense_svn\xp02\xp02\src\Smoke.c" 1
 302  0014              	MOV A,(10000-( 4 + __PBP__ * 2))/4
 302  0014              ;# 302 "e:\x-sense_svn\xp02\xp02\src\Smoke.c" 1
 302  0014              	fcall __DELAYX3 + 3 -((10000-( 4 + __PBP__ * 2)) MOD 4) 
 302  0014              	ENDIF
 302  0014              ;# 302 "e:\x-sense_svn\xp02\xp02\src\Smoke.c" 1
 302  0014              	IF (10000< ( 040bh + __PBP__ * 2)) AND (10000> ( 0403h + __PBP__ * 2))
 302  0014              ;# 302 "e:\x-sense_svn\xp02\xp02\src\Smoke.c" 1
 302  0014              	MOV A,0 
 302  0014              ;# 302 "e:\x-sense_svn\xp02\xp02\src\Smoke.c" 1
 302  0014              	fcall __DELAYX6 + ( 040ah + __PBP__ * 2) -10000
 302  0014              	ENDIF
 302  0014              ;# 302 "e:\x-sense_svn\xp02\xp02\src\Smoke.c" 1
 302  0014              	IF (10000 >= ( 040bh + __PBP__ * 2)) AND ((((10000-( 9 + __PBP__ * 2))%0402h)/4+1)>256)
 302  0014              ;# 302 "e:\x-sense_svn\xp02\xp02\src\Smoke.c" 1
 302  0014              	MOV A,(10000-( 9 + __PBP__ * 2))/0402h
 302  0014              ;# 302 "e:\x-sense_svn\xp02\xp02\src\Smoke.c" 1
 302  0014              	MOV _builtin_holtek_delay_2,A
 302  0014              ;# 302 "e:\x-sense_svn\xp02\xp02\src\Smoke.c" 1
 302  0014              	MOV A,0
 302  0014              ;# 302 "e:\x-sense_svn\xp02\xp02\src\Smoke.c" 1
 302  0014              	fcall __DELAYY5 +5- (((10000-( 9 + __PBP__ * 2))%0402h)%6) 
 302  0014              	ENDIF
 302  0014              ;# 302 "e:\x-sense_svn\xp02\xp02\src\Smoke.c" 1
 302  0014              	IF (10000 >= ( 040bh + __PBP__ * 2)) AND ((((10000-( 9 + __PBP__ * 2))%0402h)/4+1)<=256)
文件：Smoke.c      编译器版本 HGASM 0202 页次10

 302  0014              ;# 302 "e:\x-sense_svn\xp02\xp02\src\Smoke.c" 1
 302  0014  0F09        	MOV A,(10000-( 9 + __PBP__ * 2))/0402h
 302  0015              ;# 302 "e:\x-sense_svn\xp02\xp02\src\Smoke.c" 1
 302  0015  0080     E  	MOV _builtin_holtek_delay_2,A
 302  0016              ;# 302 "e:\x-sense_svn\xp02\xp02\src\Smoke.c" 1
 302  0016  0FBD        	MOV A,((10000-( 9 + __PBP__ * 2))%0402h)/4+1
 302  0017              ;# 302 "e:\x-sense_svn\xp02\xp02\src\Smoke.c" 1
 302  0017              	fcall __DELAYY3 +3-(((10000-( 9 + __PBP__ * 2))%0402h)%4) 
 302  001E              	ENDIF
 299  001E              #line 299 "e:\x-sense_svn\xp02\xp02\src\Smoke.c"
 299  001E  3EA7        	sz [39].5
 299  001F  2800     R  	jmp _L19
 301  0020              #line 301 "e:\x-sense_svn\xp02\xp02\src\Smoke.c"
 301  0020  14A8        	inc [40]
 301  0021  2800     R  	jmp _L17
 301  0022              _L19:
 305  0022              #line 305 "e:\x-sense_svn\xp02\xp02\src\Smoke.c"
 305  0022  0728        	mov a,[40]
 305  0023  0E3F        	and a,63
 305  0024  0080     E  	mov rb,a
 306  0025              #line 306 "e:\x-sense_svn\xp02\xp02\src\Smoke.c"
 306  0025  0700     E  	mov a,rb
 306  0026  0380     E  	addm a,ra
 306  0027  1B80     E  	rrc ra
 306  0028  0700     E  	mov a,ra
 306  0029  00A8        	mov [40],a
 306  002A  0003        	ret
 306  002B              _S_ADJ_OPA1 endp
 306  002B              #line 306 "e:\x-sense_svn\xp02\xp02\src\Smoke.c"
 306  002B              #pragma debug scope 1 1
 306  002B              ___isgdata0 equ [64]
 306  002B              ___isgdata1 equ [65]
 306  002B              ___sdsw equ [34]
 306  002B              ___sdpgac0 equ [35]
 306  002B              ___sdpgac1 equ [36]
 306  002B              ___sadc0 equ [42]
 306  0000              @crom	.section 'crom'
 306  0000              _LC0:
 306  0000              	db 0ah,05fh,073h,064h,061h,030h,076h,06fh,073h,020h
 306  0005              	db 03ah,020h,025h,064h,0ah,00h
 306  0008              @crom	.section 'crom'
 306  0008              _LC1:
 306  0008              	db 05fh,073h,064h,061h,031h,076h,06fh,073h,020h,03ah
 306  000D              	db 020h,025h,064h,020h,0ah,00h
 306  0010              public _SmokeDetInit
 306  0010              #pragma debug scope 4 1
 319  0010              #line 319 "e:\x-sense_svn\xp02\xp02\src\Smoke.c"
 319  0000              _SmokeDetInit .section 'code'
 319  0000              _SmokeDetInit proc
 326  0000              #line 326 "e:\x-sense_svn\xp02\xp02\src\Smoke.c"
 326  0000  1F00     R  	clr _SmokeAO[1]
 326  0001  1F00     R  	clr _SmokeAO[2]
 327  0002              #line 327 "e:\x-sense_svn\xp02\xp02\src\Smoke.c"
 327  0002  1F00     R  	clr _SmokeAO[3]
 327  0003  1F00     R  	clr _SmokeAO[4]
 328  0004              #line 328 "e:\x-sense_svn\xp02\xp02\src\Smoke.c"
 328  0004  1F00     R  	clr _SmokeAO[5]
 329  0005              #line 329 "e:\x-sense_svn\xp02\xp02\src\Smoke.c"
 329  0005  1F00     R  	clr _SmokeAO[6]
 330  0006              #line 330 "e:\x-sense_svn\xp02\xp02\src\Smoke.c"
文件：Smoke.c      编译器版本 HGASM 0202 页次11

 330  0006  1F00     R  	clr _SmokeAO[7]
 331  0007              #line 331 "e:\x-sense_svn\xp02\xp02\src\Smoke.c"
 331  0007  1F00     R  	clr _SmokeAO[8]
 331  0008  1F00     R  	clr _SmokeAO[9]
 332  0009              #line 332 "e:\x-sense_svn\xp02\xp02\src\Smoke.c"
 332  0009  1F00     R  	clr _SmokeAO[12]
 333  000A              #line 333 "e:\x-sense_svn\xp02\xp02\src\Smoke.c"
 333  000A  1F00     R  	clr _SmokeAO[10]
 333  000B  1F00     R  	clr _SmokeAO[11]
 334  000C              #line 334 "e:\x-sense_svn\xp02\xp02\src\Smoke.c"
 334  000C  1F00     R  	clr _SmokeAO[13]
 335  000D              #line 335 "e:\x-sense_svn\xp02\xp02\src\Smoke.c"
 335  000D  1F00     R  	clr _SmokeAO[14]
 336  000E              #line 336 "e:\x-sense_svn\xp02\xp02\src\Smoke.c"
 336  000E  1F00     R  	clr _SmokeAO[15]
 337  000F              #line 337 "e:\x-sense_svn\xp02\xp02\src\Smoke.c"
 337  000F  0F03        	mov a,3
 337  0010  0080     R  	mov _SmokeAO[0],a
 338  0011              #line 338 "e:\x-sense_svn\xp02\xp02\src\Smoke.c"
 338  0011  0F09        	mov a,9
 338  0012  0080     R  	mov _SmokeAO[18],a
 345  0013              #line 345 "e:\x-sense_svn\xp02\xp02\src\Smoke.c"
 345  0013  0F05        	mov a,5
 345  0014  00C0        	mov [64],a
 346  0015              #line 346 "e:\x-sense_svn\xp02\xp02\src\Smoke.c"
 346  0015  0F05        	mov a,5
 346  0016  00C1        	mov [65],a
 355  0017              #line 355 "e:\x-sense_svn\xp02\xp02\src\Smoke.c"
 355  0017  0F43        	mov a,67
 355  0018  05A5        	orm a,[37]
 364  0019              #line 364 "e:\x-sense_svn\xp02\xp02\src\Smoke.c"
 364  0019  0F43        	mov a,67
 364  001A  05A7        	orm a,[39]
 372  001B              #line 372 "e:\x-sense_svn\xp02\xp02\src\Smoke.c"
 372  001B  0F27        	mov a,39
 372  001C  00A2        	mov [34],a
 376  001D              #line 376 "e:\x-sense_svn\xp02\xp02\src\Smoke.c"
 376  001D  0F14        	mov a,20
 376  001E  00A3        	mov [35],a
 379  001F              #line 379 "e:\x-sense_svn\xp02\xp02\src\Smoke.c"
 379  001F  0F0D        	mov a,13
 379  0020  00A4        	mov [36],a
 392  0021              #line 392 "e:\x-sense_svn\xp02\xp02\src\Smoke.c"
 392  0021  0FC0        	mov a,192
 392  0022  05A6        	orm a,[38]
 396  0023              #line 396 "e:\x-sense_svn\xp02\xp02\src\Smoke.c"
 396  0023  0F0A        	mov a,10
 396  0024              	fcall _E2promRead
 396  002B  0080     E  	mov ra,a
 396  002C  0700     E  	mov a,ra
 396  002D  0A5A        	sub a,90
 396  002E  390A        	snz z
 396  002F  2800     R  	jmp _L21
 398  0030              #line 398 "e:\x-sense_svn\xp02\xp02\src\Smoke.c"
 398  0030  0F08        	mov a,8
 398  0031              	fcall _E2promRead
 398  0038  0080     E  	mov ra,a
 398  0039  0700     E  	mov a,ra
 398  003A  00A6        	mov [38],a
 398  003B  2800     R  	jmp _L22
文件：Smoke.c      编译器版本 HGASM 0202 页次12

 398  003C              _L21:
 408  003C              #line 408 "e:\x-sense_svn\xp02\xp02\src\Smoke.c"
 408  003C              	fcall _S_ADJ_OPA
 408  0043              _L22:
 414  0043              #line 414 "e:\x-sense_svn\xp02\xp02\src\Smoke.c"
 414  0043  0FC0        	mov a,192
 414  0044  05A8        	orm a,[40]
 418  0045              #line 418 "e:\x-sense_svn\xp02\xp02\src\Smoke.c"
 418  0045  0F0A        	mov a,10
 418  0046              	fcall _E2promRead
 418  004D  0080     E  	mov ra,a
 418  004E  0700     E  	mov a,ra
 418  004F  0A5A        	sub a,90
 418  0050  390A        	snz z
 418  0051  2800     R  	jmp _L23
 420  0052              #line 420 "e:\x-sense_svn\xp02\xp02\src\Smoke.c"
 420  0052  0F09        	mov a,9
 420  0053              	fcall _E2promRead
 420  005A  0080     E  	mov ra,a
 420  005B  0700     E  	mov a,ra
 420  005C  00A8        	mov [40],a
 420  005D  2800     R  	jmp _L24
 420  005E              _L23:
 429  005E              #line 429 "e:\x-sense_svn\xp02\xp02\src\Smoke.c"
 429  005E              	fcall _S_ADJ_OPA1
 429  0065              _L24:
 435  0065              #line 435 "e:\x-sense_svn\xp02\xp02\src\Smoke.c"
 435  0065  0F3F        	mov a,63
 435  0066  06A6        	andm a,[38]
 438  0067              #line 438 "e:\x-sense_svn\xp02\xp02\src\Smoke.c"
 438  0067  0F3F        	mov a,63
 438  0068  06A8        	andm a,[40]
 441  0069              #line 441 "e:\x-sense_svn\xp02\xp02\src\Smoke.c"
 441  0069  36AA        	clr [42].5
 444  006A              #line 444 "e:\x-sense_svn\xp02\xp02\src\Smoke.c"
 444  006A  3422        	clr [34].0
 445  006B              #line 445 "e:\x-sense_svn\xp02\xp02\src\Smoke.c"
 445  006B  3727        	clr [39].6
 446  006C              #line 446 "e:\x-sense_svn\xp02\xp02\src\Smoke.c"
 446  006C  3725        	clr [37].6
 448  006D              #line 448 "e:\x-sense_svn\xp02\xp02\src\Smoke.c"
 448  006D  0726        	mov a,[38]
 448  006E  0080     E  	mov _printf_2[2],a
 448  006F  1F00     E  	clr _printf_2[3]
 448  0070  0F00     R  	mov a,low offset _LC0
 448  0071  0080     E  	mov _printf_2[0],a
 448  0072  0F00     R  	mov a,high offset _LC0
 448  0073  0080     E  	mov _printf_2[1],a
 448  0074              	fcall _printf
 449  007B              #line 449 "e:\x-sense_svn\xp02\xp02\src\Smoke.c"
 449  007B  0728        	mov a,[40]
 449  007C  0080     E  	mov _printf_2[2],a
 449  007D  1F00     E  	clr _printf_2[3]
 449  007E  0F00     R  	mov a,low offset _LC1
 449  007F  0080     E  	mov _printf_2[0],a
 449  0080  0F00     R  	mov a,high offset _LC1
 449  0081  0080     E  	mov _printf_2[1],a
 449  0082              	fcall _printf
 449  0089  0003        	ret
 449  008A              _SmokeDetInit endp
文件：Smoke.c      编译器版本 HGASM 0202 页次13

 449  008A              #line 449 "e:\x-sense_svn\xp02\xp02\src\Smoke.c"
 449  008A              #pragma debug scope 1 1
 449  008A              public _GetVol
 449  008A              #pragma debug scope 5 1
 463  008A              #line 463 "e:\x-sense_svn\xp02\xp02\src\Smoke.c"
 463  0000              _GetVol .section 'code'
 463  0000              _GetVol proc
 463  0000              public _GetVol_2
 463  0000  0004[           local _GetVol_2 db 4 dup(?)	; 4,0
            00
            ]
 463  0004              #pragma debug variable 10 5 _GetVol_2+0 "Vdd"
 463  0004              #pragma debug variable 10 5 _GetVol_2+2 "HexVal"
 468  0004              #line 468 "e:\x-sense_svn\xp02\xp02\src\Smoke.c"
 468  0000  0700     R  	mov a,_GetVol_2[2]
 468  0001  0080     E  	mov _builtin_holtek_mulsi3_2[0],a
 468  0002  0700     R  	mov a,_GetVol_2[3]
 468  0003  0080     E  	mov _builtin_holtek_mulsi3_2[1],a
 468  0004  1F00     E  	clr _builtin_holtek_mulsi3_2[2]
 468  0005  1F00     E  	clr _builtin_holtek_mulsi3_2[3]
 468  0006  0700     R  	mov a,_GetVol_2[0]
 468  0007  0080     E  	mov _builtin_holtek_mulsi3_2[4],a
 468  0008  0700     R  	mov a,_GetVol_2[1]
 468  0009  0080     E  	mov _builtin_holtek_mulsi3_2[5],a
 468  000A  1F00     E  	clr _builtin_holtek_mulsi3_2[6]
 468  000B  1F00     E  	clr _builtin_holtek_mulsi3_2[7]
 468  000C              	fcall _builtin_holtek_mulsi3
 468  0013  0700     E  	mov a,_builtin_holtek_mulsi3_2[8]
 468  0014  0080     E  	mov rd,a
 468  0015  0700     E  	mov a,_builtin_holtek_mulsi3_2[9]
 468  0016  0080     E  	mov re,a
 468  0017  0700     E  	mov a,_builtin_holtek_mulsi3_2[10]
 468  0018  0080     E  	mov rf,a
 468  0019  0700     E  	mov a,_builtin_holtek_mulsi3_2[11]
 468  001A  0080     E  	mov rg,a
 469  001B              #line 469 "e:\x-sense_svn\xp02\xp02\src\Smoke.c"
 469  001B  0F0C        	mov a,12
 469  001C              _LI1:
 469  001C  340A        	clr c
 469  001D  1B80     E  	rrc rg
 469  001E  1B80     E  	rrc rf
 469  001F  1B80     E  	rrc re
 469  0020  1B80     E  	rrc rd
 469  0021  1785        	sdz acc
 469  0022  2800     R  	jmp _LI1
 472  0023              #line 472 "e:\x-sense_svn\xp02\xp02\src\Smoke.c"
 472  0023  0700     E  	mov a,rd
 472  0024  0080     E  	mov ra,a
 472  0025  0700     E  	mov a,re
 472  0026  0080     E  	mov rb,a
 472  0027  0003        	ret
 472  0028              _GetVol endp
 472  0028              #line 472 "e:\x-sense_svn\xp02\xp02\src\Smoke.c"
 472  0028              #pragma debug scope 1 1
 472  0028              public _PollingSmoke
 472  0028              #pragma debug scope 6 1
 483  0028              #line 483 "e:\x-sense_svn\xp02\xp02\src\Smoke.c"
 483  0000              _PollingSmoke .section 'code'
 483  0000              _PollingSmoke proc
 483  0000              public _PollingSmoke_2
文件：Smoke.c      编译器版本 HGASM 0202 页次14

 483  0000  0002[           local _PollingSmoke_2 db 2 dup(?)	; 2,0
            00
            ]
 483  0002              #pragma debug pointer 42 7 6
 483  0002              #pragma debug pointer 42 7 6
 483  0002              #pragma debug variable 42 6 _PollingSmoke_2+0 "pTxt"
 485  0002              #line 485 "e:\x-sense_svn\xp02\xp02\src\Smoke.c"
 485  0000  0700     R  	mov a,_PollingSmoke_2[0]
 485  0001  0500     R  	or a,_PollingSmoke_2[1]
 485  0002  3D0A        	sz z
 485  0003  2800     R  	jmp _L28
 485  0004              #line 485 "e:\x-sense_svn\xp02\xp02\src\Smoke.c"
 485  0004  0700     R  	mov a,_PollingSmoke_2[0]
 485  0005  0C01        	xor a,1
 485  0006  0500     R  	or a,_PollingSmoke_2[1]
 485  0007  3D0A        	sz z
 485  0008  2800     R  	jmp _L29
 485  0009  0700     R  	mov a,_PollingSmoke_2[0]
 485  000A  0C02        	xor a,2
 485  000B  0500     R  	or a,_PollingSmoke_2[1]
 485  000C  3D0A        	sz z
 485  000D  2800     R  	jmp _L30
 485  000E  0700     R  	mov a,_PollingSmoke_2[0]
 485  000F  0C03        	xor a,3
 485  0010  0500     R  	or a,_PollingSmoke_2[1]
 485  0011  3D0A        	sz z
 485  0012  2800     R  	jmp _L31
 485  0013  0700     R  	mov a,_PollingSmoke_2[0]
 485  0014  0C04        	xor a,4
 485  0015  0500     R  	or a,_PollingSmoke_2[1]
 485  0016  3D0A        	sz z
 485  0017  2800     R  	jmp _L32
 485  0018  0700     R  	mov a,_PollingSmoke_2[0]
 485  0019  0C06        	xor a,6
 485  001A  0500     R  	or a,_PollingSmoke_2[1]
 485  001B  390A        	snz z
 485  001C  2800     R  	jmp _L26
 508  001D              #line 508 "e:\x-sense_svn\xp02\xp02\src\Smoke.c"
 508  001D  0F11        	mov a,17
 508  001E  0080     E  	mov _SysteSetSig_2[0],a
 508  001F  1F00     E  	clr _SysteSetSig_2[1]
 508  0020  2800     R  	jmp _L34
 508  0021              _L28:
 488  0021              #line 488 "e:\x-sense_svn\xp02\xp02\src\Smoke.c"
 488  0021  0F10        	mov a,16
 488  0022  0080     E  	mov _SysteSetSig_2[0],a
 488  0023  1F00     E  	clr _SysteSetSig_2[1]
 488  0024  2800     R  	jmp _L34
 488  0025              _L29:
 492  0025              #line 492 "e:\x-sense_svn\xp02\xp02\src\Smoke.c"
 492  0025  0F12        	mov a,18
 492  0026  0080     E  	mov _SysteSetSig_2[0],a
 492  0027  1F00     E  	clr _SysteSetSig_2[1]
 492  0028  2800     R  	jmp _L34
 492  0029              _L30:
 496  0029              #line 496 "e:\x-sense_svn\xp02\xp02\src\Smoke.c"
 496  0029  0F15        	mov a,21
 496  002A  0080     E  	mov _SysteSetSig_2[0],a
 496  002B  1F00     E  	clr _SysteSetSig_2[1]
 496  002C  2800     R  	jmp _L34
文件：Smoke.c      编译器版本 HGASM 0202 页次15

 496  002D              _L31:
 500  002D              #line 500 "e:\x-sense_svn\xp02\xp02\src\Smoke.c"
 500  002D  0F16        	mov a,22
 500  002E  0080     E  	mov _SysteSetSig_2[0],a
 500  002F  1F00     E  	clr _SysteSetSig_2[1]
 500  0030  2800     R  	jmp _L34
 500  0031              _L32:
 504  0031              #line 504 "e:\x-sense_svn\xp02\xp02\src\Smoke.c"
 504  0031  0F1D        	mov a,29
 504  0032  0080     E  	mov _SysteSetSig_2[0],a
 504  0033  1F00     E  	clr _SysteSetSig_2[1]
 504  0034              _L34:
 508  0034              #line 508 "e:\x-sense_svn\xp02\xp02\src\Smoke.c"
 508  0034              	fcall _SysteSetSig
 508  003B              _L26:
 508  003B  0003        	ret
 508  003C              _PollingSmoke endp
 508  003C              #line 508 "e:\x-sense_svn\xp02\xp02\src\Smoke.c"
 508  003C              #pragma debug scope 1 1
 508  003C              public _PollingMuteTimeout
 508  003C              #pragma debug scope 7 1
 524  003C              #line 524 "e:\x-sense_svn\xp02\xp02\src\Smoke.c"
 524  0000              _PollingMuteTimeout .section 'code'
 524  0000              _PollingMuteTimeout proc
 524  0000              public _PollingMuteTimeout_2
 524  0000  0002[           local _PollingMuteTimeout_2 db 2 dup(?)	; 2,0
            00
            ]
 524  0002              #pragma debug pointer 43 7 7
 524  0002              #pragma debug pointer 43 7 7
 524  0002              #pragma debug variable 43 7 _PollingMuteTimeout_2+0 "pTxt"
 526  0002              #line 526 "e:\x-sense_svn\xp02\xp02\src\Smoke.c"
 526  0000  0700     R  	mov a,_PollingMuteTimeout_2[0]
 526  0001  0C04        	xor a,4
 526  0002  0500     R  	or a,_PollingMuteTimeout_2[1]
 526  0003  3D0A        	sz z
 526  0004  2800     R  	jmp _L37
 526  0005              #line 526 "e:\x-sense_svn\xp02\xp02\src\Smoke.c"
 526  0005  0700     R  	mov a,_PollingMuteTimeout_2[0]
 526  0006  0C09        	xor a,9
 526  0007  0500     R  	or a,_PollingMuteTimeout_2[1]
 526  0008  390A        	snz z
 526  0009  2800     R  	jmp _L35
 533  000A              #line 533 "e:\x-sense_svn\xp02\xp02\src\Smoke.c"
 533  000A  0F27        	mov a,39
 533  000B  0080     E  	mov _SysteSetSig_2[0],a
 533  000C  1F00     E  	clr _SysteSetSig_2[1]
 533  000D  2800     R  	jmp _L39
 533  000E              _L37:
 529  000E              #line 529 "e:\x-sense_svn\xp02\xp02\src\Smoke.c"
 529  000E  0F1A        	mov a,26
 529  000F  0080     E  	mov _SysteSetSig_2[0],a
 529  0010  1F00     E  	clr _SysteSetSig_2[1]
 529  0011              _L39:
 533  0011              #line 533 "e:\x-sense_svn\xp02\xp02\src\Smoke.c"
 533  0011              	fcall _SysteSetSig
 533  0018              _L35:
 533  0018  0003        	ret
 533  0019              _PollingMuteTimeout endp
 533  0019              #line 533 "e:\x-sense_svn\xp02\xp02\src\Smoke.c"
文件：Smoke.c      编译器版本 HGASM 0202 页次16

 533  0019              #pragma debug scope 1 1
 533  0019              ___sadc1 equ [43]
 533  0019              ___sadoh equ [45]
 533  0019              ___sadol equ [46]
 533  0019              ___isgenc equ [63]
 533  0019              ___pc equ [27]
 533  0019              ___intc0 equ [67]
 533  0019              public _AdcGetSmokeSample
 533  0019              #pragma debug scope 8 1
 550  0019              #line 550 "e:\x-sense_svn\xp02\xp02\src\Smoke.c"
 550  0000              _AdcGetSmokeSample .section 'code'
 550  0000              _AdcGetSmokeSample proc
 550  0000              public _AdcGetSmokeSample_2
 550  0000  0005[           local _AdcGetSmokeSample_2 db 5 dup(?)	; 2,3
            00
            ]
 550  0000  0080     R  	mov _AdcGetSmokeSample_2[2],a
 550  0001              #pragma debug variable 8 8 _AdcGetSmokeSample_2+2 "IRCtl"
 550  0001              #pragma debug variable 8 8 _AdcGetSmokeSample_2+0 "IRTest"
 550  0001              #pragma debug variable 8 8 _AdcGetSmokeSample_2+1 "SampleTimes"
 574  0001              #line 574 "e:\x-sense_svn\xp02\xp02\src\Smoke.c"
 574  0001  352B        	clr [43].2
 575  0002              #line 575 "e:\x-sense_svn\xp02\xp02\src\Smoke.c"
 575  0002  34AB        	clr [43].1
 576  0003              #line 576 "e:\x-sense_svn\xp02\xp02\src\Smoke.c"
 576  0003  302B        	set [43].0
 581  0004              #line 581 "e:\x-sense_svn\xp02\xp02\src\Smoke.c"
 581  0004  32AA        	set [42].5
 592  0005              #line 592 "e:\x-sense_svn\xp02\xp02\src\Smoke.c"
 592  0005  33AB        	set [43].7
 593  0006              #line 593 "e:\x-sense_svn\xp02\xp02\src\Smoke.c"
 593  0006  372B        	clr [43].6
 594  0007              #line 594 "e:\x-sense_svn\xp02\xp02\src\Smoke.c"
 594  0007  36AB        	clr [43].5
 596  0008              #line 596 "e:\x-sense_svn\xp02\xp02\src\Smoke.c"
 596  0008  31AA        	set [42].3
 597  0009              #line 597 "e:\x-sense_svn\xp02\xp02\src\Smoke.c"
 597  0009  312A        	set [42].2
 598  000A              #line 598 "e:\x-sense_svn\xp02\xp02\src\Smoke.c"
 598  000A  30AA        	set [42].1
 599  000B              #line 599 "e:\x-sense_svn\xp02\xp02\src\Smoke.c"
 599  000B  302A        	set [42].0
 605  000C              #line 605 "e:\x-sense_svn\xp02\xp02\src\Smoke.c"
 605  000C  362B        	clr [43].4
 606  000D              #line 606 "e:\x-sense_svn\xp02\xp02\src\Smoke.c"
 606  000D  31AB        	set [43].3
 608  000E              #line 608 "e:\x-sense_svn\xp02\xp02\src\Smoke.c"
 608  000E  322A        	set [42].4
 612  000F              #line 612 "e:\x-sense_svn\xp02\xp02\src\Smoke.c"
 612  000F  3325        	set [37].6
 613  0010              #line 613 "e:\x-sense_svn\xp02\xp02\src\Smoke.c"
 613  0010              ;# 613 "e:\x-sense_svn\xp02\xp02\src\Smoke.c" 1
 613  0010              	IF 100>263690
 613  0010              ;# 613 "e:\x-sense_svn\xp02\xp02\src\Smoke.c" 1
 613  0010              	ERRMESSAGE 'the value 100of the argument exceeds the maxinum 263690'
 613  0010              	ENDIF
 613  0010              ;# 613 "e:\x-sense_svn\xp02\xp02\src\Smoke.c" 1
 613  0010              	IF 100<0
 613  0010              ;# 613 "e:\x-sense_svn\xp02\xp02\src\Smoke.c" 1
 613  0010              	ERRMESSAGE 'the value 100 of the argument exceeds the mininum 0'
文件：Smoke.c      编译器版本 HGASM 0202 页次17

 613  0010              	ENDIF
 613  0010              ;# 613 "e:\x-sense_svn\xp02\xp02\src\Smoke.c" 1
 613  0010              	IF 100==0
 613  0010              ;# 613 "e:\x-sense_svn\xp02\xp02\src\Smoke.c" 1
 613  0010              	JMP $
 613  0010              	ENDIF
 613  0010              ;# 613 "e:\x-sense_svn\xp02\xp02\src\Smoke.c" 1
 613  0010              	IF (100>=1) AND (100<( 4 + __PBP__ * 2))
 613  0010              ;# 613 "e:\x-sense_svn\xp02\xp02\src\Smoke.c" 1
 613  0010              	NOP
 613  0010              	ENDIF
 613  0010              ;# 613 "e:\x-sense_svn\xp02\xp02\src\Smoke.c" 1
 613  0010              	IF (100>=2) AND (100<( 4 + __PBP__ * 2))
 613  0010              ;# 613 "e:\x-sense_svn\xp02\xp02\src\Smoke.c" 1
 613  0010              	NOP
 613  0010              	ENDIF
 613  0010              ;# 613 "e:\x-sense_svn\xp02\xp02\src\Smoke.c" 1
 613  0010              	IF (100>=3) AND (100<( 4 + __PBP__ * 2))
 613  0010              ;# 613 "e:\x-sense_svn\xp02\xp02\src\Smoke.c" 1
 613  0010              	NOP
 613  0010              	ENDIF
 613  0010              ;# 613 "e:\x-sense_svn\xp02\xp02\src\Smoke.c" 1
 613  0010              	IF (100>=4) AND (100<( 4 + __PBP__ * 2)) AND ( __PBP__ > 0 )
 613  0010              ;# 613 "e:\x-sense_svn\xp02\xp02\src\Smoke.c" 1
 613  0010              	NOP
 613  0010              	ENDIF
 613  0010              ;# 613 "e:\x-sense_svn\xp02\xp02\src\Smoke.c" 1
 613  0010              	IF (100>=5) AND (100<( 4 + __PBP__ * 2)) AND ( __PBP__ > 0 )
 613  0010              ;# 613 "e:\x-sense_svn\xp02\xp02\src\Smoke.c" 1
 613  0010              	NOP
 613  0010              	ENDIF
 613  0010              ;# 613 "e:\x-sense_svn\xp02\xp02\src\Smoke.c" 1
 613  0010              	IF (100>=6) AND (100<( 4 + __PBP__ * 2))  AND ( __PBP__ > 1 )
 613  0010              ;# 613 "e:\x-sense_svn\xp02\xp02\src\Smoke.c" 1
 613  0010              	NOP
 613  0010              	ENDIF
 613  0010              ;# 613 "e:\x-sense_svn\xp02\xp02\src\Smoke.c" 1
 613  0010              	IF (100>=7) AND (100<( 4 + __PBP__ * 2))  AND ( __PBP__ > 1 )
 613  0010              ;# 613 "e:\x-sense_svn\xp02\xp02\src\Smoke.c" 1
 613  0010              	NOP
 613  0010              	ENDIF
 613  0010              ;# 613 "e:\x-sense_svn\xp02\xp02\src\Smoke.c" 1
 613  0010              	IF (100>=8) AND (100<( 4 + __PBP__ * 2))  AND ( __PBP__ > 2 )
 613  0010              ;# 613 "e:\x-sense_svn\xp02\xp02\src\Smoke.c" 1
 613  0010              	NOP
 613  0010              	ENDIF
 613  0010              ;# 613 "e:\x-sense_svn\xp02\xp02\src\Smoke.c" 1
 613  0010              	IF (100==9)  AND ( __PBP__ > 2 )
 613  0010              ;# 613 "e:\x-sense_svn\xp02\xp02\src\Smoke.c" 1
 613  0010              	NOP
 613  0010              	ENDIF
 613  0010              ;# 613 "e:\x-sense_svn\xp02\xp02\src\Smoke.c" 1
 613  0010              	IF (100< ( 8 + __PBP__ * 2)) AND (100>( 3 + __PBP__ * 2))
 613  0010              ;# 613 "e:\x-sense_svn\xp02\xp02\src\Smoke.c" 1
 613  0010              	fcall __DELAY3 + ( 7 + __PBP__ * 2) -100
 613  0010              	ENDIF
 613  0010              ;# 613 "e:\x-sense_svn\xp02\xp02\src\Smoke.c" 1
 613  0010              	IF (100< ( 0404h + __PBP__ * 2)) AND (100>( 7 + __PBP__ * 2))
 613  0010              ;# 613 "e:\x-sense_svn\xp02\xp02\src\Smoke.c" 1
 613  0010  0F17        	MOV A,(100-( 4 + __PBP__ * 2))/4
文件：Smoke.c      编译器版本 HGASM 0202 页次18

 613  0011              ;# 613 "e:\x-sense_svn\xp02\xp02\src\Smoke.c" 1
 613  0011              	fcall __DELAYX3 + 3 -((100-( 4 + __PBP__ * 2)) MOD 4) 
 613  0018              	ENDIF
 613  0018              ;# 613 "e:\x-sense_svn\xp02\xp02\src\Smoke.c" 1
 613  0018              	IF (100< ( 040bh + __PBP__ * 2)) AND (100> ( 0403h + __PBP__ * 2))
 613  0018              ;# 613 "e:\x-sense_svn\xp02\xp02\src\Smoke.c" 1
 613  0018              	MOV A,0 
 613  0018              ;# 613 "e:\x-sense_svn\xp02\xp02\src\Smoke.c" 1
 613  0018              	fcall __DELAYX6 + ( 040ah + __PBP__ * 2) -100
 613  0018              	ENDIF
 613  0018              ;# 613 "e:\x-sense_svn\xp02\xp02\src\Smoke.c" 1
 613  0018              	IF (100 >= ( 040bh + __PBP__ * 2)) AND ((((100-( 9 + __PBP__ * 2))%0402h)/4+1)>256)
 613  0018              ;# 613 "e:\x-sense_svn\xp02\xp02\src\Smoke.c" 1
 613  0018              	MOV A,(100-( 9 + __PBP__ * 2))/0402h
 613  0018              ;# 613 "e:\x-sense_svn\xp02\xp02\src\Smoke.c" 1
 613  0018              	MOV _builtin_holtek_delay_2,A
 613  0018              ;# 613 "e:\x-sense_svn\xp02\xp02\src\Smoke.c" 1
 613  0018              	MOV A,0
 613  0018              ;# 613 "e:\x-sense_svn\xp02\xp02\src\Smoke.c" 1
 613  0018              	fcall __DELAYY5 +5- (((100-( 9 + __PBP__ * 2))%0402h)%6) 
 613  0018              	ENDIF
 613  0018              ;# 613 "e:\x-sense_svn\xp02\xp02\src\Smoke.c" 1
 613  0018              	IF (100 >= ( 040bh + __PBP__ * 2)) AND ((((100-( 9 + __PBP__ * 2))%0402h)/4+1)<=256)
 613  0018              ;# 613 "e:\x-sense_svn\xp02\xp02\src\Smoke.c" 1
 613  0018              	MOV A,(100-( 9 + __PBP__ * 2))/0402h
 613  0018              ;# 613 "e:\x-sense_svn\xp02\xp02\src\Smoke.c" 1
 613  0018              	MOV _builtin_holtek_delay_2,A
 613  0018              ;# 613 "e:\x-sense_svn\xp02\xp02\src\Smoke.c" 1
 613  0018              	MOV A,((100-( 9 + __PBP__ * 2))%0402h)/4+1
 613  0018              ;# 613 "e:\x-sense_svn\xp02\xp02\src\Smoke.c" 1
 613  0018              	fcall __DELAYY3 +3-(((100-( 9 + __PBP__ * 2))%0402h)%4) 
 613  0018              	ENDIF
 614  0018              #line 614 "e:\x-sense_svn\xp02\xp02\src\Smoke.c"
 614  0018  3327        	set [39].6
 615  0019              #line 615 "e:\x-sense_svn\xp02\xp02\src\Smoke.c"
 615  0019  3022        	set [34].0
 617  001A              #line 617 "e:\x-sense_svn\xp02\xp02\src\Smoke.c"
 617  001A              ;# 617 "e:\x-sense_svn\xp02\xp02\src\Smoke.c" 1
 617  001A              	IF 900>263690
 617  001A              ;# 617 "e:\x-sense_svn\xp02\xp02\src\Smoke.c" 1
 617  001A              	ERRMESSAGE 'the value 900of the argument exceeds the maxinum 263690'
 617  001A              	ENDIF
 617  001A              ;# 617 "e:\x-sense_svn\xp02\xp02\src\Smoke.c" 1
 617  001A              	IF 900<0
 617  001A              ;# 617 "e:\x-sense_svn\xp02\xp02\src\Smoke.c" 1
 617  001A              	ERRMESSAGE 'the value 900 of the argument exceeds the mininum 0'
 617  001A              	ENDIF
 617  001A              ;# 617 "e:\x-sense_svn\xp02\xp02\src\Smoke.c" 1
 617  001A              	IF 900==0
 617  001A              ;# 617 "e:\x-sense_svn\xp02\xp02\src\Smoke.c" 1
 617  001A              	JMP $
 617  001A              	ENDIF
 617  001A              ;# 617 "e:\x-sense_svn\xp02\xp02\src\Smoke.c" 1
 617  001A              	IF (900>=1) AND (900<( 4 + __PBP__ * 2))
 617  001A              ;# 617 "e:\x-sense_svn\xp02\xp02\src\Smoke.c" 1
 617  001A              	NOP
 617  001A              	ENDIF
 617  001A              ;# 617 "e:\x-sense_svn\xp02\xp02\src\Smoke.c" 1
 617  001A              	IF (900>=2) AND (900<( 4 + __PBP__ * 2))
 617  001A              ;# 617 "e:\x-sense_svn\xp02\xp02\src\Smoke.c" 1
文件：Smoke.c      编译器版本 HGASM 0202 页次19

 617  001A              	NOP
 617  001A              	ENDIF
 617  001A              ;# 617 "e:\x-sense_svn\xp02\xp02\src\Smoke.c" 1
 617  001A              	IF (900>=3) AND (900<( 4 + __PBP__ * 2))
 617  001A              ;# 617 "e:\x-sense_svn\xp02\xp02\src\Smoke.c" 1
 617  001A              	NOP
 617  001A              	ENDIF
 617  001A              ;# 617 "e:\x-sense_svn\xp02\xp02\src\Smoke.c" 1
 617  001A              	IF (900>=4) AND (900<( 4 + __PBP__ * 2)) AND ( __PBP__ > 0 )
 617  001A              ;# 617 "e:\x-sense_svn\xp02\xp02\src\Smoke.c" 1
 617  001A              	NOP
 617  001A              	ENDIF
 617  001A              ;# 617 "e:\x-sense_svn\xp02\xp02\src\Smoke.c" 1
 617  001A              	IF (900>=5) AND (900<( 4 + __PBP__ * 2)) AND ( __PBP__ > 0 )
 617  001A              ;# 617 "e:\x-sense_svn\xp02\xp02\src\Smoke.c" 1
 617  001A              	NOP
 617  001A              	ENDIF
 617  001A              ;# 617 "e:\x-sense_svn\xp02\xp02\src\Smoke.c" 1
 617  001A              	IF (900>=6) AND (900<( 4 + __PBP__ * 2))  AND ( __PBP__ > 1 )
 617  001A              ;# 617 "e:\x-sense_svn\xp02\xp02\src\Smoke.c" 1
 617  001A              	NOP
 617  001A              	ENDIF
 617  001A              ;# 617 "e:\x-sense_svn\xp02\xp02\src\Smoke.c" 1
 617  001A              	IF (900>=7) AND (900<( 4 + __PBP__ * 2))  AND ( __PBP__ > 1 )
 617  001A              ;# 617 "e:\x-sense_svn\xp02\xp02\src\Smoke.c" 1
 617  001A              	NOP
 617  001A              	ENDIF
 617  001A              ;# 617 "e:\x-sense_svn\xp02\xp02\src\Smoke.c" 1
 617  001A              	IF (900>=8) AND (900<( 4 + __PBP__ * 2))  AND ( __PBP__ > 2 )
 617  001A              ;# 617 "e:\x-sense_svn\xp02\xp02\src\Smoke.c" 1
 617  001A              	NOP
 617  001A              	ENDIF
 617  001A              ;# 617 "e:\x-sense_svn\xp02\xp02\src\Smoke.c" 1
 617  001A              	IF (900==9)  AND ( __PBP__ > 2 )
 617  001A              ;# 617 "e:\x-sense_svn\xp02\xp02\src\Smoke.c" 1
 617  001A              	NOP
 617  001A              	ENDIF
 617  001A              ;# 617 "e:\x-sense_svn\xp02\xp02\src\Smoke.c" 1
 617  001A              	IF (900< ( 8 + __PBP__ * 2)) AND (900>( 3 + __PBP__ * 2))
 617  001A              ;# 617 "e:\x-sense_svn\xp02\xp02\src\Smoke.c" 1
 617  001A              	fcall __DELAY3 + ( 7 + __PBP__ * 2) -900
 617  001A              	ENDIF
 617  001A              ;# 617 "e:\x-sense_svn\xp02\xp02\src\Smoke.c" 1
 617  001A              	IF (900< ( 0404h + __PBP__ * 2)) AND (900>( 7 + __PBP__ * 2))
 617  001A              ;# 617 "e:\x-sense_svn\xp02\xp02\src\Smoke.c" 1
 617  001A  0FDF        	MOV A,(900-( 4 + __PBP__ * 2))/4
 617  001B              ;# 617 "e:\x-sense_svn\xp02\xp02\src\Smoke.c" 1
 617  001B              	fcall __DELAYX3 + 3 -((900-( 4 + __PBP__ * 2)) MOD 4) 
 617  0022              	ENDIF
 617  0022              ;# 617 "e:\x-sense_svn\xp02\xp02\src\Smoke.c" 1
 617  0022              	IF (900< ( 040bh + __PBP__ * 2)) AND (900> ( 0403h + __PBP__ * 2))
 617  0022              ;# 617 "e:\x-sense_svn\xp02\xp02\src\Smoke.c" 1
 617  0022              	MOV A,0 
 617  0022              ;# 617 "e:\x-sense_svn\xp02\xp02\src\Smoke.c" 1
 617  0022              	fcall __DELAYX6 + ( 040ah + __PBP__ * 2) -900
 617  0022              	ENDIF
 617  0022              ;# 617 "e:\x-sense_svn\xp02\xp02\src\Smoke.c" 1
 617  0022              	IF (900 >= ( 040bh + __PBP__ * 2)) AND ((((900-( 9 + __PBP__ * 2))%0402h)/4+1)>256)
 617  0022              ;# 617 "e:\x-sense_svn\xp02\xp02\src\Smoke.c" 1
 617  0022              	MOV A,(900-( 9 + __PBP__ * 2))/0402h
文件：Smoke.c      编译器版本 HGASM 0202 页次20

 617  0022              ;# 617 "e:\x-sense_svn\xp02\xp02\src\Smoke.c" 1
 617  0022              	MOV _builtin_holtek_delay_2,A
 617  0022              ;# 617 "e:\x-sense_svn\xp02\xp02\src\Smoke.c" 1
 617  0022              	MOV A,0
 617  0022              ;# 617 "e:\x-sense_svn\xp02\xp02\src\Smoke.c" 1
 617  0022              	fcall __DELAYY5 +5- (((900-( 9 + __PBP__ * 2))%0402h)%6) 
 617  0022              	ENDIF
 617  0022              ;# 617 "e:\x-sense_svn\xp02\xp02\src\Smoke.c" 1
 617  0022              	IF (900 >= ( 040bh + __PBP__ * 2)) AND ((((900-( 9 + __PBP__ * 2))%0402h)/4+1)<=256)
 617  0022              ;# 617 "e:\x-sense_svn\xp02\xp02\src\Smoke.c" 1
 617  0022              	MOV A,(900-( 9 + __PBP__ * 2))/0402h
 617  0022              ;# 617 "e:\x-sense_svn\xp02\xp02\src\Smoke.c" 1
 617  0022              	MOV _builtin_holtek_delay_2,A
 617  0022              ;# 617 "e:\x-sense_svn\xp02\xp02\src\Smoke.c" 1
 617  0022              	MOV A,((900-( 9 + __PBP__ * 2))%0402h)/4+1
 617  0022              ;# 617 "e:\x-sense_svn\xp02\xp02\src\Smoke.c" 1
 617  0022              	fcall __DELAYY3 +3-(((900-( 9 + __PBP__ * 2))%0402h)%4) 
 617  0022              	ENDIF
 619  0022              #line 619 "e:\x-sense_svn\xp02\xp02\src\Smoke.c"
 619  0022  0FE4        	mov a,-28
 619  0023  0080     R  	mov _SmokeAO[1],a
 619  0024  0F0C        	mov a,12
 619  0025  0080     R  	mov _SmokeAO[2],a
 620  0026              #line 620 "e:\x-sense_svn\xp02\xp02\src\Smoke.c"
 620  0026  0FE4        	mov a,-28
 620  0027  0080     E  	mov rb,a
 620  0028  0F0C        	mov a,12
 620  0029  0080     E  	mov rc,a
 620  002A  1F00     E  	clr ra
 620  002B              _L41:
 620  002B              #line 620 "e:\x-sense_svn\xp02\xp02\src\Smoke.c"
 620  002B  0700     E  	mov a,ra
 620  002C  0200     R  	sub a,_AdcGetSmokeSample_2[1]
 620  002D  3D0A        	sz z
 620  002E  2800     R  	jmp _L58
 623  002F              #line 623 "e:\x-sense_svn\xp02\xp02\src\Smoke.c"
 623  002F  37AA        	clr [42].7
 624  0030              #line 624 "e:\x-sense_svn\xp02\xp02\src\Smoke.c"
 624  0030  33AA        	set [42].7
 625  0031              #line 625 "e:\x-sense_svn\xp02\xp02\src\Smoke.c"
 625  0031  37AA        	clr [42].7
 625  0032              _L43:
 628  0032              #line 628 "e:\x-sense_svn\xp02\xp02\src\Smoke.c"
 628  0032  3F2A        	sz [42].6
 628  0033  2800     R  	jmp _L43
 631  0034              #line 631 "e:\x-sense_svn\xp02\xp02\src\Smoke.c"
 631  0034  072D        	mov a,[45]
 631  0035  0080     E  	mov re,a
 631  0036  1F00     E  	clr rd
 631  0037  0700     E  	mov a,re
 631  0038  0080     E  	mov rg,a
 631  0039  072E        	mov a,[46]
 631  003A  0500     E  	or a,rd
 631  003B  0080     E  	mov rf,a
 631  003C  0700     E  	mov a,rf
 631  003D  0200     E  	sub a,rb
 631  003E  0700     E  	mov a,rg
 631  003F  1200     E  	sbc a,rc
 631  0040  3C0A        	sz c
 631  0041  2800     R  	jmp _L55
文件：Smoke.c      编译器版本 HGASM 0202 页次21

 631  0042  0700     E  	mov a,rf
 631  0043  0080     E  	mov rb,a
 631  0044  0700     E  	mov a,rg
 631  0045  0080     E  	mov rc,a
 631  0046              _L55:
 620  0046              #line 620 "e:\x-sense_svn\xp02\xp02\src\Smoke.c"
 620  0046  1480     E  	inc ra
 620  0047  2800     R  	jmp _L41
 620  0048              _L58:
 620  0048  0700     E  	mov a,rb
 620  0049  0080     R  	mov _SmokeAO[1],a
 620  004A  0700     E  	mov a,rc
 620  004B  0080     R  	mov _SmokeAO[2],a
 639  004C              #line 639 "e:\x-sense_svn\xp02\xp02\src\Smoke.c"
 639  004C  1E00     R  	snz _AdcGetSmokeSample_2[2]
 639  004D  2800     R  	jmp _L46
 641  004E              #line 641 "e:\x-sense_svn\xp02\xp02\src\Smoke.c"
 641  004E  1E00     R  	snz _AdcGetSmokeSample_2[0]
 641  004F  2800     R  	jmp _L47
 643  0050              #line 643 "e:\x-sense_svn\xp02\xp02\src\Smoke.c"
 643  0050  0F14        	mov a,20
 643  0051  00C0        	mov [64],a
 643  0052  2800     R  	jmp _L57
 643  0053              _L47:
 647  0053              #line 647 "e:\x-sense_svn\xp02\xp02\src\Smoke.c"
 647  0053  0700     R  	mov a,_SmokeAO[18]
 647  0054  00C0        	mov [64],a
 647  0055  2800     R  	jmp _L57
 647  0056              _L46:
 655  0056              #line 655 "e:\x-sense_svn\xp02\xp02\src\Smoke.c"
 655  0056  0F01        	mov a,1
 655  0057  00C0        	mov [64],a
 655  0058              _L57:
 656  0058              #line 656 "e:\x-sense_svn\xp02\xp02\src\Smoke.c"
 656  0058  33BF        	set [63].7
 657  0059              #line 657 "e:\x-sense_svn\xp02\xp02\src\Smoke.c"
 657  0059  303F        	set [63].0
 658  005A              #line 658 "e:\x-sense_svn\xp02\xp02\src\Smoke.c"
 658  005A  311B        	set [27].2
 661  005B              #line 661 "e:\x-sense_svn\xp02\xp02\src\Smoke.c"
 661  005B              ;# 661 "e:\x-sense_svn\xp02\xp02\src\Smoke.c" 1
 661  005B              	IF (30)>263690
 661  005B              ;# 661 "e:\x-sense_svn\xp02\xp02\src\Smoke.c" 1
 661  005B              	ERRMESSAGE 'the value (30)of the argument exceeds the maxinum 263690'
 661  005B              	ENDIF
 661  005B              ;# 661 "e:\x-sense_svn\xp02\xp02\src\Smoke.c" 1
 661  005B              	IF (30)<0
 661  005B              ;# 661 "e:\x-sense_svn\xp02\xp02\src\Smoke.c" 1
 661  005B              	ERRMESSAGE 'the value (30) of the argument exceeds the mininum 0'
 661  005B              	ENDIF
 661  005B              ;# 661 "e:\x-sense_svn\xp02\xp02\src\Smoke.c" 1
 661  005B              	IF (30)==0
 661  005B              ;# 661 "e:\x-sense_svn\xp02\xp02\src\Smoke.c" 1
 661  005B              	JMP $
 661  005B              	ENDIF
 661  005B              ;# 661 "e:\x-sense_svn\xp02\xp02\src\Smoke.c" 1
 661  005B              	IF ((30)>=1) AND ((30)<( 4 + __PBP__ * 2))
 661  005B              ;# 661 "e:\x-sense_svn\xp02\xp02\src\Smoke.c" 1
 661  005B              	NOP
 661  005B              	ENDIF
文件：Smoke.c      编译器版本 HGASM 0202 页次22

 661  005B              ;# 661 "e:\x-sense_svn\xp02\xp02\src\Smoke.c" 1
 661  005B              	IF ((30)>=2) AND ((30)<( 4 + __PBP__ * 2))
 661  005B              ;# 661 "e:\x-sense_svn\xp02\xp02\src\Smoke.c" 1
 661  005B              	NOP
 661  005B              	ENDIF
 661  005B              ;# 661 "e:\x-sense_svn\xp02\xp02\src\Smoke.c" 1
 661  005B              	IF ((30)>=3) AND ((30)<( 4 + __PBP__ * 2))
 661  005B              ;# 661 "e:\x-sense_svn\xp02\xp02\src\Smoke.c" 1
 661  005B              	NOP
 661  005B              	ENDIF
 661  005B              ;# 661 "e:\x-sense_svn\xp02\xp02\src\Smoke.c" 1
 661  005B              	IF ((30)>=4) AND ((30)<( 4 + __PBP__ * 2)) AND ( __PBP__ > 0 )
 661  005B              ;# 661 "e:\x-sense_svn\xp02\xp02\src\Smoke.c" 1
 661  005B              	NOP
 661  005B              	ENDIF
 661  005B              ;# 661 "e:\x-sense_svn\xp02\xp02\src\Smoke.c" 1
 661  005B              	IF ((30)>=5) AND ((30)<( 4 + __PBP__ * 2)) AND ( __PBP__ > 0 )
 661  005B              ;# 661 "e:\x-sense_svn\xp02\xp02\src\Smoke.c" 1
 661  005B              	NOP
 661  005B              	ENDIF
 661  005B              ;# 661 "e:\x-sense_svn\xp02\xp02\src\Smoke.c" 1
 661  005B              	IF ((30)>=6) AND ((30)<( 4 + __PBP__ * 2))  AND ( __PBP__ > 1 )
 661  005B              ;# 661 "e:\x-sense_svn\xp02\xp02\src\Smoke.c" 1
 661  005B              	NOP
 661  005B              	ENDIF
 661  005B              ;# 661 "e:\x-sense_svn\xp02\xp02\src\Smoke.c" 1
 661  005B              	IF ((30)>=7) AND ((30)<( 4 + __PBP__ * 2))  AND ( __PBP__ > 1 )
 661  005B              ;# 661 "e:\x-sense_svn\xp02\xp02\src\Smoke.c" 1
 661  005B              	NOP
 661  005B              	ENDIF
 661  005B              ;# 661 "e:\x-sense_svn\xp02\xp02\src\Smoke.c" 1
 661  005B              	IF ((30)>=8) AND ((30)<( 4 + __PBP__ * 2))  AND ( __PBP__ > 2 )
 661  005B              ;# 661 "e:\x-sense_svn\xp02\xp02\src\Smoke.c" 1
 661  005B              	NOP
 661  005B              	ENDIF
 661  005B              ;# 661 "e:\x-sense_svn\xp02\xp02\src\Smoke.c" 1
 661  005B              	IF ((30)==9)  AND ( __PBP__ > 2 )
 661  005B              ;# 661 "e:\x-sense_svn\xp02\xp02\src\Smoke.c" 1
 661  005B              	NOP
 661  005B              	ENDIF
 661  005B              ;# 661 "e:\x-sense_svn\xp02\xp02\src\Smoke.c" 1
 661  005B              	IF ((30)< ( 8 + __PBP__ * 2)) AND ((30)>( 3 + __PBP__ * 2))
 661  005B              ;# 661 "e:\x-sense_svn\xp02\xp02\src\Smoke.c" 1
 661  005B              	fcall __DELAY3 + ( 7 + __PBP__ * 2) -(30)
 661  005B              	ENDIF
 661  005B              ;# 661 "e:\x-sense_svn\xp02\xp02\src\Smoke.c" 1
 661  005B              	IF ((30)< ( 0404h + __PBP__ * 2)) AND ((30)>( 7 + __PBP__ * 2))
 661  005B              ;# 661 "e:\x-sense_svn\xp02\xp02\src\Smoke.c" 1
 661  005B  0F06        	MOV A,((30)-( 4 + __PBP__ * 2))/4
 661  005C              ;# 661 "e:\x-sense_svn\xp02\xp02\src\Smoke.c" 1
 661  005C              	fcall __DELAYX3 + 3 -(((30)-( 4 + __PBP__ * 2)) MOD 4) 
 661  0063              	ENDIF
 661  0063              ;# 661 "e:\x-sense_svn\xp02\xp02\src\Smoke.c" 1
 661  0063              	IF ((30)< ( 040bh + __PBP__ * 2)) AND ((30)> ( 0403h + __PBP__ * 2))
 661  0063              ;# 661 "e:\x-sense_svn\xp02\xp02\src\Smoke.c" 1
 661  0063              	MOV A,0 
 661  0063              ;# 661 "e:\x-sense_svn\xp02\xp02\src\Smoke.c" 1
 661  0063              	fcall __DELAYX6 + ( 040ah + __PBP__ * 2) -(30)
 661  0063              	ENDIF
 661  0063              ;# 661 "e:\x-sense_svn\xp02\xp02\src\Smoke.c" 1
文件：Smoke.c      编译器版本 HGASM 0202 页次23

 661  0063              	IF ((30) >= ( 040bh + __PBP__ * 2)) AND (((((30)-( 9 + __PBP__ * 2))%0402h)/4+1)>256)
 661  0063              ;# 661 "e:\x-sense_svn\xp02\xp02\src\Smoke.c" 1
 661  0063              	MOV A,((30)-( 9 + __PBP__ * 2))/0402h
 661  0063              ;# 661 "e:\x-sense_svn\xp02\xp02\src\Smoke.c" 1
 661  0063              	MOV _builtin_holtek_delay_2,A
 661  0063              ;# 661 "e:\x-sense_svn\xp02\xp02\src\Smoke.c" 1
 661  0063              	MOV A,0
 661  0063              ;# 661 "e:\x-sense_svn\xp02\xp02\src\Smoke.c" 1
 661  0063              	fcall __DELAYY5 +5- ((((30)-( 9 + __PBP__ * 2))%0402h)%6) 
 661  0063              	ENDIF
 661  0063              ;# 661 "e:\x-sense_svn\xp02\xp02\src\Smoke.c" 1
 661  0063              	IF ((30) >= ( 040bh + __PBP__ * 2)) AND (((((30)-( 9 + __PBP__ * 2))%0402h)/4+1)<=256)
 661  0063              ;# 661 "e:\x-sense_svn\xp02\xp02\src\Smoke.c" 1
 661  0063              	MOV A,((30)-( 9 + __PBP__ * 2))/0402h
 661  0063              ;# 661 "e:\x-sense_svn\xp02\xp02\src\Smoke.c" 1
 661  0063              	MOV _builtin_holtek_delay_2,A
 661  0063              ;# 661 "e:\x-sense_svn\xp02\xp02\src\Smoke.c" 1
 661  0063              	MOV A,(((30)-( 9 + __PBP__ * 2))%0402h)/4+1
 661  0063              ;# 661 "e:\x-sense_svn\xp02\xp02\src\Smoke.c" 1
 661  0063              	fcall __DELAYY3 +3-((((30)-( 9 + __PBP__ * 2))%0402h)%4) 
 661  0063              	ENDIF
 663  0063              #line 663 "e:\x-sense_svn\xp02\xp02\src\Smoke.c"
 663  0063  1F00     R  	clr _SmokeAO[3]
 663  0064  1F00     R  	clr _SmokeAO[4]
 664  0065              #line 664 "e:\x-sense_svn\xp02\xp02\src\Smoke.c"
 664  0065  3443        	clr [67].0
 664  0066  1F00     E  	clr rb
 664  0067  1F00     E  	clr rc
 665  0068              #line 665 "e:\x-sense_svn\xp02\xp02\src\Smoke.c"
 665  0068  1F00     E  	clr ra
 665  0069              _L50:
 665  0069  0700     E  	mov a,ra
 665  006A  0200     R  	sub a,_AdcGetSmokeSample_2[1]
 665  006B  3D0A        	sz z
 665  006C  2800     R  	jmp _L59
 668  006D              #line 668 "e:\x-sense_svn\xp02\xp02\src\Smoke.c"
 668  006D  37AA        	clr [42].7
 669  006E              #line 669 "e:\x-sense_svn\xp02\xp02\src\Smoke.c"
 669  006E  33AA        	set [42].7
 670  006F              #line 670 "e:\x-sense_svn\xp02\xp02\src\Smoke.c"
 670  006F  37AA        	clr [42].7
 670  0070              _L52:
 680  0070              #line 680 "e:\x-sense_svn\xp02\xp02\src\Smoke.c"
 680  0070  3F2A        	sz [42].6
 680  0071  2800     R  	jmp _L52
 682  0072              #line 682 "e:\x-sense_svn\xp02\xp02\src\Smoke.c"
 682  0072  072D        	mov a,[45]
 682  0073  0080     R  	mov _AdcGetSmokeSample_2[4],a
 682  0074  1F00     R  	clr _AdcGetSmokeSample_2[3]
 682  0075  0700     R  	mov a,_AdcGetSmokeSample_2[4]
 682  0076  0080     E  	mov re,a
 682  0077  072E        	mov a,[46]
 682  0078  0500     R  	or a,_AdcGetSmokeSample_2[3]
 682  0079  0080     E  	mov rd,a
 682  007A  0700     E  	mov a,rb
 682  007B  0200     E  	sub a,rd
 682  007C  0700     E  	mov a,rc
 682  007D  1200     E  	sbc a,re
 682  007E  3C0A        	sz c
 682  007F  2800     R  	jmp _L56
文件：Smoke.c      编译器版本 HGASM 0202 页次24

 682  0080  0700     E  	mov a,rd
 682  0081  0080     E  	mov rb,a
 682  0082  0700     E  	mov a,re
 682  0083  0080     E  	mov rc,a
 682  0084              _L56:
 665  0084              #line 665 "e:\x-sense_svn\xp02\xp02\src\Smoke.c"
 665  0084  1480     E  	inc ra
 665  0085  2800     R  	jmp _L50
 665  0086              _L59:
 665  0086  0700     E  	mov a,rb
 665  0087  0080     R  	mov _SmokeAO[3],a
 665  0088  0700     E  	mov a,rc
 665  0089  0080     R  	mov _SmokeAO[4],a
 696  008A              #line 696 "e:\x-sense_svn\xp02\xp02\src\Smoke.c"
 696  008A  3043        	set [67].0
 697  008B              #line 697 "e:\x-sense_svn\xp02\xp02\src\Smoke.c"
 697  008B  351B        	clr [27].2
 698  008C              #line 698 "e:\x-sense_svn\xp02\xp02\src\Smoke.c"
 698  008C  37BF        	clr [63].7
 699  008D              #line 699 "e:\x-sense_svn\xp02\xp02\src\Smoke.c"
 699  008D  343F        	clr [63].0
 707  008E              #line 707 "e:\x-sense_svn\xp02\xp02\src\Smoke.c"
 707  008E  36AA        	clr [42].5
 709  008F              #line 709 "e:\x-sense_svn\xp02\xp02\src\Smoke.c"
 709  008F  3727        	clr [39].6
 710  0090              #line 710 "e:\x-sense_svn\xp02\xp02\src\Smoke.c"
 710  0090  3725        	clr [37].6
 711  0091              #line 711 "e:\x-sense_svn\xp02\xp02\src\Smoke.c"
 711  0091  3422        	clr [34].0
 713  0092              #line 713 "e:\x-sense_svn\xp02\xp02\src\Smoke.c"
 713  0092  37BF        	clr [63].7
 714  0093              #line 714 "e:\x-sense_svn\xp02\xp02\src\Smoke.c"
 714  0093  343F        	clr [63].0
 715  0094              #line 715 "e:\x-sense_svn\xp02\xp02\src\Smoke.c"
 715  0094  359B        	clr [27].3
 716  0095              #line 716 "e:\x-sense_svn\xp02\xp02\src\Smoke.c"
 716  0095  351B        	clr [27].2
 716  0096  0003        	ret
 716  0097              _AdcGetSmokeSample endp
 716  0097              #line 716 "e:\x-sense_svn\xp02\xp02\src\Smoke.c"
 716  0097              #pragma debug scope 1 1
 716  0097              public _GetTempIndex
 716  0097              #pragma debug scope 9 1
 893  0097              #line 893 "e:\x-sense_svn\xp02\xp02\src\Smoke.c"
 893  0000              _GetTempIndex .section 'code'
 893  0000              _GetTempIndex proc
 896  0000              #line 896 "e:\x-sense_svn\xp02\xp02\src\Smoke.c"
 896  0000  1F00     E  	clr _GetAdcSample_2[2]
 896  0001  1F00     E  	clr _GetAdcSample_2[3]
 896  0002  1F00     E  	clr _GetAdcSample_2[0]
 896  0003  1F00     E  	clr _GetAdcSample_2[1]
 896  0004              	fcall _GetAdcSample
 896  000B  0700     E  	mov a,ra
 896  000C  0080     E  	mov rd,a
 896  000D  0700     E  	mov a,rb
 896  000E  0080     E  	mov re,a
 897  000F              #line 897 "e:\x-sense_svn\xp02\xp02\src\Smoke.c"
 897  000F  0F5B        	mov a,91
 897  0010  0080     E  	mov rf,a
 894  0011              #line 894 "e:\x-sense_svn\xp02\xp02\src\Smoke.c"
文件：Smoke.c      编译器版本 HGASM 0202 页次25

 894  0011  1F00     E  	clr ra
 894  0012              _L61:
 897  0012              #line 897 "e:\x-sense_svn\xp02\xp02\src\Smoke.c"
 897  0012  0700     E  	mov a,ra
 897  0013  0080     E  	mov rb,a
 897  0014  1F00     E  	clr rc
 897  0015  340A        	clr c
 897  0016  1A80     E  	rlc rb
 897  0017  1A80     E  	rlc rc
 897  0018  0F00     R  	mov a,low offset _NtcTbl
 897  0019  0300     E  	add a,rb
 897  001A  0083        	mov mp,a
 897  001B  0F00     R  	mov a,high offset _NtcTbl
 897  001C  1300     E  	adc a,rc
 897  001D  0084        	mov sbp,a
 897  001E              	fcall _Crom2Prom
 897  0025  0080     E  	mov rb,a
 897  0026              	fcall _Crom2PromNext
 897  002D  0080     E  	mov rc,a
 897  002E  0700     E  	mov a,rd
 897  002F  0200     E  	sub a,rb
 897  0030  0700     E  	mov a,re
 897  0031  1200     E  	sbc a,rc
 897  0032  3C0A        	sz c
 897  0033  2800     R  	jmp _L62
 899  0034              #line 899 "e:\x-sense_svn\xp02\xp02\src\Smoke.c"
 899  0034  1480     E  	inc ra
 899  0035  1780     E  	sdz rf
 899  0036  2800     R  	jmp _L61
 902  0037              #line 902 "e:\x-sense_svn\xp02\xp02\src\Smoke.c"
 902  0037  0F5A        	mov a,90
 902  0038  0080     E  	mov ra,a
 902  0039              _L62:
 911  0039              #line 911 "e:\x-sense_svn\xp02\xp02\src\Smoke.c"
 911  0039  0700     E  	mov a,ra
 911  003A  0003        	ret
 911  003B              _GetTempIndex endp
 911  003B              #line 911 "e:\x-sense_svn\xp02\xp02\src\Smoke.c"
 911  003B              #pragma debug scope 1 1
 911  003B              public _GetSmokeData
 911  003B              #pragma debug scope 10 1
 923  003B              #line 923 "e:\x-sense_svn\xp02\xp02\src\Smoke.c"
 923  0000              _GetSmokeData .section 'code'
 923  0000              _GetSmokeData proc
 923  0000  0004[           local _GetSmokeData_2 db 4 dup(?)	; 0,4
            00
            ]
 925  0004              #line 925 "e:\x-sense_svn\xp02\xp02\src\Smoke.c"
 925  0000  0700     R  	mov a,_SmokeAO[0]
 925  0001  0080     R  	mov _AdcGetSmokeSample_2[1],a
 925  0002  1F00     R  	clr _AdcGetSmokeSample_2[0]
 925  0003  0F01        	mov a,1
 925  0004              	fcall _AdcGetSmokeSample
 932  000B              #line 932 "e:\x-sense_svn\xp02\xp02\src\Smoke.c"
 932  000B  0700     E  	mov a,_PwrAO[0]
 932  000C  0080     R  	mov _GetSmokeData_2[2],a
 932  000D  0700     E  	mov a,_PwrAO[1]
 932  000E  0080     R  	mov _GetSmokeData_2[3],a
 932  000F  0700     R  	mov a,_SmokeAO[1]
 932  0010  0080     R  	mov _GetVol_2[2],a
文件：Smoke.c      编译器版本 HGASM 0202 页次26

 932  0011  0700     R  	mov a,_SmokeAO[2]
 932  0012  0080     R  	mov _GetVol_2[3],a
 932  0013  0700     R  	mov a,_GetSmokeData_2[2]
 932  0014  0080     R  	mov _GetVol_2[0],a
 932  0015  0700     R  	mov a,_GetSmokeData_2[3]
 932  0016  0080     R  	mov _GetVol_2[1],a
 932  0017              	fcall _GetVol
 932  001E  0700     E  	mov a,ra
 932  001F  0080     R  	mov _GetSmokeData_2[0],a
 932  0020  0700     E  	mov a,rb
 932  0021  0080     R  	mov _GetSmokeData_2[1],a
 932  0022  0700     R  	mov a,_GetSmokeData_2[0]
 932  0023  0080     R  	mov _SmokeAO[1],a
 932  0024  0700     R  	mov a,_GetSmokeData_2[1]
 932  0025  0080     R  	mov _SmokeAO[2],a
 933  0026              #line 933 "e:\x-sense_svn\xp02\xp02\src\Smoke.c"
 933  0026  0700     R  	mov a,_SmokeAO[3]
 933  0027  0080     R  	mov _GetVol_2[2],a
 933  0028  0700     R  	mov a,_SmokeAO[4]
 933  0029  0080     R  	mov _GetVol_2[3],a
 933  002A  0700     R  	mov a,_GetSmokeData_2[2]
 933  002B  0080     R  	mov _GetVol_2[0],a
 933  002C  0700     R  	mov a,_GetSmokeData_2[3]
 933  002D  0080     R  	mov _GetVol_2[1],a
 933  002E              	fcall _GetVol
 933  0035              #pragma debug scope 11 10
 933  0035              ;begin block, line: 933.-1
 933  0035              #pragma debug scope 12 11
 933  0035              ;begin block, line: 933.-1
1008  0035              #line 1008 "e:\x-sense_svn\xp02\xp02\src\Smoke.c"
1008  0035  0700     E  	mov a,_PwrAO[4]
1008  0036  0080     E  	mov rd,a
1008  0037  1F00     E  	clr re
1008  0038  340A        	clr c
1008  0039  1A80     E  	rlc rd
1008  003A  1A80     E  	rlc re
1008  003B  0F00     R  	mov a,low offset _SmokeCaliVol
1008  003C  0300     E  	add a,rd
1008  003D  0083        	mov mp,a
1008  003E  0F00     R  	mov a,high offset _SmokeCaliVol
1008  003F  1300     E  	adc a,re
1008  0040  0084        	mov sbp,a
1008  0041              	fcall _Crom2Prom
1008  0048  0080     E  	mov rd,a
1008  0049              	fcall _Crom2PromNext
1008  0050  0080     E  	mov re,a
1008  0051  0700     E  	mov a,rd
1008  0052  0080     E  	mov _builtin_holtek_mulsi3_2[0],a
1008  0053  0700     E  	mov a,re
1008  0054  0080     E  	mov _builtin_holtek_mulsi3_2[1],a
1008  0055  1F00     E  	clr _builtin_holtek_mulsi3_2[2]
1008  0056  1F00     E  	clr _builtin_holtek_mulsi3_2[3]
1008  0057  0700     E  	mov a,ra
1008  0058  0080     E  	mov _builtin_holtek_mulsi3_2[4],a
1008  0059  0700     E  	mov a,rb
1008  005A  0080     E  	mov _builtin_holtek_mulsi3_2[5],a
1008  005B  1F00     E  	clr _builtin_holtek_mulsi3_2[6]
1008  005C  1F00     E  	clr _builtin_holtek_mulsi3_2[7]
1008  005D              	fcall _builtin_holtek_mulsi3
1008  0064  0700     E  	mov a,_builtin_holtek_mulsi3_2[8]
文件：Smoke.c      编译器版本 HGASM 0202 页次27

1008  0065  0080     E  	mov rd,a
1008  0066  0700     E  	mov a,_builtin_holtek_mulsi3_2[9]
1008  0067  0080     E  	mov re,a
1008  0068  0700     E  	mov a,_builtin_holtek_mulsi3_2[10]
1008  0069  0080     E  	mov rf,a
1008  006A  0700     E  	mov a,_builtin_holtek_mulsi3_2[11]
1008  006B  0080     E  	mov rg,a
1009  006C              #line 1009 "e:\x-sense_svn\xp02\xp02\src\Smoke.c"
1009  006C  1F00     E  	clr _builtin_holtek_udivmodsi4_2[12]
1009  006D  0700     E  	mov a,rd  
1009  006E  0080     E  	mov _builtin_holtek_udivmodsi4_2[0],a  
1009  006F  0700     E  	mov a,re  
1009  0070  0080     E  	mov _builtin_holtek_udivmodsi4_2[1],a
1009  0071  0700     E  	mov a,rf  
1009  0072  0080     E  	mov _builtin_holtek_udivmodsi4_2[2],a  
1009  0073  0700     E  	mov a,rg  
1009  0074  0080     E  	mov _builtin_holtek_udivmodsi4_2[3],a
1009  0075  0FE8        	mov a,232  
1009  0076  0080     E  	mov _builtin_holtek_udivmodsi4_2[4],a  
1009  0077  0F03        	mov a,3  
1009  0078  0080     E  	mov _builtin_holtek_udivmodsi4_2[5],a
1009  0079  1F00     E  	clr _builtin_holtek_udivmodsi4_2[6]
1009  007A  1F00     E  	clr _builtin_holtek_udivmodsi4_2[7]
1009  007B              	fcall _builtin_holtek_udivmodsi4
1009  0082  0700     E  	mov a,_builtin_holtek_udivmodsi4_2[0]  
1009  0083  0080     E  	mov rd,a  
1009  0084  0700     E  	mov a,_builtin_holtek_udivmodsi4_2[1]  
1009  0085  0080     E  	mov re,a
1009  0086  0700     E  	mov a,_builtin_holtek_udivmodsi4_2[2]  
1009  0087  0080     E  	mov rf,a  
1009  0088  0700     E  	mov a,_builtin_holtek_udivmodsi4_2[3]  
1009  0089  0080     E  	mov rg,a
1009  008A              #pragma debug scope 11 10
1009  008A              #pragma debug scope 10 1
 934  008A              #line 934 "e:\x-sense_svn\xp02\xp02\src\Smoke.c"
 934  008A  0700     E  	mov a,rd
 934  008B  0080     R  	mov _SmokeAO[3],a
 934  008C  0700     E  	mov a,re
 934  008D  0080     R  	mov _SmokeAO[4],a
 936  008E              #line 936 "e:\x-sense_svn\xp02\xp02\src\Smoke.c"
 936  008E  0700     R  	mov a,_GetSmokeData_2[0]
 936  008F  0200     E  	sub a,rd
 936  0090  0700     R  	mov a,_GetSmokeData_2[1]
 936  0091  1200     E  	sbc a,re
 936  0092  3C0A        	sz c
 936  0093  2800     R  	jmp _L67
 942  0094              #line 942 "e:\x-sense_svn\xp02\xp02\src\Smoke.c"
 942  0094  0700     E  	mov a,rd
 942  0095  0200     R  	sub a,_GetSmokeData_2[0]
 942  0096  0080     E  	mov ra,a
 942  0097  0700     E  	mov a,re
 942  0098  1200     R  	sbc a,_GetSmokeData_2[1]
 942  0099  0080     E  	mov rb,a
 942  009A  0700     E  	mov a,ra
 942  009B  0080     E  	mov rd,a
 942  009C  0700     E  	mov a,rb
 942  009D  0080     E  	mov re,a
 942  009E  1F00     E  	clr rf
 942  009F  1F00     E  	clr rg
 942  00A0  2800     R  	jmp _L66
文件：Smoke.c      编译器版本 HGASM 0202 页次28

 942  00A1              _L67:
 938  00A1              #line 938 "e:\x-sense_svn\xp02\xp02\src\Smoke.c"
 938  00A1  1F00     E  	clr rd
 938  00A2  1F00     E  	clr re
 938  00A3  1F00     E  	clr rf
 938  00A4  1F00     E  	clr rg
 938  00A5              _L66:
 951  00A5              #line 951 "e:\x-sense_svn\xp02\xp02\src\Smoke.c"
 951  00A5  0700     E  	mov a,rd
 951  00A6  0080     E  	mov ra,a
 951  00A7  0700     E  	mov a,re
 951  00A8  0080     E  	mov rb,a
 951  00A9  0003        	ret
 951  00AA              _GetSmokeData endp
 951  00AA              #line 951 "e:\x-sense_svn\xp02\xp02\src\Smoke.c"
 951  00AA              #pragma debug scope 1 1
 951  00AA              public _SmokeSensorCheck
 951  00AA              #pragma debug scope 13 1
 978  00AA              #line 978 "e:\x-sense_svn\xp02\xp02\src\Smoke.c"
 978  0000              _SmokeSensorCheck .section 'code'
 978  0000              _SmokeSensorCheck proc
 982  0000              #line 982 "e:\x-sense_svn\xp02\xp02\src\Smoke.c"
 982  0000              	fcall _GetSmokeData
 983  0007              #line 983 "e:\x-sense_svn\xp02\xp02\src\Smoke.c"
 983  0007  0F2B        	mov a,43
 983  0008  0200     E  	sub a,ra
 983  0009  0F01        	mov a,1
 983  000A  1200     E  	sbc a,rb
 983  000B  380A        	snz c
 983  000C  2800     R  	jmp _L70
 985  000D              #line 985 "e:\x-sense_svn\xp02\xp02\src\Smoke.c"
 985  000D  0F08        	mov a,8
 985  000E  0080     R  	mov _SmokeAO[7],a
 986  000F              #line 986 "e:\x-sense_svn\xp02\xp02\src\Smoke.c"
 986  000F  0F01        	mov a,1
 986  0010  0080     E  	mov ra,a
 986  0011  1F00     E  	clr rb
 986  0012  2800     R  	jmp _L69
 986  0013              _L70:
 979  0013              #line 979 "e:\x-sense_svn\xp02\xp02\src\Smoke.c"
 979  0013  1F00     E  	clr ra
 979  0014  1F00     E  	clr rb
 979  0015              _L69:
 979  0015  0003        	ret
 979  0016              _SmokeSensorCheck endp
 979  0016              #line 979 "e:\x-sense_svn\xp02\xp02\src\Smoke.c"
 979  0016              #pragma debug scope 1 1
 979  0010              @crom	.section 'crom'
 979  0010              _LC2:
 979  0010              	db 053h,06dh,06fh,06bh,065h,03ah,025h,064h,02ch,00h
 979  0015              @crom	.section 'crom'
 979  0015              _LC3:
 979  0015              	db 053h,065h,06eh,073h,06fh,072h,074h,069h,076h,065h
 979  001A              	db 03ah,025h,064h,0ah,00h
 979  001D              @crom	.section 'crom'
 979  001D              _LC4:
 979  001D              	db 054h,03dh,025h,064h,043h,02ch,020h,044h,03dh,00h
 979  0022              @crom	.section 'crom'
 979  0022              _LC5:
 979  0022              	db 025h,064h,00h
文件：Smoke.c      编译器版本 HGASM 0202 页次29

 979  0023              @crom	.section 'crom'
 979  0023              _LC6:
 979  0023              	db 02eh,025h,064h,00h
 979  0025              @crom	.section 'crom'
 979  0025              _LC7:
 979  0025              	db 02ch,020h,04ch,03dh,00h
 979  0028              @crom	.section 'crom'
 979  0028              _LC8:
 979  0028              	db 0ah,00h
 979  0029              public _SmokeAlarmCheck
 979  0029              #pragma debug scope 14 1
1023  0029              #line 1023 "e:\x-sense_svn\xp02\xp02\src\Smoke.c"
1023  0000              _SmokeAlarmCheck .section 'code'
1023  0000              _SmokeAlarmCheck proc
1023  0000  0008[           local _SmokeAlarmCheck_2 db 8 dup(?)	; 0,8
            00
            ]
1023  0008              #pragma debug variable 10 14 _SmokeAlarmCheck_2+0 "SmokeDarkVal"
1025  0008              #line 1025 "e:\x-sense_svn\xp02\xp02\src\Smoke.c"
1025  0000  0700     R  	mov a,_SmokeAO[1]
1025  0001  0080     R  	mov _SmokeAlarmCheck_2[0],a
1025  0002  0700     R  	mov a,_SmokeAO[2]
1025  0003  0080     R  	mov _SmokeAlarmCheck_2[1],a
1028  0004              #line 1028 "e:\x-sense_svn\xp02\xp02\src\Smoke.c"
1028  0004              	fcall _GetSmokeData
1028  000B  0700     E  	mov a,ra
1028  000C  0080     R  	mov ___SmokeData_3254[0],a
1028  000D  0700     E  	mov a,rb
1028  000E  0080     R  	mov ___SmokeData_3254[1],a
1049  000F              #line 1049 "e:\x-sense_svn\xp02\xp02\src\Smoke.c"
1049  000F  0700     R  	mov a,_SmokeAO[1]
1049  0010  0080     E  	mov rd,a
1049  0011  0700     R  	mov a,_SmokeAO[2]
1049  0012  0080     E  	mov re,a
1049  0013  0F46        	mov a,70
1049  0014  0300     E  	add a,rd
1049  0015  0080     E  	mov rf,a
1049  0016  0F00        	mov a,0
1049  0017  1300     E  	adc a,re
1049  0018  0080     E  	mov rg,a
1049  0019  0700     E  	mov a,rf
1049  001A  0200     R  	sub a,_SmokeAlarmCheck_2[0]
1049  001B  0700     E  	mov a,rg
1049  001C  1200     R  	sbc a,_SmokeAlarmCheck_2[1]
1049  001D  380A        	snz c
1049  001E  2800     R  	jmp _L72
1050  001F              #line 1050 "e:\x-sense_svn\xp02\xp02\src\Smoke.c"
1050  001F  0F46        	mov a,70
1050  0020  0300     R  	add a,_SmokeAlarmCheck_2[0]
1050  0021  0080     E  	mov rf,a
1050  0022  0F00        	mov a,0
1050  0023  1300     R  	adc a,_SmokeAlarmCheck_2[1]
1050  0024  0080     E  	mov rg,a
1050  0025  0700     E  	mov a,rf
1050  0026  0200     E  	sub a,rd
1050  0027  0700     E  	mov a,rg
1050  0028  1200     E  	sbc a,re
1050  0029  380A        	snz c
1050  002A  2800     R  	jmp _L72
1051  002B              #line 1051 "e:\x-sense_svn\xp02\xp02\src\Smoke.c"
文件：Smoke.c      编译器版本 HGASM 0202 页次30

1051  002B  0700     R  	mov a,_SmokeAO[3]
1051  002C  0080     R  	mov _SmokeAlarmCheck_2[4],a
1051  002D  0700     R  	mov a,_SmokeAO[4]
1051  002E  0080     R  	mov _SmokeAlarmCheck_2[5],a
1051  002F  0F46        	mov a,70
1051  0030  0300     R  	add a,_SmokeAlarmCheck_2[4]
1051  0031  0080     E  	mov rf,a
1051  0032  0F00        	mov a,0
1051  0033  1300     R  	adc a,_SmokeAlarmCheck_2[5]
1051  0034  0080     E  	mov rg,a
1051  0035  0700     E  	mov a,rf
1051  0036  0200     E  	sub a,rd
1051  0037  0700     E  	mov a,rg
1051  0038  1200     E  	sbc a,re
1051  0039  3C0A        	sz c
1051  003A  2800     R  	jmp _L73
1051  003B              _L72:
1056  003B              #line 1056 "e:\x-sense_svn\xp02\xp02\src\Smoke.c"
1056  003B  1F00     R  	clr _SmokeAO[5]
1057  003C              #line 1057 "e:\x-sense_svn\xp02\xp02\src\Smoke.c"
1057  003C  1F00     R  	clr _SmokeAO[7]
1057  003D  2800     R  	jmp _L74
1057  003E              _L73:
1065  003E              #line 1065 "e:\x-sense_svn\xp02\xp02\src\Smoke.c"
1065  003E  0F2C        	mov a,44
1065  003F  0200     E  	sub a,ra
1065  0040  0F01        	mov a,1
1065  0041  1200     E  	sbc a,rb
1065  0042  3C0A        	sz c
1065  0043  2800     R  	jmp _L75
1067  0044              #line 1067 "e:\x-sense_svn\xp02\xp02\src\Smoke.c"
1067  0044  1F00     R  	clr _SmokeAO[7]
1067  0045              #pragma debug scope 15 14
1067  0045              ;begin block, line: 1067.-1
1067  0045              #pragma debug scope 16 15
1067  0045              ;begin block, line: 1067.-1
 964  0045              #line 964 "e:\x-sense_svn\xp02\xp02\src\Smoke.c"
 964  0045  0700     E  	mov a,_SysAO[20]
 964  0046  0080     E  	mov rd,a
 964  0047  1F00     E  	clr re
 964  0048  340A        	clr c
 964  0049  1A80     E  	rlc rd
 964  004A  1A80     E  	rlc re
 964  004B  0F00     R  	mov a,low offset _SmokeTempRate
 964  004C  0300     E  	add a,rd
 964  004D  0083        	mov mp,a
 964  004E  0F00     R  	mov a,high offset _SmokeTempRate
 964  004F  1300     E  	adc a,re
 964  0050  0084        	mov sbp,a
 964  0051              	fcall _Crom2Prom
 964  0058  0080     E  	mov rd,a
 964  0059              	fcall _Crom2PromNext
 964  0060  0080     E  	mov re,a
 964  0061  0700     E  	mov a,rd
 964  0062  0080     E  	mov _builtin_holtek_mulsi3_2[0],a
 964  0063  0700     E  	mov a,re
 964  0064  0080     E  	mov _builtin_holtek_mulsi3_2[1],a
 964  0065  1F00     E  	clr _builtin_holtek_mulsi3_2[2]
 964  0066  1F00     E  	clr _builtin_holtek_mulsi3_2[3]
 964  0067  0700     E  	mov a,ra
文件：Smoke.c      编译器版本 HGASM 0202 页次31

 964  0068  0080     E  	mov _builtin_holtek_mulsi3_2[4],a
 964  0069  0700     E  	mov a,rb
 964  006A  0080     E  	mov _builtin_holtek_mulsi3_2[5],a
 964  006B  1F00     E  	clr _builtin_holtek_mulsi3_2[6]
 964  006C  1F00     E  	clr _builtin_holtek_mulsi3_2[7]
 964  006D              	fcall _builtin_holtek_mulsi3
 964  0074  0700     E  	mov a,_builtin_holtek_mulsi3_2[8]
 964  0075  0080     E  	mov rd,a
 964  0076  0700     E  	mov a,_builtin_holtek_mulsi3_2[9]
 964  0077  0080     E  	mov re,a
 964  0078  0700     E  	mov a,_builtin_holtek_mulsi3_2[10]
 964  0079  0080     E  	mov rf,a
 964  007A  0700     E  	mov a,_builtin_holtek_mulsi3_2[11]
 964  007B  0080     E  	mov rg,a
 965  007C              #line 965 "e:\x-sense_svn\xp02\xp02\src\Smoke.c"
 965  007C  1F00     E  	clr _builtin_holtek_udivmodsi4_2[12]
 965  007D  0700     E  	mov a,rd  
 965  007E  0080     E  	mov _builtin_holtek_udivmodsi4_2[0],a  
 965  007F  0700     E  	mov a,re  
 965  0080  0080     E  	mov _builtin_holtek_udivmodsi4_2[1],a
 965  0081  0700     E  	mov a,rf  
 965  0082  0080     E  	mov _builtin_holtek_udivmodsi4_2[2],a  
 965  0083  0700     E  	mov a,rg  
 965  0084  0080     E  	mov _builtin_holtek_udivmodsi4_2[3],a
 965  0085  0FE8        	mov a,232  
 965  0086  0080     E  	mov _builtin_holtek_udivmodsi4_2[4],a  
 965  0087  0F03        	mov a,3  
 965  0088  0080     E  	mov _builtin_holtek_udivmodsi4_2[5],a
 965  0089  1F00     E  	clr _builtin_holtek_udivmodsi4_2[6]
 965  008A  1F00     E  	clr _builtin_holtek_udivmodsi4_2[7]
 965  008B              	fcall _builtin_holtek_udivmodsi4
 965  0092  0700     E  	mov a,_builtin_holtek_udivmodsi4_2[0]  
 965  0093  0080     R  	mov _SmokeAlarmCheck_2[0],a  
 965  0094  0700     E  	mov a,_builtin_holtek_udivmodsi4_2[1]  
 965  0095  0080     R  	mov _SmokeAlarmCheck_2[1],a
 965  0096  0700     E  	mov a,_builtin_holtek_udivmodsi4_2[2]  
 965  0097  0080     R  	mov _SmokeAlarmCheck_2[2],a  
 965  0098  0700     E  	mov a,_builtin_holtek_udivmodsi4_2[3]  
 965  0099  0080     R  	mov _SmokeAlarmCheck_2[3],a
 967  009A              #line 967 "e:\x-sense_svn\xp02\xp02\src\Smoke.c"
 967  009A  0700     R  	mov a,_SmokeAlarmCheck_2[0]
 967  009B  0080     E  	mov rb,a
 967  009C  0700     R  	mov a,_SmokeAlarmCheck_2[1]
 967  009D  0080     E  	mov rc,a
 967  009E              #pragma debug scope 15 14
 967  009E              #pragma debug scope 14 1
1068  009E              #line 1068 "e:\x-sense_svn\xp02\xp02\src\Smoke.c"
1068  009E  0700     R  	mov a,_SmokeAlarmCheck_2[0]
1068  009F  0080     R  	mov ___SmokeData_3254[0],a
1068  00A0  0700     R  	mov a,_SmokeAlarmCheck_2[1]
1068  00A1  0080     R  	mov ___SmokeData_3254[1],a
1069  00A2              #line 1069 "e:\x-sense_svn\xp02\xp02\src\Smoke.c"
1069  00A2  0700     E  	mov a,_SysAO[0]
1069  00A3  0080     E  	mov rd,a
1069  00A4  0700     E  	mov a,_SysAO[1]
1069  00A5  0080     E  	mov re,a
1069  00A6  0700     E  	mov a,rd
1069  00A7  0C05        	xor a,5
1069  00A8  0500     E  	or a,re
1069  00A9  3D0A        	sz z
文件：Smoke.c      编译器版本 HGASM 0202 页次32

1069  00AA  2800     R  	jmp _L74
1080  00AB              #line 1080 "e:\x-sense_svn\xp02\xp02\src\Smoke.c"
1080  00AB  0700     R  	mov a,_SmokeAO[8]
1080  00AC  0080     E  	mov rf,a
1080  00AD  0700     R  	mov a,_SmokeAO[9]
1080  00AE  0080     E  	mov rg,a
1080  00AF  0700     E  	mov a,rb
1080  00B0  0200     E  	sub a,rf
1080  00B1  0700     E  	mov a,rc
1080  00B2  1200     E  	sbc a,rg
1080  00B3  380A        	snz c
1080  00B4  2800     R  	jmp _L77
1082  00B5              #line 1082 "e:\x-sense_svn\xp02\xp02\src\Smoke.c"
1082  00B5  1F00     R  	clr _SmokeAO[13]
1083  00B6              #line 1083 "e:\x-sense_svn\xp02\xp02\src\Smoke.c"
1083  00B6  1F00     R  	clr _SmokeAO[6]
1084  00B7              #line 1084 "e:\x-sense_svn\xp02\xp02\src\Smoke.c"
1084  00B7  1400     R  	inca _SmokeAO[5]
1084  00B8  0080     R  	mov _SmokeAlarmCheck_2[0],a
1084  00B9  0700     R  	mov a,_SmokeAlarmCheck_2[0]
1084  00BA  0080     R  	mov _SmokeAO[5],a
1085  00BB              #line 1085 "e:\x-sense_svn\xp02\xp02\src\Smoke.c"
1085  00BB  0F02        	mov a,2
1085  00BC  0200     R  	sub a,_SmokeAlarmCheck_2[0]
1085  00BD  3C0A        	sz c
1085  00BE  2800     R  	jmp _L78
1090  00BF              #line 1090 "e:\x-sense_svn\xp02\xp02\src\Smoke.c"
1090  00BF  0F03        	mov a,3
1090  00C0  0080     R  	mov _SmokeAO[5],a
1091  00C1              #line 1091 "e:\x-sense_svn\xp02\xp02\src\Smoke.c"
1091  00C1  0F14        	mov a,20
1091  00C2  0080     E  	mov _SysteSetSig_2[0],a
1091  00C3  1F00     E  	clr _SysteSetSig_2[1]
1091  00C4  2800     R  	jmp _L85
1091  00C5              _L78:
1093  00C5              #line 1093 "e:\x-sense_svn\xp02\xp02\src\Smoke.c"
1093  00C5  1700     R  	sdza _SmokeAlarmCheck_2[0]
1093  00C6  2800     R  	jmp _L79
1095  00C7              #line 1095 "e:\x-sense_svn\xp02\xp02\src\Smoke.c"
1095  00C7  0F07        	mov a,7
1095  00C8  0080     E  	mov _PwrAO[11],a
1095  00C9  2800     R  	jmp _L74
1095  00CA              _L79:
1097  00CA              #line 1097 "e:\x-sense_svn\xp02\xp02\src\Smoke.c"
1097  00CA  0700     R  	mov a,_SmokeAlarmCheck_2[0]
1097  00CB  0A02        	sub a,2
1097  00CC  390A        	snz z
1097  00CD  2800     R  	jmp _L74
1099  00CE              #line 1099 "e:\x-sense_svn\xp02\xp02\src\Smoke.c"
1099  00CE  0F08        	mov a,8
1099  00CF  0080     E  	mov _PwrAO[11],a
1099  00D0  2800     R  	jmp _L74
1099  00D1              _L77:
1104  00D1              #line 1104 "e:\x-sense_svn\xp02\xp02\src\Smoke.c"
1104  00D1  0FFD        	mov a,253
1104  00D2  0380     E  	addm a,rd
1104  00D3  0FFF        	mov a,255
1104  00D4  1380     E  	adcm a,re
1104  00D5  0F01        	mov a,1
1104  00D6  0200     E  	sub a,rd
文件：Smoke.c      编译器版本 HGASM 0202 页次33

1104  00D7  0F00        	mov a,0
1104  00D8  1200     E  	sbc a,re
1104  00D9  380A        	snz c
1104  00DA  2800     R  	jmp _L81
1106  00DB              #line 1106 "e:\x-sense_svn\xp02\xp02\src\Smoke.c"
1106  00DB  1400     R  	inca _SmokeAO[6]
1106  00DC  0080     E  	mov ra,a
1106  00DD  0700     E  	mov a,ra
1106  00DE  0080     R  	mov _SmokeAO[6],a
1107  00DF              #line 1107 "e:\x-sense_svn\xp02\xp02\src\Smoke.c"
1107  00DF  0F05        	mov a,5
1107  00E0  0200     E  	sub a,ra
1107  00E1  3C0A        	sz c
1107  00E2  2800     R  	jmp _L74
1112  00E3              #line 1112 "e:\x-sense_svn\xp02\xp02\src\Smoke.c"
1112  00E3  1F00     R  	clr _SmokeAO[6]
1113  00E4              #line 1113 "e:\x-sense_svn\xp02\xp02\src\Smoke.c"
1113  00E4  0F17        	mov a,23
1113  00E5  0080     E  	mov _SysteSetSig_2[0],a
1113  00E6  1F00     E  	clr _SysteSetSig_2[1]
1113  00E7              	fcall _SysteSetSig
1114  00EE              #line 1114 "e:\x-sense_svn\xp02\xp02\src\Smoke.c"
1114  00EE  1F00     R  	clr _SmokeAO[5]
1114  00EF  2800     R  	jmp _L74
1114  00F0              _L81:
1119  00F0              #line 1119 "e:\x-sense_svn\xp02\xp02\src\Smoke.c"
1119  00F0  1F00     R  	clr _SmokeAO[5]
1120  00F1              #line 1120 "e:\x-sense_svn\xp02\xp02\src\Smoke.c"
1120  00F1  1E00     R  	snz _SmokeAO[13]
1120  00F2  2800     R  	jmp _L74
1122  00F3              #line 1122 "e:\x-sense_svn\xp02\xp02\src\Smoke.c"
1122  00F3  1F00     R  	clr _SmokeAO[13]
1123  00F4              #line 1123 "e:\x-sense_svn\xp02\xp02\src\Smoke.c"
1123  00F4  1400     R  	inca _SmokeAO[14]
1123  00F5  0080     E  	mov ra,a
1123  00F6  0700     E  	mov a,ra
1123  00F7  0080     R  	mov _SmokeAO[14],a
1124  00F8              #line 1124 "e:\x-sense_svn\xp02\xp02\src\Smoke.c"
1124  00F8  0700     R  	mov a,_SmokeAlarmCheck_2[0]
1124  00F9  0300     R  	add a,_SmokeAO[10]
1124  00FA  0080     E  	mov rb,a
1124  00FB  0700     R  	mov a,_SmokeAlarmCheck_2[1]
1124  00FC  1300     R  	adc a,_SmokeAO[11]
1124  00FD  0080     E  	mov rc,a
1124  00FE  0700     E  	mov a,rb
1124  00FF  0080     R  	mov _SmokeAO[10],a
1124  0100  0700     E  	mov a,rc
1124  0101  0080     R  	mov _SmokeAO[11],a
1131  0102              #line 1131 "e:\x-sense_svn\xp02\xp02\src\Smoke.c"
1131  0102  0F0F        	mov a,15
1131  0103  0200     E  	sub a,ra
1131  0104  3C0A        	sz c
1131  0105  2800     R  	jmp _L74
1133  0106              #line 1133 "e:\x-sense_svn\xp02\xp02\src\Smoke.c"
1133  0106  1F00     R  	clr _SmokeAO[14]
1134  0107              #line 1134 "e:\x-sense_svn\xp02\xp02\src\Smoke.c"
1134  0107  0F04        	mov a,4
1134  0108              _LI2:
1134  0108  340A        	clr c
1134  0109  1B80     E  	rrc rc
文件：Smoke.c      编译器版本 HGASM 0202 页次34

1134  010A  1B80     E  	rrc rb
1134  010B  1785        	sdz acc
1134  010C  2800     R  	jmp _LI2
1134  010D  0700     E  	mov a,rb
1134  010E  0080     R  	mov _SmokeAO[10],a
1134  010F  0700     E  	mov a,rc
1134  0110  0080     R  	mov _SmokeAO[11],a
1135  0111              #line 1135 "e:\x-sense_svn\xp02\xp02\src\Smoke.c"
1135  0111  0700     E  	mov a,_SMOKE_ALARM_LEVEL[0]
1135  0112  0080     R  	mov _SmokeAlarmCheck_2[0],a
1135  0113  0700     E  	mov a,_SMOKE_ALARM_LEVEL[1]
1135  0114  0080     R  	mov _SmokeAlarmCheck_2[1],a
1135  0115  0700     E  	mov a,rf
1135  0116  0200     R  	sub a,_SmokeAlarmCheck_2[0]
1135  0117  0080     E  	mov rf,a
1135  0118  0700     E  	mov a,rg
1135  0119  1200     R  	sbc a,_SmokeAlarmCheck_2[1]
1135  011A  0080     E  	mov rg,a
1136  011B              #line 1136 "e:\x-sense_svn\xp02\xp02\src\Smoke.c"
1136  011B  0700     R  	mov a,_SmokeAlarmCheck_2[0]
1136  011C  0080     E  	mov rd,a
1136  011D  0700     R  	mov a,_SmokeAlarmCheck_2[1]
1136  011E  0080     E  	mov re,a
1136  011F  340A        	clr c
1136  0120  1B80     E  	rrc re
1136  0121  1B80     E  	rrc rd
1136  0122  340A        	clr c
1136  0123  1B80     E  	rrc re
1136  0124  1B80     E  	rrc rd
1136  0125  0700     E  	mov a,rf
1136  0126  0300     E  	add a,rd
1136  0127  0080     R  	mov _SmokeAlarmCheck_2[6],a
1136  0128  0700     E  	mov a,rg
1136  0129  1300     E  	adc a,re
1136  012A  0080     R  	mov _SmokeAlarmCheck_2[7],a
1136  012B  0700     E  	mov a,rb
1136  012C  0200     R  	sub a,_SmokeAlarmCheck_2[6]
1136  012D  0700     E  	mov a,rc
1136  012E  1200     R  	sbc a,_SmokeAlarmCheck_2[7]
1136  012F  3C0A        	sz c
1136  0130  2800     R  	jmp _L82
1137  0131              #line 1137 "e:\x-sense_svn\xp02\xp02\src\Smoke.c"
1137  0131  0700     E  	mov a,rf
1137  0132  0200     E  	sub a,rd
1137  0133  0080     E  	mov rf,a
1137  0134  0700     E  	mov a,rg
1137  0135  1200     E  	sbc a,re
1137  0136  0080     E  	mov rg,a
1136  0137              #line 1136 "e:\x-sense_svn\xp02\xp02\src\Smoke.c"
1136  0137  0700     E  	mov a,rf
1136  0138  0200     E  	sub a,rb
1136  0139  0700     E  	mov a,rg
1136  013A  1200     E  	sbc a,rc
1136  013B  3C0A        	sz c
1136  013C  2800     R  	jmp _L82
1139  013D              #line 1139 "e:\x-sense_svn\xp02\xp02\src\Smoke.c"
1139  013D  0700     R  	mov a,_SmokeAlarmCheck_2[0]
1139  013E  0300     E  	add a,rb
1139  013F  0080     E  	mov rf,a
1139  0140  0700     R  	mov a,_SmokeAlarmCheck_2[1]
文件：Smoke.c      编译器版本 HGASM 0202 页次35

1139  0141  1300     E  	adc a,rc
1139  0142  0080     E  	mov rg,a
1139  0143  0700     E  	mov a,rf
1139  0144  0080     R  	mov _SmokeAO[8],a
1139  0145  0700     E  	mov a,rg
1139  0146  0080     R  	mov _SmokeAO[9],a
1145  0147              #line 1145 "e:\x-sense_svn\xp02\xp02\src\Smoke.c"
1145  0147  0FBA        	mov a,186
1145  0148  0300     E  	add a,_PwrAO[0]
1145  0149  0080     E  	mov rd,a
1145  014A  0FFF        	mov a,255
1145  014B  1300     E  	adc a,_PwrAO[1]
1145  014C  0080     E  	mov re,a
1145  014D  0700     E  	mov a,rf
1145  014E  0200     E  	sub a,rd
1145  014F  0700     E  	mov a,rg
1145  0150  1200     E  	sbc a,re
1145  0151  3C0A        	sz c
1145  0152  2800     R  	jmp _L83
1145  0153  0700     E  	mov a,rd
1145  0154  0200     R  	sub a,_SmokeAlarmCheck_2[0]
1145  0155  0080     E  	mov rf,a
1145  0156  0700     E  	mov a,re
1145  0157  1200     R  	sbc a,_SmokeAlarmCheck_2[1]
1145  0158  0080     E  	mov rg,a
1145  0159  0700     R  	mov a,_SmokeAlarmCheck_2[4]
1145  015A  0200     E  	sub a,rf
1145  015B  0700     R  	mov a,_SmokeAlarmCheck_2[5]
1145  015C  1200     E  	sbc a,rg
1145  015D  3C0A        	sz c
1145  015E  2800     R  	jmp _L83
1147  015F              #line 1147 "e:\x-sense_svn\xp02\xp02\src\Smoke.c"
1147  015F  0700     E  	mov a,rc
1147  0160  0080     E  	mov _E2promWrite_2[0],a
1147  0161  0F05        	mov a,5
1147  0162              	fcall _E2promWrite
1148  0169              #line 1148 "e:\x-sense_svn\xp02\xp02\src\Smoke.c"
1148  0169  0700     R  	mov a,_SmokeAO[10]
1148  016A  0080     E  	mov _E2promWrite_2[0],a
1148  016B  0F06        	mov a,6
1148  016C              	fcall _E2promWrite
1149  0173              #line 1149 "e:\x-sense_svn\xp02\xp02\src\Smoke.c"
1149  0173  0700     E  	mov a,_SysAO[20]
1149  0174  0080     E  	mov _E2promWrite_2[0],a
1149  0175  0F07        	mov a,7
1149  0176              	fcall _E2promWrite
1149  017D  2800     R  	jmp _L82
1149  017E              _L83:
1152  017E              #line 1152 "e:\x-sense_svn\xp02\xp02\src\Smoke.c"
1152  017E  0700     E  	mov a,rd
1152  017F  0080     R  	mov _SmokeAO[8],a
1152  0180  0700     E  	mov a,re
1152  0181  0080     R  	mov _SmokeAO[9],a
1152  0182              _L82:
1155  0182              #line 1155 "e:\x-sense_svn\xp02\xp02\src\Smoke.c"
1155  0182  1F00     R  	clr _SmokeAO[10]
1155  0183  1F00     R  	clr _SmokeAO[11]
1155  0184  2800     R  	jmp _L74
1155  0185              _L75:
1167  0185              #line 1167 "e:\x-sense_svn\xp02\xp02\src\Smoke.c"
文件：Smoke.c      编译器版本 HGASM 0202 页次36

1167  0185  1400     R  	inca _SmokeAO[7]
1167  0186  0080     E  	mov ra,a
1167  0187  0700     E  	mov a,ra
1167  0188  0080     R  	mov _SmokeAO[7],a
1168  0189              #line 1168 "e:\x-sense_svn\xp02\xp02\src\Smoke.c"
1168  0189  0F02        	mov a,2
1168  018A  0200     E  	sub a,ra
1168  018B  3C0A        	sz c
1168  018C  2800     R  	jmp _L74
1170  018D              #line 1170 "e:\x-sense_svn\xp02\xp02\src\Smoke.c"
1170  018D  0F03        	mov a,3
1170  018E  0080     R  	mov _SmokeAO[7],a
1171  018F              #line 1171 "e:\x-sense_svn\xp02\xp02\src\Smoke.c"
1171  018F  0F1C        	mov a,28
1171  0190  0080     E  	mov _SysteSetSig_2[0],a
1171  0191  1F00     E  	clr _SysteSetSig_2[1]
1171  0192              _L85:
1171  0192              	fcall _SysteSetSig
1171  0199              _L74:
1176  0199              #line 1176 "e:\x-sense_svn\xp02\xp02\src\Smoke.c"
1176  0199  0700     E  	mov a,_SysAO[16]
1176  019A  0C01        	xor a,1
1176  019B  0500     E  	or a,_SysAO[17]
1176  019C  390A        	snz z
1176  019D  2800     R  	jmp _L71
1178  019E              #line 1178 "e:\x-sense_svn\xp02\xp02\src\Smoke.c"
1178  019E  0700     R  	mov a,___SmokeData_3254[0]
1178  019F  0080     E  	mov _printf_2[2],a
1178  01A0  0700     R  	mov a,___SmokeData_3254[1]
1178  01A1  0080     E  	mov _printf_2[3],a
1178  01A2  0F00     R  	mov a,low offset _LC2
1178  01A3  0080     E  	mov _printf_2[0],a
1178  01A4  0F00     R  	mov a,high offset _LC2
1178  01A5  0080     E  	mov _printf_2[1],a
1178  01A6              	fcall _printf
1179  01AD              #line 1179 "e:\x-sense_svn\xp02\xp02\src\Smoke.c"
1179  01AD  0700     R  	mov a,_SmokeAO[8]
1179  01AE  0080     E  	mov _printf_2[2],a
1179  01AF  0700     R  	mov a,_SmokeAO[9]
1179  01B0  0080     E  	mov _printf_2[3],a
1179  01B1  0F00     R  	mov a,low offset _LC3
1179  01B2  0080     E  	mov _printf_2[0],a
1179  01B3  0F00     R  	mov a,high offset _LC3
1179  01B4  0080     E  	mov _printf_2[1],a
1179  01B5              	fcall _printf
1181  01BC              #line 1181 "e:\x-sense_svn\xp02\xp02\src\Smoke.c"
1181  01BC  0FEC        	mov a,236
1181  01BD  0300     E  	add a,_SysAO[20]
1181  01BE  0080     E  	mov _printf_2[2],a
1181  01BF  0FFF        	mov a,255
1181  01C0  1F00     E  	clr _printf_2[3]
1181  01C1  1380     E  	adcm a,_printf_2[3]
1181  01C2  0F00     R  	mov a,low offset _LC4
1181  01C3  0080     E  	mov _printf_2[0],a
1181  01C4  0F00     R  	mov a,high offset _LC4
1181  01C5  0080     E  	mov _printf_2[1],a
1181  01C6              	fcall _printf
1182  01CD              #line 1182 "e:\x-sense_svn\xp02\xp02\src\Smoke.c"
1182  01CD  1F00     E  	clr _builtin_holtek_udivmodhi4_2[6]
1182  01CE  0700     R  	mov a,_SmokeAO[1]  
文件：Smoke.c      编译器版本 HGASM 0202 页次37

1182  01CF  0080     E  	mov _builtin_holtek_udivmodhi4_2[0],a  
1182  01D0  0700     R  	mov a,_SmokeAO[2]  
1182  01D1  0080     E  	mov _builtin_holtek_udivmodhi4_2[1],a
1182  01D2  0FE8        	mov a,232  
1182  01D3  0080     E  	mov _builtin_holtek_udivmodhi4_2[2],a  
1182  01D4  0F03        	mov a,3  
1182  01D5  0080     E  	mov _builtin_holtek_udivmodhi4_2[3],a
1182  01D6              	fcall _builtin_holtek_udivmodhi4
1182  01DD  0700     E  	mov a,_builtin_holtek_udivmodhi4_2[0]  
1182  01DE  0080     E  	mov _printf_2[2],a  
1182  01DF  0700     E  	mov a,_builtin_holtek_udivmodhi4_2[1]  
1182  01E0  0080     E  	mov _printf_2[3],a
1182  01E1  0F00     R  	mov a,low offset _LC5
1182  01E2  0080     E  	mov _printf_2[0],a
1182  01E3  0F00     R  	mov a,high offset _LC5
1182  01E4  0080     E  	mov _printf_2[1],a
1182  01E5              	fcall _printf
1182  01EC  1F00     E  	clr _builtin_holtek_udivmodhi4_2[6]
1182  01ED  0700     R  	mov a,_SmokeAO[1]  
1182  01EE  0080     E  	mov _builtin_holtek_udivmodhi4_2[0],a  
1182  01EF  0700     R  	mov a,_SmokeAO[2]  
1182  01F0  0080     E  	mov _builtin_holtek_udivmodhi4_2[1],a
1182  01F1  0FE8        	mov a,232  
1182  01F2  0080     E  	mov _builtin_holtek_udivmodhi4_2[2],a  
1182  01F3  0F03        	mov a,3  
1182  01F4  0080     E  	mov _builtin_holtek_udivmodhi4_2[3],a
1182  01F5              	fcall _builtin_holtek_udivmodhi4
1182  01FC  0700     E  	mov a,_builtin_holtek_udivmodhi4_2[4]  
1182  01FD  0080     E  	mov rb,a  
1182  01FE  0700     E  	mov a,_builtin_holtek_udivmodhi4_2[5]  
1182  01FF  0080     E  	mov rc,a
1182  0200  1F00     E  	clr _builtin_holtek_udivmodhi4_2[6]
1182  0201  0700     E  	mov a,rb  
1182  0202  0080     E  	mov _builtin_holtek_udivmodhi4_2[0],a  
1182  0203  0700     E  	mov a,rc  
1182  0204  0080     E  	mov _builtin_holtek_udivmodhi4_2[1],a
1182  0205  0F64        	mov a,100  
1182  0206  0080     E  	mov _builtin_holtek_udivmodhi4_2[2],a  
1182  0207  1F00     E  	clr _builtin_holtek_udivmodhi4_2[3]
1182  0208              	fcall _builtin_holtek_udivmodhi4
1182  020F  0700     E  	mov a,_builtin_holtek_udivmodhi4_2[0]  
1182  0210  0080     E  	mov _printf_2[2],a  
1182  0211  0700     E  	mov a,_builtin_holtek_udivmodhi4_2[1]  
1182  0212  0080     E  	mov _printf_2[3],a
1182  0213  0F00     R  	mov a,low offset _LC6
1182  0214  0080     E  	mov _printf_2[0],a
1182  0215  0F00     R  	mov a,high offset _LC6
1182  0216  0080     E  	mov _printf_2[1],a
1182  0217              	fcall _printf
1182  021E  1F00     E  	clr _builtin_holtek_udivmodhi4_2[6]
1182  021F  0700     R  	mov a,_SmokeAO[1]  
1182  0220  0080     E  	mov _builtin_holtek_udivmodhi4_2[0],a  
1182  0221  0700     R  	mov a,_SmokeAO[2]  
1182  0222  0080     E  	mov _builtin_holtek_udivmodhi4_2[1],a
1182  0223  0F64        	mov a,100  
1182  0224  0080     E  	mov _builtin_holtek_udivmodhi4_2[2],a  
1182  0225  1F00     E  	clr _builtin_holtek_udivmodhi4_2[3]
1182  0226              	fcall _builtin_holtek_udivmodhi4
1182  022D  0700     E  	mov a,_builtin_holtek_udivmodhi4_2[4]  
1182  022E  0080     E  	mov rb,a  
文件：Smoke.c      编译器版本 HGASM 0202 页次38

1182  022F  0700     E  	mov a,_builtin_holtek_udivmodhi4_2[5]  
1182  0230  0080     E  	mov rc,a
1182  0231  1F00     E  	clr _builtin_holtek_udivmodhi4_2[6]
1182  0232  0700     E  	mov a,rb  
1182  0233  0080     E  	mov _builtin_holtek_udivmodhi4_2[0],a  
1182  0234  0700     E  	mov a,rc  
1182  0235  0080     E  	mov _builtin_holtek_udivmodhi4_2[1],a
1182  0236  0F0A        	mov a,10  
1182  0237  0080     E  	mov _builtin_holtek_udivmodhi4_2[2],a  
1182  0238  1F00     E  	clr _builtin_holtek_udivmodhi4_2[3]
1182  0239              	fcall _builtin_holtek_udivmodhi4
1182  0240  0700     E  	mov a,_builtin_holtek_udivmodhi4_2[0]  
1182  0241  0080     E  	mov _printf_2[2],a  
1182  0242  0700     E  	mov a,_builtin_holtek_udivmodhi4_2[1]  
1182  0243  0080     E  	mov _printf_2[3],a
1182  0244  0F00     R  	mov a,low offset _LC5
1182  0245  0080     E  	mov _printf_2[0],a
1182  0246  0F00     R  	mov a,high offset _LC5
1182  0247  0080     E  	mov _printf_2[1],a
1182  0248              	fcall _printf
1182  024F  1F00     E  	clr _builtin_holtek_udivmodhi4_2[6]
1182  0250  0700     R  	mov a,_SmokeAO[1]  
1182  0251  0080     E  	mov _builtin_holtek_udivmodhi4_2[0],a  
1182  0252  0700     R  	mov a,_SmokeAO[2]  
1182  0253  0080     E  	mov _builtin_holtek_udivmodhi4_2[1],a
1182  0254  0F0A        	mov a,10  
1182  0255  0080     E  	mov _builtin_holtek_udivmodhi4_2[2],a  
1182  0256  1F00     E  	clr _builtin_holtek_udivmodhi4_2[3]
1182  0257              	fcall _builtin_holtek_udivmodhi4
1182  025E  0700     E  	mov a,_builtin_holtek_udivmodhi4_2[4]  
1182  025F  0080     E  	mov _printf_2[2],a  
1182  0260  0700     E  	mov a,_builtin_holtek_udivmodhi4_2[5]  
1182  0261  0080     E  	mov _printf_2[3],a
1182  0262  0F00     R  	mov a,low offset _LC5
1182  0263  0080     E  	mov _printf_2[0],a
1182  0264  0F00     R  	mov a,high offset _LC5
1182  0265  0080     E  	mov _printf_2[1],a
1182  0266              	fcall _printf
1183  026D              #line 1183 "e:\x-sense_svn\xp02\xp02\src\Smoke.c"
1183  026D  0F00     R  	mov a,low offset _LC7
1183  026E  0080     E  	mov _printf_2[0],a
1183  026F  0F00     R  	mov a,high offset _LC7
1183  0270  0080     E  	mov _printf_2[1],a
1183  0271              	fcall _printf
1184  0278              #line 1184 "e:\x-sense_svn\xp02\xp02\src\Smoke.c"
1184  0278  1F00     E  	clr _builtin_holtek_udivmodhi4_2[6]
1184  0279  0700     R  	mov a,_SmokeAO[3]  
1184  027A  0080     E  	mov _builtin_holtek_udivmodhi4_2[0],a  
1184  027B  0700     R  	mov a,_SmokeAO[4]  
1184  027C  0080     E  	mov _builtin_holtek_udivmodhi4_2[1],a
1184  027D  0FE8        	mov a,232  
1184  027E  0080     E  	mov _builtin_holtek_udivmodhi4_2[2],a  
1184  027F  0F03        	mov a,3  
1184  0280  0080     E  	mov _builtin_holtek_udivmodhi4_2[3],a
1184  0281              	fcall _builtin_holtek_udivmodhi4
1184  0288  0700     E  	mov a,_builtin_holtek_udivmodhi4_2[0]  
1184  0289  0080     E  	mov _printf_2[2],a  
1184  028A  0700     E  	mov a,_builtin_holtek_udivmodhi4_2[1]  
1184  028B  0080     E  	mov _printf_2[3],a
1184  028C  0F00     R  	mov a,low offset _LC5
文件：Smoke.c      编译器版本 HGASM 0202 页次39

1184  028D  0080     E  	mov _printf_2[0],a
1184  028E  0F00     R  	mov a,high offset _LC5
1184  028F  0080     E  	mov _printf_2[1],a
1184  0290              	fcall _printf
1184  0297  1F00     E  	clr _builtin_holtek_udivmodhi4_2[6]
1184  0298  0700     R  	mov a,_SmokeAO[3]  
1184  0299  0080     E  	mov _builtin_holtek_udivmodhi4_2[0],a  
1184  029A  0700     R  	mov a,_SmokeAO[4]  
1184  029B  0080     E  	mov _builtin_holtek_udivmodhi4_2[1],a
1184  029C  0FE8        	mov a,232  
1184  029D  0080     E  	mov _builtin_holtek_udivmodhi4_2[2],a  
1184  029E  0F03        	mov a,3  
1184  029F  0080     E  	mov _builtin_holtek_udivmodhi4_2[3],a
1184  02A0              	fcall _builtin_holtek_udivmodhi4
1184  02A7  0700     E  	mov a,_builtin_holtek_udivmodhi4_2[4]  
1184  02A8  0080     E  	mov rb,a  
1184  02A9  0700     E  	mov a,_builtin_holtek_udivmodhi4_2[5]  
1184  02AA  0080     E  	mov rc,a
1184  02AB  1F00     E  	clr _builtin_holtek_udivmodhi4_2[6]
1184  02AC  0700     E  	mov a,rb  
1184  02AD  0080     E  	mov _builtin_holtek_udivmodhi4_2[0],a  
1184  02AE  0700     E  	mov a,rc  
1184  02AF  0080     E  	mov _builtin_holtek_udivmodhi4_2[1],a
1184  02B0  0F64        	mov a,100  
1184  02B1  0080     E  	mov _builtin_holtek_udivmodhi4_2[2],a  
1184  02B2  1F00     E  	clr _builtin_holtek_udivmodhi4_2[3]
1184  02B3              	fcall _builtin_holtek_udivmodhi4
1184  02BA  0700     E  	mov a,_builtin_holtek_udivmodhi4_2[0]  
1184  02BB  0080     E  	mov _printf_2[2],a  
1184  02BC  0700     E  	mov a,_builtin_holtek_udivmodhi4_2[1]  
1184  02BD  0080     E  	mov _printf_2[3],a
1184  02BE  0F00     R  	mov a,low offset _LC6
1184  02BF  0080     E  	mov _printf_2[0],a
1184  02C0  0F00     R  	mov a,high offset _LC6
1184  02C1  0080     E  	mov _printf_2[1],a
1184  02C2              	fcall _printf
1184  02C9  1F00     E  	clr _builtin_holtek_udivmodhi4_2[6]
1184  02CA  0700     R  	mov a,_SmokeAO[3]  
1184  02CB  0080     E  	mov _builtin_holtek_udivmodhi4_2[0],a  
1184  02CC  0700     R  	mov a,_SmokeAO[4]  
1184  02CD  0080     E  	mov _builtin_holtek_udivmodhi4_2[1],a
1184  02CE  0F64        	mov a,100  
1184  02CF  0080     E  	mov _builtin_holtek_udivmodhi4_2[2],a  
1184  02D0  1F00     E  	clr _builtin_holtek_udivmodhi4_2[3]
1184  02D1              	fcall _builtin_holtek_udivmodhi4
1184  02D8  0700     E  	mov a,_builtin_holtek_udivmodhi4_2[4]  
1184  02D9  0080     E  	mov rb,a  
1184  02DA  0700     E  	mov a,_builtin_holtek_udivmodhi4_2[5]  
1184  02DB  0080     E  	mov rc,a
1184  02DC  1F00     E  	clr _builtin_holtek_udivmodhi4_2[6]
1184  02DD  0700     E  	mov a,rb  
1184  02DE  0080     E  	mov _builtin_holtek_udivmodhi4_2[0],a  
1184  02DF  0700     E  	mov a,rc  
1184  02E0  0080     E  	mov _builtin_holtek_udivmodhi4_2[1],a
1184  02E1  0F0A        	mov a,10  
1184  02E2  0080     E  	mov _builtin_holtek_udivmodhi4_2[2],a  
1184  02E3  1F00     E  	clr _builtin_holtek_udivmodhi4_2[3]
1184  02E4              	fcall _builtin_holtek_udivmodhi4
1184  02EB  0700     E  	mov a,_builtin_holtek_udivmodhi4_2[0]  
1184  02EC  0080     E  	mov _printf_2[2],a  
文件：Smoke.c      编译器版本 HGASM 0202 页次40

1184  02ED  0700     E  	mov a,_builtin_holtek_udivmodhi4_2[1]  
1184  02EE  0080     E  	mov _printf_2[3],a
1184  02EF  0F00     R  	mov a,low offset _LC5
1184  02F0  0080     E  	mov _printf_2[0],a
1184  02F1  0F00     R  	mov a,high offset _LC5
1184  02F2  0080     E  	mov _printf_2[1],a
1184  02F3              	fcall _printf
1184  02FA  1F00     E  	clr _builtin_holtek_udivmodhi4_2[6]
1184  02FB  0700     R  	mov a,_SmokeAO[3]  
1184  02FC  0080     E  	mov _builtin_holtek_udivmodhi4_2[0],a  
1184  02FD  0700     R  	mov a,_SmokeAO[4]  
1184  02FE  0080     E  	mov _builtin_holtek_udivmodhi4_2[1],a
1184  02FF  0F0A        	mov a,10  
1184  0300  0080     E  	mov _builtin_holtek_udivmodhi4_2[2],a  
1184  0301  1F00     E  	clr _builtin_holtek_udivmodhi4_2[3]
1184  0302              	fcall _builtin_holtek_udivmodhi4
1184  0309  0700     E  	mov a,_builtin_holtek_udivmodhi4_2[4]  
1184  030A  0080     E  	mov _printf_2[2],a  
1184  030B  0700     E  	mov a,_builtin_holtek_udivmodhi4_2[5]  
1184  030C  0080     E  	mov _printf_2[3],a
1184  030D  0F00     R  	mov a,low offset _LC5
1184  030E  0080     E  	mov _printf_2[0],a
1184  030F  0F00     R  	mov a,high offset _LC5
1184  0310  0080     E  	mov _printf_2[1],a
1184  0311              	fcall _printf
1185  0318              #line 1185 "e:\x-sense_svn\xp02\xp02\src\Smoke.c"
1185  0318  0F00     R  	mov a,low offset _LC8
1185  0319  0080     E  	mov _printf_2[0],a
1185  031A  0F00     R  	mov a,high offset _LC8
1185  031B  0080     E  	mov _printf_2[1],a
1185  031C              	fcall _printf
1185  0323              _L71:
1185  0323  0003        	ret
1185  0324              _SmokeAlarmCheck endp
1185  0324              #line 1185 "e:\x-sense_svn\xp02\xp02\src\Smoke.c"
1185  0324              #pragma debug scope 1 1
1185  0324              public _SmokeOPACheck
1185  0324              #pragma debug scope 17 1
1198  0324              #line 1198 "e:\x-sense_svn\xp02\xp02\src\Smoke.c"
1198  0000              _SmokeOPACheck .section 'code'
1198  0000              _SmokeOPACheck proc
1198  0000              public _SmokeOPACheck_2
1198  0000  0002[           local _SmokeOPACheck_2 db 2 dup(?)	; 2,0
            00
            ]
1198  0002              #pragma debug variable 10 17 _SmokeOPACheck_2+0 "data"
1201  0002              #line 1201 "e:\x-sense_svn\xp02\xp02\src\Smoke.c"
1201  0000              	fcall _GetSmokeData
1203  0007              #line 1203 "e:\x-sense_svn\xp02\xp02\src\Smoke.c"
1203  0007  0700     R  	mov a,_SmokeAO[3]
1203  0008  0080     E  	mov rb,a
1203  0009  0700     R  	mov a,_SmokeAO[4]
1203  000A  0080     E  	mov rc,a
1203  000B  0700     R  	mov a,_SmokeOPACheck_2[0]
1203  000C  0200     E  	sub a,rb
1203  000D  0700     R  	mov a,_SmokeOPACheck_2[1]
1203  000E  1200     E  	sbc a,rc
1203  000F  3C0A        	sz c
1203  0010  2800     R  	jmp _L89
1205  0011              #line 1205 "e:\x-sense_svn\xp02\xp02\src\Smoke.c"
文件：Smoke.c      编译器版本 HGASM 0202 页次41

1205  0011  0700     R  	mov a,_SmokeAO[18]
1205  0012  0080     E  	mov ra,a
1205  0013  1E00     E  	snz ra
1205  0014  2800     R  	jmp _L88
1207  0015              #line 1207 "e:\x-sense_svn\xp02\xp02\src\Smoke.c"
1207  0015  0700     E  	mov a,rb
1207  0016  0200     R  	sub a,_SmokeOPACheck_2[0]
1207  0017  0080     E  	mov rb,a
1207  0018  0700     E  	mov a,rc
1207  0019  1200     R  	sbc a,_SmokeOPACheck_2[1]
1207  001A  0080     E  	mov rc,a
1207  001B  0700     R  	mov a,_SmokeOPACheck_2[0]
1207  001C  0200     R  	sub a,___SmokeDataFirst_3260[0]
1207  001D  0080     E  	mov rf,a
1207  001E  0700     R  	mov a,_SmokeOPACheck_2[1]
1207  001F  1200     R  	sbc a,___SmokeDataFirst_3260[1]
1207  0020  0080     E  	mov rg,a
1207  0021  0700     E  	mov a,rf
1207  0022  0200     E  	sub a,rb
1207  0023  0700     E  	mov a,rg
1207  0024  1200     E  	sbc a,rc
1207  0025  3C0A        	sz c
1207  0026  2800     R  	jmp _L88
1209  0027              #line 1209 "e:\x-sense_svn\xp02\xp02\src\Smoke.c"
1209  0027  1500     E  	deca ra
1209  0028  0080     R  	mov _SmokeAO[18],a
1209  0029              _L88:
1212  0029              #line 1212 "e:\x-sense_svn\xp02\xp02\src\Smoke.c"
1212  0029  0700     R  	mov a,_SmokeAO[18]
1212  002A  0080     E  	mov _E2promWrite_2[0],a
1212  002B  0F0B        	mov a,11
1212  002C              	fcall _E2promWrite
1213  0033              #line 1213 "e:\x-sense_svn\xp02\xp02\src\Smoke.c"
1213  0033  0F01        	mov a,1
1213  0034  0080     E  	mov ra,a
1213  0035  2800     R  	jmp _L87
1213  0036              _L89:
1200  0036              #line 1200 "e:\x-sense_svn\xp02\xp02\src\Smoke.c"
1200  0036  1F00     E  	clr ra
1200  0037              _L87:
1216  0037              #line 1216 "e:\x-sense_svn\xp02\xp02\src\Smoke.c"
1216  0037  0700     R  	mov a,_SmokeAO[3]
1216  0038  0080     R  	mov ___SmokeDataFirst_3260[0],a
1216  0039  0700     R  	mov a,_SmokeAO[4]
1216  003A  0080     R  	mov ___SmokeDataFirst_3260[1],a
1219  003B              #line 1219 "e:\x-sense_svn\xp02\xp02\src\Smoke.c"
1219  003B  0700     E  	mov a,ra
1219  003C  0003        	ret
1219  003D              _SmokeOPACheck endp
1219  003D              #line 1219 "e:\x-sense_svn\xp02\xp02\src\Smoke.c"
1219  003D              #pragma debug scope 1 1
1219  003D              ___pa equ [20]
1219  003D              ___pb equ [24]
1219  0029              @crom	.section 'crom'
1219  0029              _LC9:
1219  0029              	db 06fh,070h,061h,03ah,025h,064h,0ah,00h
1219  002D              @crom	.section 'crom'
1219  002D              _LC10:
1219  002D              	db 044h,03ah,025h,064h,02ch,020h,044h,056h,06fh,06ch
1219  0032              	db 03ah,00h
文件：Smoke.c      编译器版本 HGASM 0202 页次42

1219  0033              @crom	.section 'crom'
1219  0033              _LC11:
1219  0033              	db 020h,020h,020h,00h
1219  0035              @crom	.section 'crom'
1219  0035              _LC12:
1219  0035              	db 04ch,03ah,025h,064h,02ch,020h,04ch,056h,06fh,06ch
1219  003A              	db 03ah,00h
1219  003B              public _SmokeSetOPA
1219  003B              #pragma debug scope 18 1
1230  003B              #line 1230 "e:\x-sense_svn\xp02\xp02\src\Smoke.c"
1230  0000              _SmokeSetOPA .section 'code'
1230  0000              _SmokeSetOPA proc
1230  0000  00              local _SmokeSetOPA_2 db 1 dup(?)	; 0,1
1230  0001              #pragma debug variable 8 18 _SmokeSetOPA_2+0 "opa"
1234  0001              #line 1234 "e:\x-sense_svn\xp02\xp02\src\Smoke.c"
1234  0000  0F03        	mov a,3
1234  0001  0080     R  	mov _SmokeSetOPA_2[0],a
1234  0002              _L97:
1236  0002              #line 1236 "e:\x-sense_svn\xp02\xp02\src\Smoke.c"
1236  0002  3114        	set [20].2
1236  0003  3218        	set [24].4
1237  0004              #line 1237 "e:\x-sense_svn\xp02\xp02\src\Smoke.c"
1237  0004  0700     R  	mov a,_SmokeSetOPA_2[0]
1237  0005  0080     R  	mov _SmokeAO[18],a
1239  0006              #line 1239 "e:\x-sense_svn\xp02\xp02\src\Smoke.c"
1239  0006  0F78        	mov a,120
1239  0007  0080     R  	mov _SmokeOPACheck_2[0],a
1239  0008  0F05        	mov a,5
1239  0009  0080     R  	mov _SmokeOPACheck_2[1],a
1239  000A              	fcall _SmokeOPACheck
1239  0011  0080     E  	mov ra,a
1239  0012  1700     E  	sdza ra
1239  0013  2800     R  	jmp _L94
1239  0014              _L98:
1231  0014              #line 1231 "e:\x-sense_svn\xp02\xp02\src\Smoke.c"
1231  0014  1F00     E  	clr ra
1231  0015  2800     R  	jmp _L102
1231  0016              _L94:
1246  0016              #line 1246 "e:\x-sense_svn\xp02\xp02\src\Smoke.c"
1246  0016  0700     R  	mov a,_SmokeAO[18]
1246  0017  0080     E  	mov _printf_2[2],a
1246  0018  1F00     E  	clr _printf_2[3]
1246  0019  0F00     R  	mov a,low offset _LC9
1246  001A  0080     E  	mov _printf_2[0],a
1246  001B  0F00     R  	mov a,high offset _LC9
1246  001C  0080     E  	mov _printf_2[1],a
1246  001D              	fcall _printf
1247  0024              #line 1247 "e:\x-sense_svn\xp02\xp02\src\Smoke.c"
1247  0024  0700     R  	mov a,_SmokeAO[1]
1247  0025  0080     E  	mov _printf_2[2],a
1247  0026  0700     R  	mov a,_SmokeAO[2]
1247  0027  0080     E  	mov _printf_2[3],a
1247  0028  0F00     R  	mov a,low offset _LC10
1247  0029  0080     E  	mov _printf_2[0],a
1247  002A  0F00     R  	mov a,high offset _LC10
1247  002B  0080     E  	mov _printf_2[1],a
1247  002C              	fcall _printf
1248  0033              #line 1248 "e:\x-sense_svn\xp02\xp02\src\Smoke.c"
1248  0033  1F00     E  	clr _builtin_holtek_udivmodhi4_2[6]
1248  0034  0700     R  	mov a,_SmokeAO[1]  
文件：Smoke.c      编译器版本 HGASM 0202 页次43

1248  0035  0080     E  	mov _builtin_holtek_udivmodhi4_2[0],a  
1248  0036  0700     R  	mov a,_SmokeAO[2]  
1248  0037  0080     E  	mov _builtin_holtek_udivmodhi4_2[1],a
1248  0038  0FE8        	mov a,232  
1248  0039  0080     E  	mov _builtin_holtek_udivmodhi4_2[2],a  
1248  003A  0F03        	mov a,3  
1248  003B  0080     E  	mov _builtin_holtek_udivmodhi4_2[3],a
1248  003C              	fcall _builtin_holtek_udivmodhi4
1248  0043  0700     E  	mov a,_builtin_holtek_udivmodhi4_2[0]  
1248  0044  0080     E  	mov _printf_2[2],a  
1248  0045  0700     E  	mov a,_builtin_holtek_udivmodhi4_2[1]  
1248  0046  0080     E  	mov _printf_2[3],a
1248  0047  0F00     R  	mov a,low offset _LC5
1248  0048  0080     E  	mov _printf_2[0],a
1248  0049  0F00     R  	mov a,high offset _LC5
1248  004A  0080     E  	mov _printf_2[1],a
1248  004B              	fcall _printf
1248  0052  1F00     E  	clr _builtin_holtek_udivmodhi4_2[6]
1248  0053  0700     R  	mov a,_SmokeAO[1]  
1248  0054  0080     E  	mov _builtin_holtek_udivmodhi4_2[0],a  
1248  0055  0700     R  	mov a,_SmokeAO[2]  
1248  0056  0080     E  	mov _builtin_holtek_udivmodhi4_2[1],a
1248  0057  0FE8        	mov a,232  
1248  0058  0080     E  	mov _builtin_holtek_udivmodhi4_2[2],a  
1248  0059  0F03        	mov a,3  
1248  005A  0080     E  	mov _builtin_holtek_udivmodhi4_2[3],a
1248  005B              	fcall _builtin_holtek_udivmodhi4
1248  0062  0700     E  	mov a,_builtin_holtek_udivmodhi4_2[4]  
1248  0063  0080     E  	mov rb,a  
1248  0064  0700     E  	mov a,_builtin_holtek_udivmodhi4_2[5]  
1248  0065  0080     E  	mov rc,a
1248  0066  1F00     E  	clr _builtin_holtek_udivmodhi4_2[6]
1248  0067  0700     E  	mov a,rb  
1248  0068  0080     E  	mov _builtin_holtek_udivmodhi4_2[0],a  
1248  0069  0700     E  	mov a,rc  
1248  006A  0080     E  	mov _builtin_holtek_udivmodhi4_2[1],a
1248  006B  0F64        	mov a,100  
1248  006C  0080     E  	mov _builtin_holtek_udivmodhi4_2[2],a  
1248  006D  1F00     E  	clr _builtin_holtek_udivmodhi4_2[3]
1248  006E              	fcall _builtin_holtek_udivmodhi4
1248  0075  0700     E  	mov a,_builtin_holtek_udivmodhi4_2[0]  
1248  0076  0080     E  	mov _printf_2[2],a  
1248  0077  0700     E  	mov a,_builtin_holtek_udivmodhi4_2[1]  
1248  0078  0080     E  	mov _printf_2[3],a
1248  0079  0F00     R  	mov a,low offset _LC6
1248  007A  0080     E  	mov _printf_2[0],a
1248  007B  0F00     R  	mov a,high offset _LC6
1248  007C  0080     E  	mov _printf_2[1],a
1248  007D              	fcall _printf
1248  0084  1F00     E  	clr _builtin_holtek_udivmodhi4_2[6]
1248  0085  0700     R  	mov a,_SmokeAO[1]  
1248  0086  0080     E  	mov _builtin_holtek_udivmodhi4_2[0],a  
1248  0087  0700     R  	mov a,_SmokeAO[2]  
1248  0088  0080     E  	mov _builtin_holtek_udivmodhi4_2[1],a
1248  0089  0F64        	mov a,100  
1248  008A  0080     E  	mov _builtin_holtek_udivmodhi4_2[2],a  
1248  008B  1F00     E  	clr _builtin_holtek_udivmodhi4_2[3]
1248  008C              	fcall _builtin_holtek_udivmodhi4
1248  0093  0700     E  	mov a,_builtin_holtek_udivmodhi4_2[4]  
1248  0094  0080     E  	mov rb,a  
文件：Smoke.c      编译器版本 HGASM 0202 页次44

1248  0095  0700     E  	mov a,_builtin_holtek_udivmodhi4_2[5]  
1248  0096  0080     E  	mov rc,a
1248  0097  1F00     E  	clr _builtin_holtek_udivmodhi4_2[6]
1248  0098  0700     E  	mov a,rb  
1248  0099  0080     E  	mov _builtin_holtek_udivmodhi4_2[0],a  
1248  009A  0700     E  	mov a,rc  
1248  009B  0080     E  	mov _builtin_holtek_udivmodhi4_2[1],a
1248  009C  0F0A        	mov a,10  
1248  009D  0080     E  	mov _builtin_holtek_udivmodhi4_2[2],a  
1248  009E  1F00     E  	clr _builtin_holtek_udivmodhi4_2[3]
1248  009F              	fcall _builtin_holtek_udivmodhi4
1248  00A6  0700     E  	mov a,_builtin_holtek_udivmodhi4_2[0]  
1248  00A7  0080     E  	mov _printf_2[2],a  
1248  00A8  0700     E  	mov a,_builtin_holtek_udivmodhi4_2[1]  
1248  00A9  0080     E  	mov _printf_2[3],a
1248  00AA  0F00     R  	mov a,low offset _LC5
1248  00AB  0080     E  	mov _printf_2[0],a
1248  00AC  0F00     R  	mov a,high offset _LC5
1248  00AD  0080     E  	mov _printf_2[1],a
1248  00AE              	fcall _printf
1248  00B5  1F00     E  	clr _builtin_holtek_udivmodhi4_2[6]
1248  00B6  0700     R  	mov a,_SmokeAO[1]  
1248  00B7  0080     E  	mov _builtin_holtek_udivmodhi4_2[0],a  
1248  00B8  0700     R  	mov a,_SmokeAO[2]  
1248  00B9  0080     E  	mov _builtin_holtek_udivmodhi4_2[1],a
1248  00BA  0F0A        	mov a,10  
1248  00BB  0080     E  	mov _builtin_holtek_udivmodhi4_2[2],a  
1248  00BC  1F00     E  	clr _builtin_holtek_udivmodhi4_2[3]
1248  00BD              	fcall _builtin_holtek_udivmodhi4
1248  00C4  0700     E  	mov a,_builtin_holtek_udivmodhi4_2[4]  
1248  00C5  0080     E  	mov _printf_2[2],a  
1248  00C6  0700     E  	mov a,_builtin_holtek_udivmodhi4_2[5]  
1248  00C7  0080     E  	mov _printf_2[3],a
1248  00C8  0F00     R  	mov a,low offset _LC5
1248  00C9  0080     E  	mov _printf_2[0],a
1248  00CA  0F00     R  	mov a,high offset _LC5
1248  00CB  0080     E  	mov _printf_2[1],a
1248  00CC              	fcall _printf
1249  00D3              #line 1249 "e:\x-sense_svn\xp02\xp02\src\Smoke.c"
1249  00D3  0F00     R  	mov a,low offset _LC11
1249  00D4  0080     E  	mov _printf_2[0],a
1249  00D5  0F00     R  	mov a,high offset _LC11
1249  00D6  0080     E  	mov _printf_2[1],a
1249  00D7              	fcall _printf
1250  00DE              #line 1250 "e:\x-sense_svn\xp02\xp02\src\Smoke.c"
1250  00DE  0700     R  	mov a,_SmokeAO[3]
1250  00DF  0080     E  	mov _printf_2[2],a
1250  00E0  0700     R  	mov a,_SmokeAO[4]
1250  00E1  0080     E  	mov _printf_2[3],a
1250  00E2  0F00     R  	mov a,low offset _LC12
1250  00E3  0080     E  	mov _printf_2[0],a
1250  00E4  0F00     R  	mov a,high offset _LC12
1250  00E5  0080     E  	mov _printf_2[1],a
1250  00E6              	fcall _printf
1251  00ED              #line 1251 "e:\x-sense_svn\xp02\xp02\src\Smoke.c"
1251  00ED  1F00     E  	clr _builtin_holtek_udivmodhi4_2[6]
1251  00EE  0700     R  	mov a,_SmokeAO[3]  
1251  00EF  0080     E  	mov _builtin_holtek_udivmodhi4_2[0],a  
1251  00F0  0700     R  	mov a,_SmokeAO[4]  
1251  00F1  0080     E  	mov _builtin_holtek_udivmodhi4_2[1],a
文件：Smoke.c      编译器版本 HGASM 0202 页次45

1251  00F2  0FE8        	mov a,232  
1251  00F3  0080     E  	mov _builtin_holtek_udivmodhi4_2[2],a  
1251  00F4  0F03        	mov a,3  
1251  00F5  0080     E  	mov _builtin_holtek_udivmodhi4_2[3],a
1251  00F6              	fcall _builtin_holtek_udivmodhi4
1251  00FD  0700     E  	mov a,_builtin_holtek_udivmodhi4_2[0]  
1251  00FE  0080     E  	mov _printf_2[2],a  
1251  00FF  0700     E  	mov a,_builtin_holtek_udivmodhi4_2[1]  
1251  0100  0080     E  	mov _printf_2[3],a
1251  0101  0F00     R  	mov a,low offset _LC5
1251  0102  0080     E  	mov _printf_2[0],a
1251  0103  0F00     R  	mov a,high offset _LC5
1251  0104  0080     E  	mov _printf_2[1],a
1251  0105              	fcall _printf
1251  010C  1F00     E  	clr _builtin_holtek_udivmodhi4_2[6]
1251  010D  0700     R  	mov a,_SmokeAO[3]  
1251  010E  0080     E  	mov _builtin_holtek_udivmodhi4_2[0],a  
1251  010F  0700     R  	mov a,_SmokeAO[4]  
1251  0110  0080     E  	mov _builtin_holtek_udivmodhi4_2[1],a
1251  0111  0FE8        	mov a,232  
1251  0112  0080     E  	mov _builtin_holtek_udivmodhi4_2[2],a  
1251  0113  0F03        	mov a,3  
1251  0114  0080     E  	mov _builtin_holtek_udivmodhi4_2[3],a
1251  0115              	fcall _builtin_holtek_udivmodhi4
1251  011C  0700     E  	mov a,_builtin_holtek_udivmodhi4_2[4]  
1251  011D  0080     E  	mov rb,a  
1251  011E  0700     E  	mov a,_builtin_holtek_udivmodhi4_2[5]  
1251  011F  0080     E  	mov rc,a
1251  0120  1F00     E  	clr _builtin_holtek_udivmodhi4_2[6]
1251  0121  0700     E  	mov a,rb  
1251  0122  0080     E  	mov _builtin_holtek_udivmodhi4_2[0],a  
1251  0123  0700     E  	mov a,rc  
1251  0124  0080     E  	mov _builtin_holtek_udivmodhi4_2[1],a
1251  0125  0F64        	mov a,100  
1251  0126  0080     E  	mov _builtin_holtek_udivmodhi4_2[2],a  
1251  0127  1F00     E  	clr _builtin_holtek_udivmodhi4_2[3]
1251  0128              	fcall _builtin_holtek_udivmodhi4
1251  012F  0700     E  	mov a,_builtin_holtek_udivmodhi4_2[0]  
1251  0130  0080     E  	mov _printf_2[2],a  
1251  0131  0700     E  	mov a,_builtin_holtek_udivmodhi4_2[1]  
1251  0132  0080     E  	mov _printf_2[3],a
1251  0133  0F00     R  	mov a,low offset _LC6
1251  0134  0080     E  	mov _printf_2[0],a
1251  0135  0F00     R  	mov a,high offset _LC6
1251  0136  0080     E  	mov _printf_2[1],a
1251  0137              	fcall _printf
1251  013E  1F00     E  	clr _builtin_holtek_udivmodhi4_2[6]
1251  013F  0700     R  	mov a,_SmokeAO[3]  
1251  0140  0080     E  	mov _builtin_holtek_udivmodhi4_2[0],a  
1251  0141  0700     R  	mov a,_SmokeAO[4]  
1251  0142  0080     E  	mov _builtin_holtek_udivmodhi4_2[1],a
1251  0143  0F64        	mov a,100  
1251  0144  0080     E  	mov _builtin_holtek_udivmodhi4_2[2],a  
1251  0145  1F00     E  	clr _builtin_holtek_udivmodhi4_2[3]
1251  0146              	fcall _builtin_holtek_udivmodhi4
1251  014D  0700     E  	mov a,_builtin_holtek_udivmodhi4_2[4]  
1251  014E  0080     E  	mov rb,a  
1251  014F  0700     E  	mov a,_builtin_holtek_udivmodhi4_2[5]  
1251  0150  0080     E  	mov rc,a
1251  0151  1F00     E  	clr _builtin_holtek_udivmodhi4_2[6]
文件：Smoke.c      编译器版本 HGASM 0202 页次46

1251  0152  0700     E  	mov a,rb  
1251  0153  0080     E  	mov _builtin_holtek_udivmodhi4_2[0],a  
1251  0154  0700     E  	mov a,rc  
1251  0155  0080     E  	mov _builtin_holtek_udivmodhi4_2[1],a
1251  0156  0F0A        	mov a,10  
1251  0157  0080     E  	mov _builtin_holtek_udivmodhi4_2[2],a  
1251  0158  1F00     E  	clr _builtin_holtek_udivmodhi4_2[3]
1251  0159              	fcall _builtin_holtek_udivmodhi4
1251  0160  0700     E  	mov a,_builtin_holtek_udivmodhi4_2[0]  
1251  0161  0080     E  	mov _printf_2[2],a  
1251  0162  0700     E  	mov a,_builtin_holtek_udivmodhi4_2[1]  
1251  0163  0080     E  	mov _printf_2[3],a
1251  0164  0F00     R  	mov a,low offset _LC5
1251  0165  0080     E  	mov _printf_2[0],a
1251  0166  0F00     R  	mov a,high offset _LC5
1251  0167  0080     E  	mov _printf_2[1],a
1251  0168              	fcall _printf
1251  016F  1F00     E  	clr _builtin_holtek_udivmodhi4_2[6]
1251  0170  0700     R  	mov a,_SmokeAO[3]  
1251  0171  0080     E  	mov _builtin_holtek_udivmodhi4_2[0],a  
1251  0172  0700     R  	mov a,_SmokeAO[4]  
1251  0173  0080     E  	mov _builtin_holtek_udivmodhi4_2[1],a
1251  0174  0F0A        	mov a,10  
1251  0175  0080     E  	mov _builtin_holtek_udivmodhi4_2[2],a  
1251  0176  1F00     E  	clr _builtin_holtek_udivmodhi4_2[3]
1251  0177              	fcall _builtin_holtek_udivmodhi4
1251  017E  0700     E  	mov a,_builtin_holtek_udivmodhi4_2[4]  
1251  017F  0080     E  	mov _printf_2[2],a  
1251  0180  0700     E  	mov a,_builtin_holtek_udivmodhi4_2[5]  
1251  0181  0080     E  	mov _printf_2[3],a
1251  0182  0F00     R  	mov a,low offset _LC5
1251  0183  0080     E  	mov _printf_2[0],a
1251  0184  0F00     R  	mov a,high offset _LC5
1251  0185  0080     E  	mov _printf_2[1],a
1251  0186              	fcall _printf
1252  018D              #line 1252 "e:\x-sense_svn\xp02\xp02\src\Smoke.c"
1252  018D  0F00     R  	mov a,low offset _LC11
1252  018E  0080     E  	mov _printf_2[0],a
1252  018F  0F00     R  	mov a,high offset _LC11
1252  0190  0080     E  	mov _printf_2[1],a
1252  0191              	fcall _printf
1253  0198              #line 1253 "e:\x-sense_svn\xp02\xp02\src\Smoke.c"
1253  0198  3514        	clr [20].2
1253  0199  3618        	clr [24].4
1255  019A              #line 1255 "e:\x-sense_svn\xp02\xp02\src\Smoke.c"
1255  019A  0F08        	mov a,8
1255  019B  0080     E  	mov _PwrAO[11],a
1256  019C              #line 1256 "e:\x-sense_svn\xp02\xp02\src\Smoke.c"
1256  019C              	fcall _EnteryLowPower
1234  01A3              #line 1234 "e:\x-sense_svn\xp02\xp02\src\Smoke.c"
1234  01A3  1480     R  	inc _SmokeSetOPA_2[0]
1234  01A4  0700     R  	mov a,_SmokeSetOPA_2[0]
1234  01A5  0A1A        	sub a,26
1234  01A6  390A        	snz z
1234  01A7  2800     R  	jmp _L97
1262  01A8              #line 1262 "e:\x-sense_svn\xp02\xp02\src\Smoke.c"
1262  01A8  0FF4        	mov a,-12
1262  01A9  0080     R  	mov _SmokeOPACheck_2[0],a
1262  01AA  0F01        	mov a,1
1262  01AB  0080     R  	mov _SmokeOPACheck_2[1],a
文件：Smoke.c      编译器版本 HGASM 0202 页次47

1262  01AC              	fcall _SmokeOPACheck
1262  01B3  0080     E  	mov ra,a
1262  01B4  1700     E  	sdza ra
1262  01B5  2800     R  	jmp _LI3
1262  01B6  2800     R  	jmp _L98
1262  01B7              _LI3:
1267  01B7              #line 1267 "e:\x-sense_svn\xp02\xp02\src\Smoke.c"
1267  01B7  0F10        	mov a,16
1267  01B8  0080     E  	mov ra,a
1267  01B9              _L102:
1275  01B9              #line 1275 "e:\x-sense_svn\xp02\xp02\src\Smoke.c"
1275  01B9  0700     E  	mov a,ra
1275  01BA  0003        	ret
1275  01BB              _SmokeSetOPA endp
1275  01BB              #line 1275 "e:\x-sense_svn\xp02\xp02\src\Smoke.c"
1275  01BB              #pragma debug scope 1 1
1275  003B              @crom	.section 'crom'
1275  003B              _LC13:
1275  003B              	db 053h,06dh,06fh,06bh,065h,03ah,020h,04fh,050h,041h
1275  0040              	db 03dh,025h,064h,02ch,020h,00h
1275  0043              @crom	.section 'crom'
1275  0043              _LC14:
1275  0043              	db 04ch,02dh,044h,020h,03dh,020h,025h,064h,0ah,00h
1275  0048              @crom	.section 'crom'
1275  0048              _LC15:
1275  0048              	db 073h,074h,061h,072h,074h,03ah,0ah,00h
1275  004C              public _LoadSmokeData
1275  004C              #pragma debug scope 19 1
1286  004C              #line 1286 "e:\x-sense_svn\xp02\xp02\src\Smoke.c"
1286  0000              _LoadSmokeData .section 'code'
1286  0000              _LoadSmokeData proc
1286  0000  0004[           local _LoadSmokeData_2 db 4 dup(?)	; 0,4
            00
            ]
1286  0004              #pragma debug variable 10 19 _LoadSmokeData_2+2 "VolValue"
1291  0004              #line 1291 "e:\x-sense_svn\xp02\xp02\src\Smoke.c"
1291  0000  0F0A        	mov a,10
1291  0001              	fcall _E2promRead
1291  0008  0080     E  	mov ra,a
1291  0009  0700     E  	mov a,ra
1291  000A  0080     R  	mov _SmokeAO[15],a
1292  000B              #line 1292 "e:\x-sense_svn\xp02\xp02\src\Smoke.c"
1292  000B  0700     E  	mov a,ra
1292  000C  0A5A        	sub a,90
1292  000D  390A        	snz z
1292  000E  2800     R  	jmp _L104
1294  000F              #line 1294 "e:\x-sense_svn\xp02\xp02\src\Smoke.c"
1294  000F  0F05        	mov a,5
1294  0010              	fcall _E2promRead
1294  0017  0080     E  	mov ra,a
1295  0018              #line 1295 "e:\x-sense_svn\xp02\xp02\src\Smoke.c"
1295  0018  0700     E  	mov a,ra
1295  0019  0080     R  	mov _LoadSmokeData_2[1],a
1295  001A  1F00     R  	clr _LoadSmokeData_2[0]
1295  001B  0700     R  	mov a,_LoadSmokeData_2[0]
1295  001C  0080     R  	mov _SmokeAO[8],a
1295  001D  0700     R  	mov a,_LoadSmokeData_2[1]
1295  001E  0080     R  	mov _SmokeAO[9],a
1296  001F              #line 1296 "e:\x-sense_svn\xp02\xp02\src\Smoke.c"
1296  001F  0F06        	mov a,6
文件：Smoke.c      编译器版本 HGASM 0202 页次48

1296  0020              	fcall _E2promRead
1296  0027  0080     E  	mov ra,a
1296  0028  0700     E  	mov a,ra
1296  0029  0580     R  	orm a,_LoadSmokeData_2[0]
1298  002A              #line 1298 "e:\x-sense_svn\xp02\xp02\src\Smoke.c"
1298  002A  0700     R  	mov a,_LoadSmokeData_2[0]
1298  002B  0080     R  	mov _GetVol_2[2],a
1298  002C  0700     R  	mov a,_LoadSmokeData_2[1]
1298  002D  0080     R  	mov _GetVol_2[3],a
1298  002E  0700     E  	mov a,_PwrAO[2]
1298  002F  0080     R  	mov _GetVol_2[0],a
1298  0030  0700     E  	mov a,_PwrAO[3]
1298  0031  0080     R  	mov _GetVol_2[1],a
1298  0032              	fcall _GetVol
1298  0039  0700     E  	mov a,ra
1298  003A  0080     R  	mov _LoadSmokeData_2[2],a
1298  003B  0700     E  	mov a,rb
1298  003C  0080     R  	mov _LoadSmokeData_2[3],a
1300  003D              #line 1300 "e:\x-sense_svn\xp02\xp02\src\Smoke.c"
1300  003D  0700     E  	mov a,_SMOKE_ALARM_LEVEL[0]
1300  003E  0300     R  	add a,_LoadSmokeData_2[0]
1300  003F  0080     R  	mov _SmokeAO[8],a
1300  0040  0700     E  	mov a,_SMOKE_ALARM_LEVEL[1]
1300  0041  1300     R  	adc a,_LoadSmokeData_2[1]
1300  0042  0080     R  	mov _SmokeAO[9],a
1302  0043              #line 1302 "e:\x-sense_svn\xp02\xp02\src\Smoke.c"
1302  0043  0F07        	mov a,7
1302  0044              	fcall _E2promRead
1302  004B  0080     E  	mov ra,a
1302  004C  0700     E  	mov a,ra
1302  004D  0080     R  	mov _SmokeAO[12],a
1303  004E              #line 1303 "e:\x-sense_svn\xp02\xp02\src\Smoke.c"
1303  004E  0F08        	mov a,8
1303  004F              	fcall _E2promRead
1303  0056  0080     E  	mov ra,a
1303  0057  0700     E  	mov a,ra
1303  0058  0080     R  	mov _SmokeAO[16],a
1304  0059              #line 1304 "e:\x-sense_svn\xp02\xp02\src\Smoke.c"
1304  0059  0F09        	mov a,9
1304  005A              	fcall _E2promRead
1304  0061  0080     E  	mov ra,a
1304  0062  0700     E  	mov a,ra
1304  0063  0080     R  	mov _SmokeAO[17],a
1305  0064              #line 1305 "e:\x-sense_svn\xp02\xp02\src\Smoke.c"
1305  0064  0F0B        	mov a,11
1305  0065              	fcall _E2promRead
1305  006C  0080     E  	mov ra,a
1305  006D  0700     E  	mov a,ra
1305  006E  0080     R  	mov _SmokeAO[18],a
1306  006F              #line 1306 "e:\x-sense_svn\xp02\xp02\src\Smoke.c"
1306  006F  0700     E  	mov a,ra
1306  0070  0080     E  	mov _printf_2[2],a
1306  0071  1F00     E  	clr _printf_2[3]
1306  0072  0F00     R  	mov a,low offset _LC13
1306  0073  0080     E  	mov _printf_2[0],a
1306  0074  0F00     R  	mov a,high offset _LC13
1306  0075  0080     E  	mov _printf_2[1],a
1306  0076              	fcall _printf
1307  007D              #line 1307 "e:\x-sense_svn\xp02\xp02\src\Smoke.c"
1307  007D  0700     R  	mov a,_LoadSmokeData_2[2]
文件：Smoke.c      编译器版本 HGASM 0202 页次49

1307  007E  0080     E  	mov _printf_2[2],a
1307  007F  0700     R  	mov a,_LoadSmokeData_2[3]
1307  0080  0080     E  	mov _printf_2[3],a
1307  0081  0F00     R  	mov a,low offset _LC14
1307  0082  0080     E  	mov _printf_2[0],a
1307  0083  0F00     R  	mov a,high offset _LC14
1307  0084  0080     E  	mov _printf_2[1],a
1307  0085              	fcall _printf
1310  008C              #line 1310 "e:\x-sense_svn\xp02\xp02\src\Smoke.c"
1310  008C  0F01        	mov a,1
1310  008D  0080     E  	mov ra,a
1310  008E  1F00     E  	clr rb
1310  008F  2800     R  	jmp _L105
1310  0090              _L104:
1315  0090              #line 1315 "e:\x-sense_svn\xp02\xp02\src\Smoke.c"
1315  0090  0F00     R  	mov a,low offset _LC15
1315  0091  0080     E  	mov _printf_2[0],a
1315  0092  0F00     R  	mov a,high offset _LC15
1315  0093  0080     E  	mov _printf_2[1],a
1315  0094              	fcall _printf
1317  009B              #line 1317 "e:\x-sense_svn\xp02\xp02\src\Smoke.c"
1317  009B  0F03        	mov a,3
1317  009C  0080     R  	mov _SmokeAO[0],a
1318  009D              #line 1318 "e:\x-sense_svn\xp02\xp02\src\Smoke.c"
1318  009D              	fcall _SmokeSetOPA
1287  00A4              #line 1287 "e:\x-sense_svn\xp02\xp02\src\Smoke.c"
1287  00A4  1F00     E  	clr ra
1287  00A5  1F00     E  	clr rb
1287  00A6              _L105:
1287  00A6  0003        	ret
1287  00A7              _LoadSmokeData endp
1287  00A7              #line 1287 "e:\x-sense_svn\xp02\xp02\src\Smoke.c"
1287  00A7              #pragma debug scope 1 1
1287  00A7              public _SpeakSmokeAlarmVoice
1287  00A7              #pragma debug scope 20 1
1333  00A7              #line 1333 "e:\x-sense_svn\xp02\xp02\src\Smoke.c"
1333  0000              _SpeakSmokeAlarmVoice .section 'code'
1333  0000              _SpeakSmokeAlarmVoice proc
1333  0000              public _SpeakSmokeAlarmVoice_2
1333  0000  0002[           local _SpeakSmokeAlarmVoice_2 db 2 dup(?)	; 1,1
            00
            ]
1333  0000  0080     R  	mov _SpeakSmokeAlarmVoice_2[1],a
1333  0001              #pragma debug variable 8 20 _SpeakSmokeAlarmVoice_2+1 "Location"
1333  0001              #pragma debug variable 8 20 _SpeakSmokeAlarmVoice_2+0 "T3Cnt"
1334  0001              #line 1334 "e:\x-sense_svn\xp02\xp02\src\Smoke.c"
1334  0001  0700     R  	mov a,_SpeakSmokeAlarmVoice_2[0]
1334  0002  0A01        	sub a,1
1334  0003  3D0A        	sz z
1334  0004  2800     R  	jmp _L112
1334  0005  0A01        	sub a,(2)-(1)
1334  0006  3D0A        	sz z
1334  0007  2800     R  	jmp _L113
1334  0008              #line 1334 "e:\x-sense_svn\xp02\xp02\src\Smoke.c"
1334  0008  0700     R  	mov a,_SpeakSmokeAlarmVoice_2[0]
1334  0009  0A03        	sub a,3
1334  000A  3D0A        	sz z
1334  000B  2800     R  	jmp _L114
1334  000C  0A01        	sub a,(4)-(3)
1334  000D  3D0A        	sz z
文件：Smoke.c      编译器版本 HGASM 0202 页次50

1334  000E  2800     R  	jmp _L117
1334  000F  0700     R  	mov a,_SpeakSmokeAlarmVoice_2[0]
1334  0010  0A05        	sub a,5
1334  0011  3D0A        	sz z
1334  0012  2800     R  	jmp _L112
1334  0013  0A01        	sub a,(6)-(5)
1334  0014  3D0A        	sz z
1334  0015  2800     R  	jmp _L113
1334  0016  0700     R  	mov a,_SpeakSmokeAlarmVoice_2[0]
1334  0017  0A07        	sub a,7
1334  0018  3D0A        	sz z
1334  0019  2800     R  	jmp _L114
1334  001A  0A01        	sub a,(8)-(7)
1334  001B  3D0A        	sz z
1334  001C  2800     R  	jmp _L115
1334  001D  0700     R  	mov a,_SpeakSmokeAlarmVoice_2[0]
1334  001E  0A0A        	sub a,10
1334  001F  390A        	snz z
1334  0020  2800     R  	jmp _L106
1334  0021  2800     R  	jmp _L115
1334  0022              _L112:
1354  0022              #line 1354 "e:\x-sense_svn\xp02\xp02\src\Smoke.c"
1354  0022  0F29        	mov a,41
1354  0023  0080     E  	mov _SpeakerSendCmd_2[0],a
1354  0024  1F00     E  	clr _SpeakerSendCmd_2[1]
1354  0025  1F00     E  	clr _SpeakerSendCmd_2[2]
1354  0026  1F00     E  	clr _SpeakerSendCmd_2[3]
1354  0027  2800     R  	jmp _L116
1354  0028              _L113:
1358  0028              #line 1358 "e:\x-sense_svn\xp02\xp02\src\Smoke.c"
1358  0028  0F2A        	mov a,42
1358  0029  0080     E  	mov _SpeakerSendCmd_2[0],a
1358  002A  1F00     E  	clr _SpeakerSendCmd_2[1]
1358  002B  1F00     E  	clr _SpeakerSendCmd_2[2]
1358  002C  1F00     E  	clr _SpeakerSendCmd_2[3]
1358  002D  2800     R  	jmp _L116
1358  002E              _L114:
1363  002E              #line 1363 "e:\x-sense_svn\xp02\xp02\src\Smoke.c"
1363  002E  0700     R  	mov a,_SpeakSmokeAlarmVoice_2[1]
1363  002F  0080     E  	mov rb,a
1363  0030  1F00     E  	clr rc
1363  0031  0F2B        	mov a,43
1363  0032  0580     E  	orm a,rc
1363  0033  0F00        	mov a,0
1363  0034  0580     E  	orm a,rb
1363  0035  0700     E  	mov a,rb
1363  0036  0080     E  	mov _SpeakerSendCmd_2[0],a
1363  0037  0700     E  	mov a,rc
1363  0038  0080     E  	mov _SpeakerSendCmd_2[1],a
1363  0039  1F05        	clr acc
1363  003A  3C00     E  	sz _SpeakerSendCmd_2[1].7
1363  003B  1F85        	set acc
1363  003C  0080     E  	mov _SpeakerSendCmd_2[2],a
1363  003D  0080     E  	mov _SpeakerSendCmd_2[3],a
1363  003E  2800     R  	jmp _L116
1363  003F              _L115:
1368  003F              #line 1368 "e:\x-sense_svn\xp02\xp02\src\Smoke.c"
1368  003F  0F29        	mov a,41
1368  0040  0080     E  	mov _SpeakerSendCmd_2[0],a
1368  0041  1F00     E  	clr _SpeakerSendCmd_2[1]
文件：Smoke.c      编译器版本 HGASM 0202 页次51

1368  0042  1F00     E  	clr _SpeakerSendCmd_2[2]
1368  0043  1F00     E  	clr _SpeakerSendCmd_2[3]
1368  0044              	fcall _SpeakerSendCmd
1372  004B              #line 1372 "e:\x-sense_svn\xp02\xp02\src\Smoke.c"
1372  004B  0700     R  	mov a,_SpeakSmokeAlarmVoice_2[1]
1372  004C  0080     E  	mov rd,a
1372  004D  1F00     E  	clr re
1372  004E  1F00     E  	clr rf
1372  004F  1F00     E  	clr rg
1372  0050  0700     E  	mov a,rg
1372  0051  0D00        	or a,0
1372  0052  0080     E  	mov _SpeakerSendCmd_2[3],a
1372  0053  0700     E  	mov a,rf
1372  0054  0D2A        	or a,42
1372  0055  0080     E  	mov _SpeakerSendCmd_2[2],a
1372  0056  0700     E  	mov a,re
1372  0057  0D2B        	or a,43
1372  0058  0080     E  	mov _SpeakerSendCmd_2[1],a
1372  0059  0700     E  	mov a,rd
1372  005A  0D00        	or a,0
1372  005B  0080     E  	mov _SpeakerSendCmd_2[0],a
1372  005C              	fcall _SpeakerSendCmd
1372  0063              _L117:
1373  0063              #line 1373 "e:\x-sense_svn\xp02\xp02\src\Smoke.c"
1373  0063  0F2C        	mov a,44
1373  0064  0080     E  	mov _SpeakerSendCmd_2[0],a
1373  0065  1F00     E  	clr _SpeakerSendCmd_2[1]
1373  0066  1F00     E  	clr _SpeakerSendCmd_2[2]
1373  0067  1F00     E  	clr _SpeakerSendCmd_2[3]
1373  0068              _L116:
1373  0068              	fcall _SpeakerSendCmd
1373  006F              _L106:
1373  006F  0003        	ret
1373  0070              _SpeakSmokeAlarmVoice endp
1373  0070              #line 1373 "e:\x-sense_svn\xp02\xp02\src\Smoke.c"
1373  0070              #pragma debug scope 1 1
1373  004C              @crom	.section 'crom'
1373  004C              _LC16:
1373  004C              	db 053h,074h,061h,072h,074h,020h,043h,061h,069h,06ch
1373  0051              	db 020h,053h,06dh,06fh,06bh,065h,0ah,00h
1373  0055              @crom	.section 'crom'
1373  0055              _LC17:
1373  0055              	db 074h,065h,06dh,070h,020h,065h,072h,072h,03dh,020h
1373  005A              	db 025h,064h,0ah,00h
1373  005C              @crom	.section 'crom'
1373  005C              _LC18:
1373  005C              	db 062h,061h,074h,020h,065h,072h,072h,03dh,025h,064h
1373  0061              	db 06dh,056h,0ah,00h
1373  0063              @crom	.section 'crom'
1373  0063              _LC19:
1373  0063              	db 0ah,054h,03ah,025h,064h,043h,0ah,00h
1373  0067              @crom	.section 'crom'
1373  0067              _LC20:
1373  0067              	db 04ch,02dh,044h,03ah,025h,064h,02ch,020h,044h,05fh
1373  006C              	db 04ch,056h,06fh,06ch,03ah,00h
1373  006F              @crom	.section 'crom'
1373  006F              _LC21:
1373  006F              	db 05fh,069h,073h,067h,064h,061h,074h,061h,030h,03ah
1373  0074              	db 025h,064h,00h
1373  0075              @crom	.section 'crom'
文件：Smoke.c      编译器版本 HGASM 0202 页次52

1373  0075              _LC22:
1373  0075              	db 05fh,069h,073h,067h,064h,061h,074h,061h,031h,03ah
1373  007A              	db 025h,064h,00h
1373  007C              @crom	.section 'crom'
1373  007C              _LC23:
1373  007C              	db 0ah,044h,03dh,025h,064h,02ch,020h,04ch,03dh,025h
1373  0081              	db 064h,02ch,020h,00h
1373  0083              @crom	.section 'crom'
1373  0083              _LC24:
1373  0083              	db 04ch,02dh,044h,03dh,025h,064h,0ah,00h
1373  0087              @crom	.section 'crom'
1373  0087              _LC25:
1373  0087              	db 054h,03dh,025h,064h,0ah,00h
1373  008A              @crom	.section 'crom'
1373  008A              _LC26:
1373  008A              	db 0ah,044h,061h,072h,06bh,03dh,025h,064h,02ch,020h
1373  008F              	db 04ch,069h,067h,068h,074h,03dh,025h,064h,02ch,020h
1373  0094              	db 00h
1373  0094              @crom	.section 'crom'
1373  0094              _LC27:
1373  0094              	db 043h,061h,072h,069h,020h,044h,061h,074h,061h,03dh
1373  0099              	db 025h,064h,0ah,00h
1373  009B              public _SmokeCaliMain
1373  009B              #pragma debug scope 21 1
1391  009B              #line 1391 "e:\x-sense_svn\xp02\xp02\src\Smoke.c"
1391  0000              _SmokeCaliMain .section 'code'
1391  0000              _SmokeCaliMain proc
1391  0000  0006[           local _SmokeCaliMain_2 db 6 dup(?)	; 0,6
            00
            ]
1391  0006              #pragma debug variable 10 21 _SmokeCaliMain_2+0 "BatVol"
1391  0006              #pragma debug variable 14 21 _SmokeCaliMain_2+0 "SmokeData"
1391  0006              #pragma debug variable 8 21 _SmokeCaliMain_2+0 "Result"
1398  0006              #line 1398 "e:\x-sense_svn\xp02\xp02\src\Smoke.c"
1398  0000  0700     E  	mov a,_SysAO[4]
1398  0001  0C01        	xor a,1
1398  0002  0500     E  	or a,_SysAO[5]
1398  0003  3D0A        	sz z
1398  0004  2800     R  	jmp _L120
1398  0005              #line 1398 "e:\x-sense_svn\xp02\xp02\src\Smoke.c"
1398  0005  0700     E  	mov a,_SysAO[4]
1398  0006  0C10        	xor a,16
1398  0007  0500     E  	or a,_SysAO[5]
1398  0008  390A        	snz z
1398  0009  2800     R  	jmp _L118
1398  000A  2800     R  	jmp _L142
1398  000B              _L120:
1401  000B              #line 1401 "e:\x-sense_svn\xp02\xp02\src\Smoke.c"
1401  000B  1F00     R  	clr ___SmokeCaliData_3296[0]
1401  000C  1F00     R  	clr ___SmokeCaliData_3296[1]
1401  000D  1F00     R  	clr ___SmokeCaliData_3296[2]
1401  000E  1F00     R  	clr ___SmokeCaliData_3296[3]
1403  000F              #line 1403 "e:\x-sense_svn\xp02\xp02\src\Smoke.c"
1403  000F              	fcall _LoadSmokeData
1403  0016  0700     E  	mov a,ra
1403  0017  0500     E  	or a,rb
1403  0018  390A        	snz z
1403  0019  2800     R  	jmp _L122
1405  001A              #line 1405 "e:\x-sense_svn\xp02\xp02\src\Smoke.c"
1405  001A  0F00     R  	mov a,low offset _LC16
文件：Smoke.c      编译器版本 HGASM 0202 页次53

1405  001B  0080     E  	mov _printf_2[0],a
1405  001C  0F00     R  	mov a,high offset _LC16
1405  001D  0080     E  	mov _printf_2[1],a
1405  001E              	fcall _printf
1407  0025              #line 1407 "e:\x-sense_svn\xp02\xp02\src\Smoke.c"
1407  0025              	fcall _GetTempIndex
1407  002C  0080     E  	mov ra,a
1407  002D  0700     E  	mov a,ra
1407  002E  0080     E  	mov _SysAO[20],a
1409  002F              #line 1409 "e:\x-sense_svn\xp02\xp02\src\Smoke.c"
1409  002F  1F00     E  	clr _TmrInsertTimer_2[4]
1409  0030  1F00     E  	clr _TmrInsertTimer_2[5]
1409  0031  0FC8        	mov a,-56
1409  0032  0080     E  	mov _TmrInsertTimer_2[2],a
1409  0033  1F00     E  	clr _TmrInsertTimer_2[3]
1409  0034  0F05        	mov a,5
1409  0035  0080     E  	mov _TmrInsertTimer_2[0],a
1409  0036  1F00     E  	clr _TmrInsertTimer_2[1]
1409  0037              	fcall _TmrInsertTimer
1410  003E              #line 1410 "e:\x-sense_svn\xp02\xp02\src\Smoke.c"
1410  003E              	fcall _BatteryCheckHandle
1410  0045  0700     E  	mov a,ra
1410  0046  0080     R  	mov _SmokeCaliMain_2[0],a
1410  0047  0700     E  	mov a,rb
1410  0048  0080     R  	mov _SmokeCaliMain_2[1],a
1412  0049              #line 1412 "e:\x-sense_svn\xp02\xp02\src\Smoke.c"
1412  0049  0700     E  	mov a,_SysAO[20]
1412  004A  0BDA        	add a,218
1412  004B  0080     E  	mov ra,a
1412  004C  0F11        	mov a,17
1412  004D  0200     E  	sub a,ra
1412  004E  3C0A        	sz c
1412  004F  2800     R  	jmp _L123
1412  0050              _L139:
1419  0050              #line 1419 "e:\x-sense_svn\xp02\xp02\src\Smoke.c"
1419  0050  0FEC        	mov a,236
1419  0051  0300     E  	add a,_SysAO[20]
1419  0052  0080     E  	mov _printf_2[2],a
1419  0053  0FFF        	mov a,255
1419  0054  1F00     E  	clr _printf_2[3]
1419  0055  1380     E  	adcm a,_printf_2[3]
1419  0056  0F00     R  	mov a,low offset _LC17
1419  0057  0080     E  	mov _printf_2[0],a
1419  0058  0F00     R  	mov a,high offset _LC17
1419  0059  0080     E  	mov _printf_2[1],a
1419  005A              	fcall _printf
1420  0061              #line 1420 "e:\x-sense_svn\xp02\xp02\src\Smoke.c"
1420  0061  0F05        	mov a,5
1420  0062  0080     E  	mov _CailRes_2[0],a
1420  0063  1F00     E  	clr _CailRes_2[1]
1420  0064  0F00        	mov a,0
1420  0065              	fcall _CailRes
1420  006C  2800     R  	jmp _L139
1420  006D              _L123:
1423  006D              #line 1423 "e:\x-sense_svn\xp02\xp02\src\Smoke.c"
1423  006D  0F48        	mov a,72
1423  006E  0300     R  	add a,_SmokeCaliMain_2[0]
1423  006F  0080     E  	mov rb,a
1423  0070  0FF4        	mov a,244
1423  0071  1300     R  	adc a,_SmokeCaliMain_2[1]
文件：Smoke.c      编译器版本 HGASM 0202 页次54

1423  0072  0080     E  	mov rc,a
1423  0073  0F64        	mov a,100
1423  0074  0200     E  	sub a,rb
1423  0075  0F00        	mov a,0
1423  0076  1200     E  	sbc a,rc
1423  0077  3C0A        	sz c
1423  0078  2800     R  	jmp _L125
1423  0079              _L140:
1427  0079              #line 1427 "e:\x-sense_svn\xp02\xp02\src\Smoke.c"
1427  0079  0700     R  	mov a,_SmokeCaliMain_2[0]
1427  007A  0080     E  	mov _printf_2[2],a
1427  007B  0700     R  	mov a,_SmokeCaliMain_2[1]
1427  007C  0080     E  	mov _printf_2[3],a
1427  007D  0F00     R  	mov a,low offset _LC18
1427  007E  0080     E  	mov _printf_2[0],a
1427  007F  0F00     R  	mov a,high offset _LC18
1427  0080  0080     E  	mov _printf_2[1],a
1427  0081              	fcall _printf
1428  0088              #line 1428 "e:\x-sense_svn\xp02\xp02\src\Smoke.c"
1428  0088  0F06        	mov a,6
1428  0089  0080     E  	mov _CailRes_2[0],a
1428  008A  1F00     E  	clr _CailRes_2[1]
1428  008B  0F00        	mov a,0
1428  008C              	fcall _CailRes
1428  0093  2800     R  	jmp _L140
1428  0094              _L125:
1431  0094              #line 1431 "e:\x-sense_svn\xp02\xp02\src\Smoke.c"
1431  0094  0700     R  	mov a,_SmokeCaliMain_2[1]
1431  0095  0080     E  	mov _E2promWrite_2[0],a
1431  0096  0F03        	mov a,3
1431  0097              	fcall _E2promWrite
1432  009E              #line 1432 "e:\x-sense_svn\xp02\xp02\src\Smoke.c"
1432  009E  0700     R  	mov a,_SmokeCaliMain_2[0]
1432  009F  0080     E  	mov _E2promWrite_2[0],a
1432  00A0  0F04        	mov a,4
1432  00A1              	fcall _E2promWrite
1432  00A8  2800     R  	jmp _L118
1432  00A9              _L122:
1437  00A9              #line 1437 "e:\x-sense_svn\xp02\xp02\src\Smoke.c"
1437  00A9  0F06        	mov a,6
1437  00AA  0080     E  	mov _SysAO[0],a
1437  00AB  1F00     E  	clr _SysAO[1]
1437  00AC  2800     R  	jmp _L118
1437  00AD              _L142:
1447  00AD              #line 1447 "e:\x-sense_svn\xp02\xp02\src\Smoke.c"
1447  00AD  0700     R  	mov a,___i_3293[0]
1447  00AE  0080     E  	mov ra,a
1447  00AF  1400     E  	inca ra
1447  00B0  0080     R  	mov ___i_3293[0],a
1447  00B1  0F0F        	mov a,15
1447  00B2  0200     E  	sub a,ra
1447  00B3  380A        	snz c
1447  00B4  2800     R  	jmp _L127
1449  00B5              #line 1449 "e:\x-sense_svn\xp02\xp02\src\Smoke.c"
1449  00B5              	fcall _GetSmokeData
1449  00BC  0700     E  	mov a,ra
1449  00BD  0080     R  	mov _SmokeCaliMain_2[0],a
1449  00BE  0700     E  	mov a,rb
1449  00BF  0080     R  	mov _SmokeCaliMain_2[1],a
1449  00C0  1F00     R  	clr _SmokeCaliMain_2[2]
文件：Smoke.c      编译器版本 HGASM 0202 页次55

1449  00C1  1F00     R  	clr _SmokeCaliMain_2[3]
1451  00C2              #line 1451 "e:\x-sense_svn\xp02\xp02\src\Smoke.c"
1451  00C2  0700     R  	mov a,_SmokeCaliMain_2[0]
1451  00C3  0380     R  	addm a,___SmokeCaliData_3296[0]
1451  00C4  0700     R  	mov a,_SmokeCaliMain_2[1]
1451  00C5  1380     R  	adcm a,___SmokeCaliData_3296[1]
1451  00C6  0700     R  	mov a,_SmokeCaliMain_2[2]
1451  00C7  1380     R  	adcm a,___SmokeCaliData_3296[2]
1451  00C8  0700     R  	mov a,_SmokeCaliMain_2[3]
1451  00C9  1380     R  	adcm a,___SmokeCaliData_3296[3]
1453  00CA              #line 1453 "e:\x-sense_svn\xp02\xp02\src\Smoke.c"
1453  00CA  0FEC        	mov a,236
1453  00CB  0300     E  	add a,_SysAO[20]
1453  00CC  0080     E  	mov _printf_2[2],a
1453  00CD  0FFF        	mov a,255
1453  00CE  1F00     E  	clr _printf_2[3]
1453  00CF  1380     E  	adcm a,_printf_2[3]
1453  00D0  0F00     R  	mov a,low offset _LC19
1453  00D1  0080     E  	mov _printf_2[0],a
1453  00D2  0F00     R  	mov a,high offset _LC19
1453  00D3  0080     E  	mov _printf_2[1],a
1453  00D4              	fcall _printf
1454  00DB              #line 1454 "e:\x-sense_svn\xp02\xp02\src\Smoke.c"
1454  00DB  0700     R  	mov a,_SmokeAO[1]
1454  00DC  0080     E  	mov _printf_2[2],a
1454  00DD  0700     R  	mov a,_SmokeAO[2]
1454  00DE  0080     E  	mov _printf_2[3],a
1454  00DF  0F00     R  	mov a,low offset _LC10
1454  00E0  0080     E  	mov _printf_2[0],a
1454  00E1  0F00     R  	mov a,high offset _LC10
1454  00E2  0080     E  	mov _printf_2[1],a
1454  00E3              	fcall _printf
1455  00EA              #line 1455 "e:\x-sense_svn\xp02\xp02\src\Smoke.c"
1455  00EA  1F00     E  	clr _builtin_holtek_udivmodhi4_2[6]
1455  00EB  0700     R  	mov a,_SmokeAO[1]  
1455  00EC  0080     E  	mov _builtin_holtek_udivmodhi4_2[0],a  
1455  00ED  0700     R  	mov a,_SmokeAO[2]  
1455  00EE  0080     E  	mov _builtin_holtek_udivmodhi4_2[1],a
1455  00EF  0FE8        	mov a,232  
1455  00F0  0080     E  	mov _builtin_holtek_udivmodhi4_2[2],a  
1455  00F1  0F03        	mov a,3  
1455  00F2  0080     E  	mov _builtin_holtek_udivmodhi4_2[3],a
1455  00F3              	fcall _builtin_holtek_udivmodhi4
1455  00FA  0700     E  	mov a,_builtin_holtek_udivmodhi4_2[0]  
1455  00FB  0080     E  	mov _printf_2[2],a  
1455  00FC  0700     E  	mov a,_builtin_holtek_udivmodhi4_2[1]  
1455  00FD  0080     E  	mov _printf_2[3],a
1455  00FE  0F00     R  	mov a,low offset _LC5
1455  00FF  0080     E  	mov _printf_2[0],a
1455  0100  0F00     R  	mov a,high offset _LC5
1455  0101  0080     E  	mov _printf_2[1],a
1455  0102              	fcall _printf
1455  0109  1F00     E  	clr _builtin_holtek_udivmodhi4_2[6]
1455  010A  0700     R  	mov a,_SmokeAO[1]  
1455  010B  0080     E  	mov _builtin_holtek_udivmodhi4_2[0],a  
1455  010C  0700     R  	mov a,_SmokeAO[2]  
1455  010D  0080     E  	mov _builtin_holtek_udivmodhi4_2[1],a
1455  010E  0FE8        	mov a,232  
1455  010F  0080     E  	mov _builtin_holtek_udivmodhi4_2[2],a  
1455  0110  0F03        	mov a,3  
文件：Smoke.c      编译器版本 HGASM 0202 页次56

1455  0111  0080     E  	mov _builtin_holtek_udivmodhi4_2[3],a
1455  0112              	fcall _builtin_holtek_udivmodhi4
1455  0119  0700     E  	mov a,_builtin_holtek_udivmodhi4_2[4]  
1455  011A  0080     E  	mov rb,a  
1455  011B  0700     E  	mov a,_builtin_holtek_udivmodhi4_2[5]  
1455  011C  0080     E  	mov rc,a
1455  011D  1F00     E  	clr _builtin_holtek_udivmodhi4_2[6]
1455  011E  0700     E  	mov a,rb  
1455  011F  0080     E  	mov _builtin_holtek_udivmodhi4_2[0],a  
1455  0120  0700     E  	mov a,rc  
1455  0121  0080     E  	mov _builtin_holtek_udivmodhi4_2[1],a
1455  0122  0F64        	mov a,100  
1455  0123  0080     E  	mov _builtin_holtek_udivmodhi4_2[2],a  
1455  0124  1F00     E  	clr _builtin_holtek_udivmodhi4_2[3]
1455  0125              	fcall _builtin_holtek_udivmodhi4
1455  012C  0700     E  	mov a,_builtin_holtek_udivmodhi4_2[0]  
1455  012D  0080     E  	mov _printf_2[2],a  
1455  012E  0700     E  	mov a,_builtin_holtek_udivmodhi4_2[1]  
1455  012F  0080     E  	mov _printf_2[3],a
1455  0130  0F00     R  	mov a,low offset _LC6
1455  0131  0080     E  	mov _printf_2[0],a
1455  0132  0F00     R  	mov a,high offset _LC6
1455  0133  0080     E  	mov _printf_2[1],a
1455  0134              	fcall _printf
1455  013B  1F00     E  	clr _builtin_holtek_udivmodhi4_2[6]
1455  013C  0700     R  	mov a,_SmokeAO[1]  
1455  013D  0080     E  	mov _builtin_holtek_udivmodhi4_2[0],a  
1455  013E  0700     R  	mov a,_SmokeAO[2]  
1455  013F  0080     E  	mov _builtin_holtek_udivmodhi4_2[1],a
1455  0140  0F64        	mov a,100  
1455  0141  0080     E  	mov _builtin_holtek_udivmodhi4_2[2],a  
1455  0142  1F00     E  	clr _builtin_holtek_udivmodhi4_2[3]
1455  0143              	fcall _builtin_holtek_udivmodhi4
1455  014A  0700     E  	mov a,_builtin_holtek_udivmodhi4_2[4]  
1455  014B  0080     E  	mov rb,a  
1455  014C  0700     E  	mov a,_builtin_holtek_udivmodhi4_2[5]  
1455  014D  0080     E  	mov rc,a
1455  014E  1F00     E  	clr _builtin_holtek_udivmodhi4_2[6]
1455  014F  0700     E  	mov a,rb  
1455  0150  0080     E  	mov _builtin_holtek_udivmodhi4_2[0],a  
1455  0151  0700     E  	mov a,rc  
1455  0152  0080     E  	mov _builtin_holtek_udivmodhi4_2[1],a
1455  0153  0F0A        	mov a,10  
1455  0154  0080     E  	mov _builtin_holtek_udivmodhi4_2[2],a  
1455  0155  1F00     E  	clr _builtin_holtek_udivmodhi4_2[3]
1455  0156              	fcall _builtin_holtek_udivmodhi4
1455  015D  0700     E  	mov a,_builtin_holtek_udivmodhi4_2[0]  
1455  015E  0080     E  	mov _printf_2[2],a  
1455  015F  0700     E  	mov a,_builtin_holtek_udivmodhi4_2[1]  
1455  0160  0080     E  	mov _printf_2[3],a
1455  0161  0F00     R  	mov a,low offset _LC5
1455  0162  0080     E  	mov _printf_2[0],a
1455  0163  0F00     R  	mov a,high offset _LC5
1455  0164  0080     E  	mov _printf_2[1],a
1455  0165              	fcall _printf
1455  016C  1F00     E  	clr _builtin_holtek_udivmodhi4_2[6]
1455  016D  0700     R  	mov a,_SmokeAO[1]  
1455  016E  0080     E  	mov _builtin_holtek_udivmodhi4_2[0],a  
1455  016F  0700     R  	mov a,_SmokeAO[2]  
1455  0170  0080     E  	mov _builtin_holtek_udivmodhi4_2[1],a
文件：Smoke.c      编译器版本 HGASM 0202 页次57

1455  0171  0F0A        	mov a,10  
1455  0172  0080     E  	mov _builtin_holtek_udivmodhi4_2[2],a  
1455  0173  1F00     E  	clr _builtin_holtek_udivmodhi4_2[3]
1455  0174              	fcall _builtin_holtek_udivmodhi4
1455  017B  0700     E  	mov a,_builtin_holtek_udivmodhi4_2[4]  
1455  017C  0080     E  	mov _printf_2[2],a  
1455  017D  0700     E  	mov a,_builtin_holtek_udivmodhi4_2[5]  
1455  017E  0080     E  	mov _printf_2[3],a
1455  017F  0F00     R  	mov a,low offset _LC5
1455  0180  0080     E  	mov _printf_2[0],a
1455  0181  0F00     R  	mov a,high offset _LC5
1455  0182  0080     E  	mov _printf_2[1],a
1455  0183              	fcall _printf
1457  018A              #line 1457 "e:\x-sense_svn\xp02\xp02\src\Smoke.c"
1457  018A  0F00     R  	mov a,low offset _LC11
1457  018B  0080     E  	mov _printf_2[0],a
1457  018C  0F00     R  	mov a,high offset _LC11
1457  018D  0080     E  	mov _printf_2[1],a
1457  018E              	fcall _printf
1458  0195              #line 1458 "e:\x-sense_svn\xp02\xp02\src\Smoke.c"
1458  0195  0700     R  	mov a,_SmokeAO[3]
1458  0196  0080     E  	mov _printf_2[2],a
1458  0197  0700     R  	mov a,_SmokeAO[4]
1458  0198  0080     E  	mov _printf_2[3],a
1458  0199  0F00     R  	mov a,low offset _LC12
1458  019A  0080     E  	mov _printf_2[0],a
1458  019B  0F00     R  	mov a,high offset _LC12
1458  019C  0080     E  	mov _printf_2[1],a
1458  019D              	fcall _printf
1459  01A4              #line 1459 "e:\x-sense_svn\xp02\xp02\src\Smoke.c"
1459  01A4  1F00     E  	clr _builtin_holtek_udivmodhi4_2[6]
1459  01A5  0700     R  	mov a,_SmokeAO[3]  
1459  01A6  0080     E  	mov _builtin_holtek_udivmodhi4_2[0],a  
1459  01A7  0700     R  	mov a,_SmokeAO[4]  
1459  01A8  0080     E  	mov _builtin_holtek_udivmodhi4_2[1],a
1459  01A9  0FE8        	mov a,232  
1459  01AA  0080     E  	mov _builtin_holtek_udivmodhi4_2[2],a  
1459  01AB  0F03        	mov a,3  
1459  01AC  0080     E  	mov _builtin_holtek_udivmodhi4_2[3],a
1459  01AD              	fcall _builtin_holtek_udivmodhi4
1459  01B4  0700     E  	mov a,_builtin_holtek_udivmodhi4_2[0]  
1459  01B5  0080     E  	mov _printf_2[2],a  
1459  01B6  0700     E  	mov a,_builtin_holtek_udivmodhi4_2[1]  
1459  01B7  0080     E  	mov _printf_2[3],a
1459  01B8  0F00     R  	mov a,low offset _LC5
1459  01B9  0080     E  	mov _printf_2[0],a
1459  01BA  0F00     R  	mov a,high offset _LC5
1459  01BB  0080     E  	mov _printf_2[1],a
1459  01BC              	fcall _printf
1459  01C3  1F00     E  	clr _builtin_holtek_udivmodhi4_2[6]
1459  01C4  0700     R  	mov a,_SmokeAO[3]  
1459  01C5  0080     E  	mov _builtin_holtek_udivmodhi4_2[0],a  
1459  01C6  0700     R  	mov a,_SmokeAO[4]  
1459  01C7  0080     E  	mov _builtin_holtek_udivmodhi4_2[1],a
1459  01C8  0FE8        	mov a,232  
1459  01C9  0080     E  	mov _builtin_holtek_udivmodhi4_2[2],a  
1459  01CA  0F03        	mov a,3  
1459  01CB  0080     E  	mov _builtin_holtek_udivmodhi4_2[3],a
1459  01CC              	fcall _builtin_holtek_udivmodhi4
1459  01D3  0700     E  	mov a,_builtin_holtek_udivmodhi4_2[4]  
文件：Smoke.c      编译器版本 HGASM 0202 页次58

1459  01D4  0080     E  	mov rb,a  
1459  01D5  0700     E  	mov a,_builtin_holtek_udivmodhi4_2[5]  
1459  01D6  0080     E  	mov rc,a
1459  01D7  1F00     E  	clr _builtin_holtek_udivmodhi4_2[6]
1459  01D8  0700     E  	mov a,rb  
1459  01D9  0080     E  	mov _builtin_holtek_udivmodhi4_2[0],a  
1459  01DA  0700     E  	mov a,rc  
1459  01DB  0080     E  	mov _builtin_holtek_udivmodhi4_2[1],a
1459  01DC  0F64        	mov a,100  
1459  01DD  0080     E  	mov _builtin_holtek_udivmodhi4_2[2],a  
1459  01DE  1F00     E  	clr _builtin_holtek_udivmodhi4_2[3]
1459  01DF              	fcall _builtin_holtek_udivmodhi4
1459  01E6  0700     E  	mov a,_builtin_holtek_udivmodhi4_2[0]  
1459  01E7  0080     E  	mov _printf_2[2],a  
1459  01E8  0700     E  	mov a,_builtin_holtek_udivmodhi4_2[1]  
1459  01E9  0080     E  	mov _printf_2[3],a
1459  01EA  0F00     R  	mov a,low offset _LC6
1459  01EB  0080     E  	mov _printf_2[0],a
1459  01EC  0F00     R  	mov a,high offset _LC6
1459  01ED  0080     E  	mov _printf_2[1],a
1459  01EE              	fcall _printf
1459  01F5  1F00     E  	clr _builtin_holtek_udivmodhi4_2[6]
1459  01F6  0700     R  	mov a,_SmokeAO[3]  
1459  01F7  0080     E  	mov _builtin_holtek_udivmodhi4_2[0],a  
1459  01F8  0700     R  	mov a,_SmokeAO[4]  
1459  01F9  0080     E  	mov _builtin_holtek_udivmodhi4_2[1],a
1459  01FA  0F64        	mov a,100  
1459  01FB  0080     E  	mov _builtin_holtek_udivmodhi4_2[2],a  
1459  01FC  1F00     E  	clr _builtin_holtek_udivmodhi4_2[3]
1459  01FD              	fcall _builtin_holtek_udivmodhi4
1459  0204  0700     E  	mov a,_builtin_holtek_udivmodhi4_2[4]  
1459  0205  0080     E  	mov rb,a  
1459  0206  0700     E  	mov a,_builtin_holtek_udivmodhi4_2[5]  
1459  0207  0080     E  	mov rc,a
1459  0208  1F00     E  	clr _builtin_holtek_udivmodhi4_2[6]
1459  0209  0700     E  	mov a,rb  
1459  020A  0080     E  	mov _builtin_holtek_udivmodhi4_2[0],a  
1459  020B  0700     E  	mov a,rc  
1459  020C  0080     E  	mov _builtin_holtek_udivmodhi4_2[1],a
1459  020D  0F0A        	mov a,10  
1459  020E  0080     E  	mov _builtin_holtek_udivmodhi4_2[2],a  
1459  020F  1F00     E  	clr _builtin_holtek_udivmodhi4_2[3]
1459  0210              	fcall _builtin_holtek_udivmodhi4
1459  0217  0700     E  	mov a,_builtin_holtek_udivmodhi4_2[0]  
1459  0218  0080     E  	mov _printf_2[2],a  
1459  0219  0700     E  	mov a,_builtin_holtek_udivmodhi4_2[1]  
1459  021A  0080     E  	mov _printf_2[3],a
1459  021B  0F00     R  	mov a,low offset _LC5
1459  021C  0080     E  	mov _printf_2[0],a
1459  021D  0F00     R  	mov a,high offset _LC5
1459  021E  0080     E  	mov _printf_2[1],a
1459  021F              	fcall _printf
1459  0226  1F00     E  	clr _builtin_holtek_udivmodhi4_2[6]
1459  0227  0700     R  	mov a,_SmokeAO[3]  
1459  0228  0080     E  	mov _builtin_holtek_udivmodhi4_2[0],a  
1459  0229  0700     R  	mov a,_SmokeAO[4]  
1459  022A  0080     E  	mov _builtin_holtek_udivmodhi4_2[1],a
1459  022B  0F0A        	mov a,10  
1459  022C  0080     E  	mov _builtin_holtek_udivmodhi4_2[2],a  
1459  022D  1F00     E  	clr _builtin_holtek_udivmodhi4_2[3]
文件：Smoke.c      编译器版本 HGASM 0202 页次59

1459  022E              	fcall _builtin_holtek_udivmodhi4
1459  0235  0700     E  	mov a,_builtin_holtek_udivmodhi4_2[4]  
1459  0236  0080     E  	mov _printf_2[2],a  
1459  0237  0700     E  	mov a,_builtin_holtek_udivmodhi4_2[5]  
1459  0238  0080     E  	mov _printf_2[3],a
1459  0239  0F00     R  	mov a,low offset _LC5
1459  023A  0080     E  	mov _printf_2[0],a
1459  023B  0F00     R  	mov a,high offset _LC5
1459  023C  0080     E  	mov _printf_2[1],a
1459  023D              	fcall _printf
1461  0244              #line 1461 "e:\x-sense_svn\xp02\xp02\src\Smoke.c"
1461  0244  0F00     R  	mov a,low offset _LC11
1461  0245  0080     E  	mov _printf_2[0],a
1461  0246  0F00     R  	mov a,high offset _LC11
1461  0247  0080     E  	mov _printf_2[1],a
1461  0248              	fcall _printf
1462  024F              #line 1462 "e:\x-sense_svn\xp02\xp02\src\Smoke.c"
1462  024F  0700     R  	mov a,_SmokeCaliMain_2[0]
1462  0250  0080     E  	mov _printf_2[2],a
1462  0251  0700     R  	mov a,_SmokeCaliMain_2[1]
1462  0252  0080     E  	mov _printf_2[3],a
1462  0253  0700     R  	mov a,_SmokeCaliMain_2[2]
1462  0254  0080     E  	mov _printf_2[4],a
1462  0255  0700     R  	mov a,_SmokeCaliMain_2[3]
1462  0256  0080     E  	mov _printf_2[5],a
1462  0257  0F00     R  	mov a,low offset _LC20
1462  0258  0080     E  	mov _printf_2[0],a
1462  0259  0F00     R  	mov a,high offset _LC20
1462  025A  0080     E  	mov _printf_2[1],a
1462  025B              	fcall _printf
1463  0262              #line 1463 "e:\x-sense_svn\xp02\xp02\src\Smoke.c"
1463  0262  1F00     E  	clr _builtin_holtek_udivmodsi4_2[12]
1463  0263  0700     R  	mov a,_SmokeCaliMain_2[0]  
1463  0264  0080     E  	mov _builtin_holtek_udivmodsi4_2[0],a  
1463  0265  0700     R  	mov a,_SmokeCaliMain_2[1]  
1463  0266  0080     E  	mov _builtin_holtek_udivmodsi4_2[1],a
1463  0267  0700     R  	mov a,_SmokeCaliMain_2[2]  
1463  0268  0080     E  	mov _builtin_holtek_udivmodsi4_2[2],a  
1463  0269  0700     R  	mov a,_SmokeCaliMain_2[3]  
1463  026A  0080     E  	mov _builtin_holtek_udivmodsi4_2[3],a
1463  026B  0FE8        	mov a,232  
1463  026C  0080     E  	mov _builtin_holtek_udivmodsi4_2[4],a  
1463  026D  0F03        	mov a,3  
1463  026E  0080     E  	mov _builtin_holtek_udivmodsi4_2[5],a
1463  026F  1F00     E  	clr _builtin_holtek_udivmodsi4_2[6]
1463  0270  1F00     E  	clr _builtin_holtek_udivmodsi4_2[7]
1463  0271              	fcall _builtin_holtek_udivmodsi4
1463  0278  0700     E  	mov a,_builtin_holtek_udivmodsi4_2[0]  
1463  0279  0080     E  	mov _printf_2[2],a  
1463  027A  0700     E  	mov a,_builtin_holtek_udivmodsi4_2[1]  
1463  027B  0080     E  	mov _printf_2[3],a
1463  027C  0700     E  	mov a,_builtin_holtek_udivmodsi4_2[2]  
1463  027D  0080     E  	mov _printf_2[4],a  
1463  027E  0700     E  	mov a,_builtin_holtek_udivmodsi4_2[3]  
1463  027F  0080     E  	mov _printf_2[5],a
1463  0280  0F00     R  	mov a,low offset _LC5
1463  0281  0080     E  	mov _printf_2[0],a
1463  0282  0F00     R  	mov a,high offset _LC5
1463  0283  0080     E  	mov _printf_2[1],a
1463  0284              	fcall _printf
文件：Smoke.c      编译器版本 HGASM 0202 页次60

1463  028B  1F00     E  	clr _builtin_holtek_udivmodsi4_2[12]
1463  028C  0700     R  	mov a,_SmokeCaliMain_2[0]  
1463  028D  0080     E  	mov _builtin_holtek_udivmodsi4_2[0],a  
1463  028E  0700     R  	mov a,_SmokeCaliMain_2[1]  
1463  028F  0080     E  	mov _builtin_holtek_udivmodsi4_2[1],a
1463  0290  0700     R  	mov a,_SmokeCaliMain_2[2]  
1463  0291  0080     E  	mov _builtin_holtek_udivmodsi4_2[2],a  
1463  0292  0700     R  	mov a,_SmokeCaliMain_2[3]  
1463  0293  0080     E  	mov _builtin_holtek_udivmodsi4_2[3],a
1463  0294  0FE8        	mov a,232  
1463  0295  0080     E  	mov _builtin_holtek_udivmodsi4_2[4],a  
1463  0296  0F03        	mov a,3  
1463  0297  0080     E  	mov _builtin_holtek_udivmodsi4_2[5],a
1463  0298  1F00     E  	clr _builtin_holtek_udivmodsi4_2[6]
1463  0299  1F00     E  	clr _builtin_holtek_udivmodsi4_2[7]
1463  029A              	fcall _builtin_holtek_udivmodsi4
1463  02A1  0700     E  	mov a,_builtin_holtek_udivmodsi4_2[8]  
1463  02A2  0080     E  	mov rd,a  
1463  02A3  0700     E  	mov a,_builtin_holtek_udivmodsi4_2[9]  
1463  02A4  0080     E  	mov re,a
1463  02A5  0700     E  	mov a,_builtin_holtek_udivmodsi4_2[10] 
1463  02A6  0080     E  	mov rf,a  
1463  02A7  0700     E  	mov a,_builtin_holtek_udivmodsi4_2[11] 
1463  02A8  0080     E  	mov rg,a
1463  02A9  1F00     E  	clr _builtin_holtek_udivmodsi4_2[12]
1463  02AA  0700     E  	mov a,rd  
1463  02AB  0080     E  	mov _builtin_holtek_udivmodsi4_2[0],a  
1463  02AC  0700     E  	mov a,re  
1463  02AD  0080     E  	mov _builtin_holtek_udivmodsi4_2[1],a
1463  02AE  0700     E  	mov a,rf  
1463  02AF  0080     E  	mov _builtin_holtek_udivmodsi4_2[2],a  
1463  02B0  0700     E  	mov a,rg  
1463  02B1  0080     E  	mov _builtin_holtek_udivmodsi4_2[3],a
1463  02B2  0F64        	mov a,100  
1463  02B3  0080     E  	mov _builtin_holtek_udivmodsi4_2[4],a  
1463  02B4  0F00        	mov a,0  
1463  02B5  0080     E  	mov _builtin_holtek_udivmodsi4_2[5],a
1463  02B6  1F00     E  	clr _builtin_holtek_udivmodsi4_2[6]
1463  02B7  1F00     E  	clr _builtin_holtek_udivmodsi4_2[7]
1463  02B8              	fcall _builtin_holtek_udivmodsi4
1463  02BF  0700     E  	mov a,_builtin_holtek_udivmodsi4_2[0]  
1463  02C0  0080     E  	mov _printf_2[2],a  
1463  02C1  0700     E  	mov a,_builtin_holtek_udivmodsi4_2[1]  
1463  02C2  0080     E  	mov _printf_2[3],a
1463  02C3  0700     E  	mov a,_builtin_holtek_udivmodsi4_2[2]  
1463  02C4  0080     E  	mov _printf_2[4],a  
1463  02C5  0700     E  	mov a,_builtin_holtek_udivmodsi4_2[3]  
1463  02C6  0080     E  	mov _printf_2[5],a
1463  02C7  0F00     R  	mov a,low offset _LC6
1463  02C8  0080     E  	mov _printf_2[0],a
1463  02C9  0F00     R  	mov a,high offset _LC6
1463  02CA  0080     E  	mov _printf_2[1],a
1463  02CB              	fcall _printf
1463  02D2  1F00     E  	clr _builtin_holtek_udivmodsi4_2[12]
1463  02D3  0700     R  	mov a,_SmokeCaliMain_2[0]  
1463  02D4  0080     E  	mov _builtin_holtek_udivmodsi4_2[0],a  
1463  02D5  0700     R  	mov a,_SmokeCaliMain_2[1]  
1463  02D6  0080     E  	mov _builtin_holtek_udivmodsi4_2[1],a
1463  02D7  0700     R  	mov a,_SmokeCaliMain_2[2]  
1463  02D8  0080     E  	mov _builtin_holtek_udivmodsi4_2[2],a  
文件：Smoke.c      编译器版本 HGASM 0202 页次61

1463  02D9  0700     R  	mov a,_SmokeCaliMain_2[3]  
1463  02DA  0080     E  	mov _builtin_holtek_udivmodsi4_2[3],a
1463  02DB  0F64        	mov a,100  
1463  02DC  0080     E  	mov _builtin_holtek_udivmodsi4_2[4],a  
1463  02DD  0F00        	mov a,0  
1463  02DE  0080     E  	mov _builtin_holtek_udivmodsi4_2[5],a
1463  02DF  1F00     E  	clr _builtin_holtek_udivmodsi4_2[6]
1463  02E0  1F00     E  	clr _builtin_holtek_udivmodsi4_2[7]
1463  02E1              	fcall _builtin_holtek_udivmodsi4
1463  02E8  0700     E  	mov a,_builtin_holtek_udivmodsi4_2[8]  
1463  02E9  0080     E  	mov rd,a  
1463  02EA  0700     E  	mov a,_builtin_holtek_udivmodsi4_2[9]  
1463  02EB  0080     E  	mov re,a
1463  02EC  0700     E  	mov a,_builtin_holtek_udivmodsi4_2[10] 
1463  02ED  0080     E  	mov rf,a  
1463  02EE  0700     E  	mov a,_builtin_holtek_udivmodsi4_2[11] 
1463  02EF  0080     E  	mov rg,a
1463  02F0  1F00     E  	clr _builtin_holtek_udivmodsi4_2[12]
1463  02F1  0700     E  	mov a,rd  
1463  02F2  0080     E  	mov _builtin_holtek_udivmodsi4_2[0],a  
1463  02F3  0700     E  	mov a,re  
1463  02F4  0080     E  	mov _builtin_holtek_udivmodsi4_2[1],a
1463  02F5  0700     E  	mov a,rf  
1463  02F6  0080     E  	mov _builtin_holtek_udivmodsi4_2[2],a  
1463  02F7  0700     E  	mov a,rg  
1463  02F8  0080     E  	mov _builtin_holtek_udivmodsi4_2[3],a
1463  02F9  0F0A        	mov a,10  
1463  02FA  0080     E  	mov _builtin_holtek_udivmodsi4_2[4],a  
1463  02FB  0F00        	mov a,0  
1463  02FC  0080     E  	mov _builtin_holtek_udivmodsi4_2[5],a
1463  02FD  1F00     E  	clr _builtin_holtek_udivmodsi4_2[6]
1463  02FE  1F00     E  	clr _builtin_holtek_udivmodsi4_2[7]
1463  02FF              	fcall _builtin_holtek_udivmodsi4
1463  0306  0700     E  	mov a,_builtin_holtek_udivmodsi4_2[0]  
1463  0307  0080     E  	mov _printf_2[2],a  
1463  0308  0700     E  	mov a,_builtin_holtek_udivmodsi4_2[1]  
1463  0309  0080     E  	mov _printf_2[3],a
1463  030A  0700     E  	mov a,_builtin_holtek_udivmodsi4_2[2]  
1463  030B  0080     E  	mov _printf_2[4],a  
1463  030C  0700     E  	mov a,_builtin_holtek_udivmodsi4_2[3]  
1463  030D  0080     E  	mov _printf_2[5],a
1463  030E  0F00     R  	mov a,low offset _LC5
1463  030F  0080     E  	mov _printf_2[0],a
1463  0310  0F00     R  	mov a,high offset _LC5
1463  0311  0080     E  	mov _printf_2[1],a
1463  0312              	fcall _printf
1463  0319  1F00     E  	clr _builtin_holtek_udivmodsi4_2[12]
1463  031A  0700     R  	mov a,_SmokeCaliMain_2[0]  
1463  031B  0080     E  	mov _builtin_holtek_udivmodsi4_2[0],a  
1463  031C  0700     R  	mov a,_SmokeCaliMain_2[1]  
1463  031D  0080     E  	mov _builtin_holtek_udivmodsi4_2[1],a
1463  031E  0700     R  	mov a,_SmokeCaliMain_2[2]  
1463  031F  0080     E  	mov _builtin_holtek_udivmodsi4_2[2],a  
1463  0320  0700     R  	mov a,_SmokeCaliMain_2[3]  
1463  0321  0080     E  	mov _builtin_holtek_udivmodsi4_2[3],a
1463  0322  0F0A        	mov a,10  
1463  0323  0080     E  	mov _builtin_holtek_udivmodsi4_2[4],a  
1463  0324  0F00        	mov a,0  
1463  0325  0080     E  	mov _builtin_holtek_udivmodsi4_2[5],a
1463  0326  1F00     E  	clr _builtin_holtek_udivmodsi4_2[6]
文件：Smoke.c      编译器版本 HGASM 0202 页次62

1463  0327  1F00     E  	clr _builtin_holtek_udivmodsi4_2[7]
1463  0328              	fcall _builtin_holtek_udivmodsi4
1463  032F  0700     E  	mov a,_builtin_holtek_udivmodsi4_2[8]  
1463  0330  0080     E  	mov _printf_2[2],a  
1463  0331  0700     E  	mov a,_builtin_holtek_udivmodsi4_2[9]  
1463  0332  0080     E  	mov _printf_2[3],a
1463  0333  0700     E  	mov a,_builtin_holtek_udivmodsi4_2[10] 
1463  0334  0080     E  	mov _printf_2[4],a  
1463  0335  0700     E  	mov a,_builtin_holtek_udivmodsi4_2[11] 
1463  0336  0080     E  	mov _printf_2[5],a
1463  0337  0F00     R  	mov a,low offset _LC5
1463  0338  0080     E  	mov _printf_2[0],a
1463  0339  0F00     R  	mov a,high offset _LC5
1463  033A  0080     E  	mov _printf_2[1],a
1463  033B              	fcall _printf
1464  0342              #line 1464 "e:\x-sense_svn\xp02\xp02\src\Smoke.c"
1464  0342  0F00     R  	mov a,low offset _LC8
1464  0343  0080     E  	mov _printf_2[0],a
1464  0344  0F00     R  	mov a,high offset _LC8
1464  0345  0080     E  	mov _printf_2[1],a
1464  0346              	fcall _printf
1466  034D              #line 1466 "e:\x-sense_svn\xp02\xp02\src\Smoke.c"
1466  034D  0740        	mov a,[64]
1466  034E  0080     E  	mov _printf_2[2],a
1466  034F  1F00     E  	clr _printf_2[3]
1466  0350  0F00     R  	mov a,low offset _LC21
1466  0351  0080     E  	mov _printf_2[0],a
1466  0352  0F00     R  	mov a,high offset _LC21
1466  0353  0080     E  	mov _printf_2[1],a
1466  0354              	fcall _printf
1467  035B              #line 1467 "e:\x-sense_svn\xp02\xp02\src\Smoke.c"
1467  035B  0741        	mov a,[65]
1467  035C  0080     E  	mov _printf_2[2],a
1467  035D  1F00     E  	clr _printf_2[3]
1467  035E  0F00     R  	mov a,low offset _LC22
1467  035F  0080     E  	mov _printf_2[0],a
1467  0360  0F00     R  	mov a,high offset _LC22
1467  0361  0080     E  	mov _printf_2[1],a
1467  0362              	fcall _printf
1468  0369              #line 1468 "e:\x-sense_svn\xp02\xp02\src\Smoke.c"
1468  0369  0F00     R  	mov a,low offset _LC8
1468  036A  0080     E  	mov _printf_2[0],a
1468  036B  0F00     R  	mov a,high offset _LC8
1468  036C  0080     E  	mov _printf_2[1],a
1468  036D              	fcall _printf
1471  0374              #line 1471 "e:\x-sense_svn\xp02\xp02\src\Smoke.c"
1471  0374  0F32        	mov a,50
1471  0375  0200     R  	sub a,_SmokeAO[1]
1471  0376  0F00        	mov a,0
1471  0377  1200     R  	sbc a,_SmokeAO[2]
1471  0378  380A        	snz c
1471  0379  2800     R  	jmp _L138
1471  037A  0FAF        	mov a,175
1471  037B  0200     R  	sub a,_SmokeAO[3]
1471  037C  0F04        	mov a,4
1471  037D  1200     R  	sbc a,_SmokeAO[4]
1471  037E  3C0A        	sz c
1471  037F  2800     R  	jmp _L138
1472  0380              #line 1472 "e:\x-sense_svn\xp02\xp02\src\Smoke.c"
1472  0380  1080     R  	sz _SmokeCaliMain_2[3]
文件：Smoke.c      编译器版本 HGASM 0202 页次63

1472  0381  2800     R  	jmp _L141
1472  0382  1080     R  	sz _SmokeCaliMain_2[2]
1472  0383  2800     R  	jmp _L141
1472  0384  0700     R  	mov a,_SmokeCaliMain_2[0]
1472  0385  0200     E  	sub a,_SMOKE_ALARM_LEVEL[0]
1472  0386  0700     R  	mov a,_SmokeCaliMain_2[1]
1472  0387  1200     E  	sbc a,_SMOKE_ALARM_LEVEL[1]
1472  0388  3C0A        	sz c
1472  0389  2800     R  	jmp _L141
1472  038A              _L138:
1478  038A              #line 1478 "e:\x-sense_svn\xp02\xp02\src\Smoke.c"
1478  038A  0700     R  	mov a,_SmokeAO[3]
1478  038B  0080     E  	mov _printf_2[4],a
1478  038C  0700     R  	mov a,_SmokeAO[4]
1478  038D  0080     E  	mov _printf_2[5],a
1478  038E  0700     R  	mov a,_SmokeAO[1]
1478  038F  0080     E  	mov _printf_2[2],a
1478  0390  0700     R  	mov a,_SmokeAO[2]
1478  0391  0080     E  	mov _printf_2[3],a
1478  0392  0F00     R  	mov a,low offset _LC23
1478  0393  0080     E  	mov _printf_2[0],a
1478  0394  0F00     R  	mov a,high offset _LC23
1478  0395  0080     E  	mov _printf_2[1],a
1478  0396              	fcall _printf
1479  039D              #line 1479 "e:\x-sense_svn\xp02\xp02\src\Smoke.c"
1479  039D  0700     R  	mov a,_SmokeCaliMain_2[0]
1479  039E  0080     E  	mov _printf_2[2],a
1479  039F  0700     R  	mov a,_SmokeCaliMain_2[1]
1479  03A0  0080     E  	mov _printf_2[3],a
1479  03A1  0700     R  	mov a,_SmokeCaliMain_2[2]
1479  03A2  0080     E  	mov _printf_2[4],a
1479  03A3  0700     R  	mov a,_SmokeCaliMain_2[3]
1479  03A4  0080     E  	mov _printf_2[5],a
1479  03A5  0F00     R  	mov a,low offset _LC24
1479  03A6  0080     E  	mov _printf_2[0],a
1479  03A7  0F00     R  	mov a,high offset _LC24
1479  03A8  0080     E  	mov _printf_2[1],a
1479  03A9              	fcall _printf
1480  03B0              #line 1480 "e:\x-sense_svn\xp02\xp02\src\Smoke.c"
1480  03B0  0FEC        	mov a,236
1480  03B1  0300     E  	add a,_SysAO[20]
1480  03B2  0080     E  	mov _printf_2[2],a
1480  03B3  0FFF        	mov a,255
1480  03B4  1F00     E  	clr _printf_2[3]
1480  03B5  1380     E  	adcm a,_printf_2[3]
1480  03B6  0F00     R  	mov a,low offset _LC25
1480  03B7  0080     E  	mov _printf_2[0],a
1480  03B8  0F00     R  	mov a,high offset _LC25
1480  03B9  0080     E  	mov _printf_2[1],a
1480  03BA              	fcall _printf
1482  03C1              #line 1482 "e:\x-sense_svn\xp02\xp02\src\Smoke.c"
1482  03C1  0F01        	mov a,1
1482  03C2  0080     E  	mov _CailRes_2[0],a
1482  03C3  1F00     E  	clr _CailRes_2[1]
1482  03C4  0F00        	mov a,0
1482  03C5              	fcall _CailRes
1482  03CC  2800     R  	jmp _L138
1482  03CD              _L141:
1487  03CD              #line 1487 "e:\x-sense_svn\xp02\xp02\src\Smoke.c"
1487  03CD  0F01        	mov a,1
文件：Smoke.c      编译器版本 HGASM 0202 页次64

1487  03CE  0080     E  	mov _CailStepDisplay_2[0],a
1487  03CF  1F00     E  	clr _CailStepDisplay_2[1]
1487  03D0              	fcall _CailStepDisplay
1538  03D7              #line 1538 "e:\x-sense_svn\xp02\xp02\src\Smoke.c"
1538  03D7  2800     R  	jmp _L118
1538  03D8              _L127:
1492  03D8              #line 1492 "e:\x-sense_svn\xp02\xp02\src\Smoke.c"
1492  03D8  1F00     R  	clr ___i_3293[0]
1493  03D9              #line 1493 "e:\x-sense_svn\xp02\xp02\src\Smoke.c"
1493  03D9  0700     R  	mov a,___SmokeCaliData_3296[0]
1493  03DA  0080     E  	mov rd,a
1493  03DB  0700     R  	mov a,___SmokeCaliData_3296[1]
1493  03DC  0080     E  	mov re,a
1493  03DD  0700     R  	mov a,___SmokeCaliData_3296[2]
1493  03DE  0080     E  	mov rf,a
1493  03DF  0700     R  	mov a,___SmokeCaliData_3296[3]
1493  03E0  0080     E  	mov rg,a
1493  03E1  0F04        	mov a,4
1493  03E2              _LI4:
1493  03E2  340A        	clr c
1493  03E3  1B80     E  	rrc rg
1493  03E4  1B80     E  	rrc rf
1493  03E5  1B80     E  	rrc re
1493  03E6  1B80     E  	rrc rd
1493  03E7  1785        	sdz acc
1493  03E8  2800     R  	jmp _LI4
1493  03E9  0700     E  	mov a,rd
1493  03EA  0080     R  	mov ___SmokeCaliData_3296[0],a
1493  03EB  0700     E  	mov a,re
1493  03EC  0080     R  	mov ___SmokeCaliData_3296[1],a
1493  03ED  0700     E  	mov a,rf
1493  03EE  0080     R  	mov ___SmokeCaliData_3296[2],a
1493  03EF  0700     E  	mov a,rg
1493  03F0  0080     R  	mov ___SmokeCaliData_3296[3],a
1495  03F1              #line 1495 "e:\x-sense_svn\xp02\xp02\src\Smoke.c"
1495  03F1  0FF4        	mov a,244
1495  03F2  0200     E  	sub a,rd
1495  03F3  0F01        	mov a,1
1495  03F4  1200     E  	sbc a,re
1495  03F5  0F00        	mov a,0
1495  03F6  1200     E  	sbc a,rf
1495  03F7  0F00        	mov a,0
1495  03F8  1200     E  	sbc a,rg
1495  03F9  3C0A        	sz c
1495  03FA  2800     R  	jmp _L137
1496  03FB              #line 1496 "e:\x-sense_svn\xp02\xp02\src\Smoke.c"
1496  03FB  0700     E  	mov a,_SMOKE_ALARM_LEVEL[0]
1496  03FC  0080     R  	mov _SmokeCaliMain_2[4],a
1496  03FD  0700     E  	mov a,_SMOKE_ALARM_LEVEL[1]
1496  03FE  0080     R  	mov _SmokeCaliMain_2[5],a
1496  03FF  0FD0        	mov a,208
1496  0400  0200     R  	sub a,_SmokeCaliMain_2[4]
1496  0401  0080     E  	mov ra,a
1496  0402  0F07        	mov a,7
1496  0403  1200     R  	sbc a,_SmokeCaliMain_2[5]
1496  0404  0080     E  	mov rb,a
1495  0405              #line 1495 "e:\x-sense_svn\xp02\xp02\src\Smoke.c"
1495  0405  1080     E  	sz rg
1495  0406  2800     R  	jmp _L137
1495  0407  1080     E  	sz rf
文件：Smoke.c      编译器版本 HGASM 0202 页次65

1495  0408  2800     R  	jmp _L137
1495  0409  0700     E  	mov a,rd
1495  040A  0200     E  	sub a,ra
1495  040B  0700     E  	mov a,re
1495  040C  1200     E  	sbc a,rb
1495  040D  3C0A        	sz c
1495  040E  2800     R  	jmp _L137
1496  040F              #line 1496 "e:\x-sense_svn\xp02\xp02\src\Smoke.c"
1496  040F  0F31        	mov a,49
1496  0410  0200     R  	sub a,_SmokeAO[1]
1496  0411  0F00        	mov a,0
1496  0412  1200     R  	sbc a,_SmokeAO[2]
1496  0413  380A        	snz c
1496  0414  2800     R  	jmp _L137
1498  0415              #line 1498 "e:\x-sense_svn\xp02\xp02\src\Smoke.c"
1498  0415  0F0B        	mov a,11
1498  0416  0300     R  	add a,_SmokeAO[3]
1498  0417  0080     E  	mov rb,a
1498  0418  0FFE        	mov a,254
1498  0419  1300     R  	adc a,_SmokeAO[4]
1498  041A  0080     E  	mov rc,a
1498  041B  0FDA        	mov a,218
1498  041C  0200     E  	sub a,rb
1498  041D  0F05        	mov a,5
1498  041E  1200     E  	sbc a,rc
1498  041F  380A        	snz c
1498  0420  2800     R  	jmp _L137
1501  0421              #line 1501 "e:\x-sense_svn\xp02\xp02\src\Smoke.c"
1501  0421  0F03        	mov a,3
1501  0422  0080     R  	mov _SmokeAO[0],a
1502  0423              #line 1502 "e:\x-sense_svn\xp02\xp02\src\Smoke.c"
1502  0423  0700     E  	mov a,rd
1502  0424  0300     R  	add a,_SmokeCaliMain_2[4]
1502  0425  0080     R  	mov _SmokeAO[8],a
1502  0426  0700     E  	mov a,re
1502  0427  1300     R  	adc a,_SmokeCaliMain_2[5]
1502  0428  0080     R  	mov _SmokeAO[9],a
1503  0429              #line 1503 "e:\x-sense_svn\xp02\xp02\src\Smoke.c"
1503  0429  0700     E  	mov a,_SysAO[20]
1503  042A  0080     R  	mov _SmokeAO[12],a
1504  042B              #line 1504 "e:\x-sense_svn\xp02\xp02\src\Smoke.c"
1504  042B  0F5A        	mov a,90
1504  042C  0080     R  	mov _SmokeAO[15],a
1505  042D              #line 1505 "e:\x-sense_svn\xp02\xp02\src\Smoke.c"
1505  042D  1F00     E  	clr _SysAO[9]
1505  042E  1F00     E  	clr _SysAO[10]
1506  042F              #line 1506 "e:\x-sense_svn\xp02\xp02\src\Smoke.c"
1506  042F  0726        	mov a,[38]
1506  0430  0080     R  	mov _SmokeAO[16],a
1507  0431              #line 1507 "e:\x-sense_svn\xp02\xp02\src\Smoke.c"
1507  0431  0728        	mov a,[40]
1507  0432  0080     R  	mov _SmokeAO[17],a
1509  0433              #line 1509 "e:\x-sense_svn\xp02\xp02\src\Smoke.c"
1509  0433  0700     E  	mov a,re
1509  0434  0080     E  	mov _E2promWrite_2[0],a
1509  0435  0F05        	mov a,5
1509  0436              	fcall _E2promWrite
1510  043D              #line 1510 "e:\x-sense_svn\xp02\xp02\src\Smoke.c"
1510  043D  0700     R  	mov a,___SmokeCaliData_3296[0]
1510  043E  0080     E  	mov _E2promWrite_2[0],a
文件：Smoke.c      编译器版本 HGASM 0202 页次66

1510  043F  0F06        	mov a,6
1510  0440              	fcall _E2promWrite
1511  0447              #line 1511 "e:\x-sense_svn\xp02\xp02\src\Smoke.c"
1511  0447  0700     E  	mov a,_SysAO[20]
1511  0448  0080     E  	mov _E2promWrite_2[0],a
1511  0449  0F07        	mov a,7
1511  044A              	fcall _E2promWrite
1512  0451              #line 1512 "e:\x-sense_svn\xp02\xp02\src\Smoke.c"
1512  0451  0F5A        	mov a,90
1512  0452  0080     E  	mov _E2promWrite_2[0],a
1512  0453  0F0A        	mov a,10
1512  0454              	fcall _E2promWrite
1514  045B              #line 1514 "e:\x-sense_svn\xp02\xp02\src\Smoke.c"
1514  045B  0700     E  	mov a,_SysAO[10]
1514  045C  0080     E  	mov _E2promWrite_2[0],a
1514  045D  0F00        	mov a,0
1514  045E              	fcall _E2promWrite
1515  0465              #line 1515 "e:\x-sense_svn\xp02\xp02\src\Smoke.c"
1515  0465  0700     E  	mov a,_SysAO[9]
1515  0466  0080     E  	mov _E2promWrite_2[0],a
1515  0467  0F01        	mov a,1
1515  0468              	fcall _E2promWrite
1517  046F              #line 1517 "e:\x-sense_svn\xp02\xp02\src\Smoke.c"
1517  046F  0700     R  	mov a,_SmokeAO[16]
1517  0470  0080     E  	mov _E2promWrite_2[0],a
1517  0471  0F08        	mov a,8
1517  0472              	fcall _E2promWrite
1518  0479              #line 1518 "e:\x-sense_svn\xp02\xp02\src\Smoke.c"
1518  0479  0700     R  	mov a,_SmokeAO[17]
1518  047A  0080     E  	mov _E2promWrite_2[0],a
1518  047B  0F09        	mov a,9
1518  047C              	fcall _E2promWrite
1519  0483              #line 1519 "e:\x-sense_svn\xp02\xp02\src\Smoke.c"
1519  0483  0700     R  	mov a,_SmokeAO[18]
1519  0484  0080     E  	mov _E2promWrite_2[0],a
1519  0485  0F0B        	mov a,11
1519  0486              	fcall _E2promWrite
1521  048D              #line 1521 "e:\x-sense_svn\xp02\xp02\src\Smoke.c"
1521  048D  0F01        	mov a,1
1521  048E  0080     R  	mov _SmokeCaliMain_2[0],a
1521  048F  2800     R  	jmp _L133
1521  0490              _L137:
1525  0490              #line 1525 "e:\x-sense_svn\xp02\xp02\src\Smoke.c"
1525  0490  1F00     R  	clr _SmokeCaliMain_2[0]
1525  0491              _L133:
1531  0491              #line 1531 "e:\x-sense_svn\xp02\xp02\src\Smoke.c"
1531  0491  0700     R  	mov a,_SmokeAO[3]
1531  0492  0080     E  	mov _printf_2[4],a
1531  0493  0700     R  	mov a,_SmokeAO[4]
1531  0494  0080     E  	mov _printf_2[5],a
1531  0495  0700     R  	mov a,_SmokeAO[1]
1531  0496  0080     E  	mov _printf_2[2],a
1531  0497  0700     R  	mov a,_SmokeAO[2]
1531  0498  0080     E  	mov _printf_2[3],a
1531  0499  0F00     R  	mov a,low offset _LC26
1531  049A  0080     E  	mov _printf_2[0],a
1531  049B  0F00     R  	mov a,high offset _LC26
1531  049C  0080     E  	mov _printf_2[1],a
1531  049D              	fcall _printf
1532  04A4              #line 1532 "e:\x-sense_svn\xp02\xp02\src\Smoke.c"
文件：Smoke.c      编译器版本 HGASM 0202 页次67

1532  04A4  0700     R  	mov a,___SmokeCaliData_3296[0]
1532  04A5  0080     E  	mov _printf_2[2],a
1532  04A6  0700     R  	mov a,___SmokeCaliData_3296[1]
1532  04A7  0080     E  	mov _printf_2[3],a
1532  04A8  0700     R  	mov a,___SmokeCaliData_3296[2]
1532  04A9  0080     E  	mov _printf_2[4],a
1532  04AA  0700     R  	mov a,___SmokeCaliData_3296[3]
1532  04AB  0080     E  	mov _printf_2[5],a
1532  04AC  0F00     R  	mov a,low offset _LC27
1532  04AD  0080     E  	mov _printf_2[0],a
1532  04AE  0F00     R  	mov a,high offset _LC27
1532  04AF  0080     E  	mov _printf_2[1],a
1532  04B0              	fcall _printf
1533  04B7              #line 1533 "e:\x-sense_svn\xp02\xp02\src\Smoke.c"
1533  04B7  0FEC        	mov a,236
1533  04B8  0300     E  	add a,_SysAO[20]
1533  04B9  0080     E  	mov _printf_2[2],a
1533  04BA  0FFF        	mov a,255
1533  04BB  1F00     E  	clr _printf_2[3]
1533  04BC  1380     E  	adcm a,_printf_2[3]
1533  04BD  0F00     R  	mov a,low offset _LC25
1533  04BE  0080     E  	mov _printf_2[0],a
1533  04BF  0F00     R  	mov a,high offset _LC25
1533  04C0  0080     E  	mov _printf_2[1],a
1533  04C1              	fcall _printf
1535  04C8              #line 1535 "e:\x-sense_svn\xp02\xp02\src\Smoke.c"
1535  04C8  0F01        	mov a,1
1535  04C9  0080     E  	mov _CailRes_2[0],a
1535  04CA  1F00     E  	clr _CailRes_2[1]
1535  04CB  0700     R  	mov a,_SmokeCaliMain_2[0]
1535  04CC              	fcall _CailRes
1535  04D3  2800     R  	jmp _L133
1535  04D4              _L118:
1535  04D4  0003        	ret
1535  04D5              _SmokeCaliMain endp
1535  04D5              #line 1535 "e:\x-sense_svn\xp02\xp02\src\Smoke.c"
1535  04D5              #pragma debug scope 1 1
1535  009B              @crom	.section 'crom'
1535  009B              _LC28:
1535  009B              	db 0ah,053h,06dh,06fh,06bh,065h,053h,065h,06eh,073h
1535  00A0              	db 06fh,072h,074h,069h,076h,065h,03ah,025h,064h,0ah
1535  00A5              	db 00h
1535  00A6              @crom	.section 'crom'
1535  00A6              _LC29:
1535  00A6              	db 044h,03ah,025h,064h,0ah,00h
1535  00A9              @crom	.section 'crom'
1535  00A9              _LC30:
1535  00A9              	db 04ch,03ah,025h,064h,0ah,00h
1535  00AC              public _SmokeTestMain
1535  00AC              #pragma debug scope 22 1
1553  00AC              #line 1553 "e:\x-sense_svn\xp02\xp02\src\Smoke.c"
1553  0000              _SmokeTestMain .section 'code'
1553  0000              _SmokeTestMain proc
1558  0000              #line 1558 "e:\x-sense_svn\xp02\xp02\src\Smoke.c"
1558  0000  0700     E  	mov a,_SysAO[4]
1558  0001  0C01        	xor a,1
1558  0002  0500     E  	or a,_SysAO[5]
1558  0003  3D0A        	sz z
1558  0004  2800     R  	jmp _L145
1558  0005              #line 1558 "e:\x-sense_svn\xp02\xp02\src\Smoke.c"
文件：Smoke.c      编译器版本 HGASM 0202 页次68

1558  0005  0700     E  	mov a,_SysAO[4]
1558  0006  0C06        	xor a,6
1558  0007  0500     E  	or a,_SysAO[5]
1558  0008  3D0A        	sz z
1558  0009  2800     R  	jmp _L146
1558  000A  0700     E  	mov a,_SysAO[4]
1558  000B  0C07        	xor a,7
1558  000C  0500     E  	or a,_SysAO[5]
1558  000D  3D0A        	sz z
1558  000E  2800     R  	jmp _L147
1558  000F  0700     E  	mov a,_SysAO[4]
1558  0010  0C11        	xor a,17
1558  0011  0500     E  	or a,_SysAO[5]
1558  0012  3D0A        	sz z
1558  0013  2800     R  	jmp _L148
1558  0014  0700     E  	mov a,_SysAO[4]
1558  0015  0C12        	xor a,18
1558  0016  0500     E  	or a,_SysAO[5]
1558  0017  3D0A        	sz z
1558  0018  2800     R  	jmp _L149
1558  0019  0700     E  	mov a,_SysAO[4]
1558  001A  0C13        	xor a,19
1558  001B  0500     E  	or a,_SysAO[5]
1558  001C  3D0A        	sz z
1558  001D  2800     R  	jmp _L150
1558  001E  0700     E  	mov a,_SysAO[4]
1558  001F  0C15        	xor a,21
1558  0020  0500     E  	or a,_SysAO[5]
1558  0021  3D0A        	sz z
1558  0022  2800     R  	jmp _L151
1558  0023  0700     E  	mov a,_SysAO[4]
1558  0024  0C16        	xor a,22
1558  0025  0500     E  	or a,_SysAO[5]
1558  0026  3D0A        	sz z
1558  0027  2800     R  	jmp _L152
1558  0028  0700     E  	mov a,_SysAO[4]
1558  0029  0C1C        	xor a,28
1558  002A  0500     E  	or a,_SysAO[5]
1558  002B  390A        	snz z
1558  002C  2800     R  	jmp _L143
1595  002D              #line 1595 "e:\x-sense_svn\xp02\xp02\src\Smoke.c"
1595  002D  0F05        	mov a,5
1595  002E  0080     E  	mov _SysAO[0],a
1595  002F  1F00     E  	clr _SysAO[1]
1596  0030              #line 1596 "e:\x-sense_svn\xp02\xp02\src\Smoke.c"
1596  0030  2800     R  	jmp _L143
1596  0031              _L145:
1564  0031              #line 1564 "e:\x-sense_svn\xp02\xp02\src\Smoke.c"
1564  0031  1F00     R  	clr ___TimeoutCnt_3310[0]
1565  0032              #line 1565 "e:\x-sense_svn\xp02\xp02\src\Smoke.c"
1565  0032  1F00     R  	clr ___IntervalTimeoutCnt_3311[0]
1566  0033              #line 1566 "e:\x-sense_svn\xp02\xp02\src\Smoke.c"
1566  0033              	fcall _SmokeSensorCheck
1566  003A  0700     E  	mov a,ra
1566  003B  0080     R  	mov ___ErrFlag_3309[0],a
1566  003C  0700     E  	mov a,rb
1566  003D  0080     R  	mov ___ErrFlag_3309[1],a
1568  003E              #line 1568 "e:\x-sense_svn\xp02\xp02\src\Smoke.c"
1568  003E  0700     R  	mov a,_SmokeAO[8]
1568  003F  0080     E  	mov _printf_2[2],a
文件：Smoke.c      编译器版本 HGASM 0202 页次69

1568  0040  0700     R  	mov a,_SmokeAO[9]
1568  0041  0080     E  	mov _printf_2[3],a
1568  0042  0F00     R  	mov a,low offset _LC28
1568  0043  0080     E  	mov _printf_2[0],a
1568  0044  0F00     R  	mov a,high offset _LC28
1568  0045  0080     E  	mov _printf_2[1],a
1568  0046              	fcall _printf
1569  004D              #line 1569 "e:\x-sense_svn\xp02\xp02\src\Smoke.c"
1569  004D  0700     R  	mov a,_SmokeAO[1]
1569  004E  0080     E  	mov _printf_2[2],a
1569  004F  0700     R  	mov a,_SmokeAO[2]
1569  0050  0080     E  	mov _printf_2[3],a
1569  0051  0F00     R  	mov a,low offset _LC29
1569  0052  0080     E  	mov _printf_2[0],a
1569  0053  0F00     R  	mov a,high offset _LC29
1569  0054  0080     E  	mov _printf_2[1],a
1569  0055              	fcall _printf
1570  005C              #line 1570 "e:\x-sense_svn\xp02\xp02\src\Smoke.c"
1570  005C  0700     R  	mov a,_SmokeAO[3]
1570  005D  0080     E  	mov _printf_2[2],a
1570  005E  0700     R  	mov a,_SmokeAO[4]
1570  005F  0080     E  	mov _printf_2[3],a
1570  0060  0F00     R  	mov a,low offset _LC30
1570  0061  0080     E  	mov _printf_2[0],a
1570  0062  0F00     R  	mov a,high offset _LC30
1570  0063  0080     E  	mov _printf_2[1],a
1570  0064              	fcall _printf
1573  006B              #line 1573 "e:\x-sense_svn\xp02\xp02\src\Smoke.c"
1573  006B  0F1F        	mov a,31
1573  006C  0080     E  	mov _SpeakerSendCmd_2[0],a
1573  006D  1F00     E  	clr _SpeakerSendCmd_2[1]
1573  006E  1F00     E  	clr _SpeakerSendCmd_2[2]
1573  006F  1F00     E  	clr _SpeakerSendCmd_2[3]
1573  0070              	fcall _SpeakerSendCmd
1575  0077              #line 1575 "e:\x-sense_svn\xp02\xp02\src\Smoke.c"
1575  0077  0F01        	mov a,1
1575  0078  0080     E  	mov _TmrInsertTimer_2[4],a
1575  0079  1F00     E  	clr _TmrInsertTimer_2[5]
1575  007A  2800     R  	jmp _L157
1575  007B              _L149:
1579  007B              #line 1579 "e:\x-sense_svn\xp02\xp02\src\Smoke.c"
1579  007B  0F05        	mov a,5
1579  007C  0080     E  	mov _TmrDeleteTimer_2[0],a
1579  007D  1F00     E  	clr _TmrDeleteTimer_2[1]
1579  007E              	fcall _TmrDeleteTimer
1582  0085              #line 1582 "e:\x-sense_svn\xp02\xp02\src\Smoke.c"
1582  0085  0F20        	mov a,32
1582  0086  0080     E  	mov _SpeakerSendCmd_2[0],a
1582  0087  1F00     E  	clr _SpeakerSendCmd_2[1]
1582  0088  1F00     E  	clr _SpeakerSendCmd_2[2]
1582  0089  1F00     E  	clr _SpeakerSendCmd_2[3]
1582  008A              	fcall _SpeakerSendCmd
1584  0091              #line 1584 "e:\x-sense_svn\xp02\xp02\src\Smoke.c"
1584  0091  0700     R  	mov a,___ErrFlag_3309[0]
1584  0092  0C01        	xor a,1
1584  0093  0500     R  	or a,___ErrFlag_3309[1]
1584  0094  390A        	snz z
1584  0095  2800     R  	jmp _L154
1586  0096              #line 1586 "e:\x-sense_svn\xp02\xp02\src\Smoke.c"
1586  0096  0F1C        	mov a,28
文件：Smoke.c      编译器版本 HGASM 0202 页次70

1586  0097  0080     E  	mov _SysteSetSig_2[0],a
1586  0098  1F00     E  	clr _SysteSetSig_2[1]
1586  0099  2800     R  	jmp _L158
1586  009A              _L152:
1627  009A              #line 1627 "e:\x-sense_svn\xp02\xp02\src\Smoke.c"
1627  009A  0F05        	mov a,5
1627  009B  0080     E  	mov _TmrDeleteTimer_2[0],a
1627  009C  1F00     E  	clr _TmrDeleteTimer_2[1]
1627  009D              	fcall _TmrDeleteTimer
1627  00A4              _L154:
1590  00A4              #line 1590 "e:\x-sense_svn\xp02\xp02\src\Smoke.c"
1590  00A4  0F02        	mov a,2
1590  00A5  0080     E  	mov _TmrInsertTimer_2[4],a
1590  00A6  1F00     E  	clr _TmrInsertTimer_2[5]
1590  00A7              _L157:
1590  00A7  0F32        	mov a,50
1590  00A8  0080     E  	mov _TmrInsertTimer_2[2],a
1590  00A9  1F00     E  	clr _TmrInsertTimer_2[3]
1590  00AA              _L159:
1590  00AA  0F05        	mov a,5
1590  00AB  0080     E  	mov _TmrInsertTimer_2[0],a
1590  00AC  1F00     E  	clr _TmrInsertTimer_2[1]
1590  00AD              	fcall _TmrInsertTimer
1590  00B4  2800     R  	jmp _L143
1590  00B5              _L151:
1599  00B5              #line 1599 "e:\x-sense_svn\xp02\xp02\src\Smoke.c"
1599  00B5  1400     R  	inca ___TimeoutCnt_3310[0]
1599  00B6  0080     E  	mov ra,a
1599  00B7  0700     E  	mov a,ra
1599  00B8  0080     R  	mov ___TimeoutCnt_3310[0],a
1599  00B9  0F05        	mov a,5
1599  00BA  0200     E  	sub a,ra
1599  00BB  3C0A        	sz c
1599  00BC  2800     R  	jmp _L155
1601  00BD              #line 1601 "e:\x-sense_svn\xp02\xp02\src\Smoke.c"
1601  00BD  1F00     R  	clr ___TimeoutCnt_3310[0]
1602  00BE              #line 1602 "e:\x-sense_svn\xp02\xp02\src\Smoke.c"
1602  00BE  3514        	clr [20].2
1603  00BF              #line 1603 "e:\x-sense_svn\xp02\xp02\src\Smoke.c"
1603  00BF  3294        	set [20].5
1603  00C0  361B        	clr [27].4
1604  00C1              #line 1604 "e:\x-sense_svn\xp02\xp02\src\Smoke.c"
1604  00C1  0F05        	mov a,5
1604  00C2  0080     E  	mov _TmrDeleteTimer_2[0],a
1604  00C3  1F00     E  	clr _TmrDeleteTimer_2[1]
1604  00C4              	fcall _TmrDeleteTimer
1605  00CB              #line 1605 "e:\x-sense_svn\xp02\xp02\src\Smoke.c"
1605  00CB  1400     R  	inca ___IntervalTimeoutCnt_3311[0]
1605  00CC  0080     E  	mov ra,a
1605  00CD  0700     E  	mov a,ra
1605  00CE  0080     R  	mov ___IntervalTimeoutCnt_3311[0],a
1605  00CF  0F01        	mov a,1
1605  00D0  0200     E  	sub a,ra
1605  00D1  3C0A        	sz c
1605  00D2  2800     R  	jmp _L156
1605  00D3              _L160:
1607  00D3              #line 1607 "e:\x-sense_svn\xp02\xp02\src\Smoke.c"
1607  00D3  1F00     R  	clr ___IntervalTimeoutCnt_3311[0]
1608  00D4              #line 1608 "e:\x-sense_svn\xp02\xp02\src\Smoke.c"
1608  00D4  0F13        	mov a,19
文件：Smoke.c      编译器版本 HGASM 0202 页次71

1608  00D5  0080     E  	mov _SysteSetSig_2[0],a
1608  00D6  1F00     E  	clr _SysteSetSig_2[1]
1608  00D7              _L158:
1608  00D7              	fcall _SysteSetSig
1608  00DE  2800     R  	jmp _L143
1608  00DF              _L156:
1612  00DF              #line 1612 "e:\x-sense_svn\xp02\xp02\src\Smoke.c"
1612  00DF  0F03        	mov a,3
1612  00E0  0080     E  	mov _TmrInsertTimer_2[4],a
1612  00E1  1F00     E  	clr _TmrInsertTimer_2[5]
1612  00E2  0F64        	mov a,100
1612  00E3  0080     E  	mov _TmrInsertTimer_2[2],a
1612  00E4  1F00     E  	clr _TmrInsertTimer_2[3]
1612  00E5  0F05        	mov a,5
1612  00E6  0080     E  	mov _TmrInsertTimer_2[0],a
1612  00E7  1F00     E  	clr _TmrInsertTimer_2[1]
1612  00E8              	fcall _TmrInsertTimer
1612  00EF  2800     R  	jmp _L160
1612  00F0              _L155:
1621  00F0              #line 1621 "e:\x-sense_svn\xp02\xp02\src\Smoke.c"
1621  00F0  1F00     E  	clr ra
1621  00F1  3914        	snz [20].2
1621  00F2  3000     E  	set ra.2
1621  00F3  3514        	clr [20].2
1621  00F4  0700     E  	mov a,ra
1621  00F5  0594        	orm a,[20]
1622  00F6              #line 1622 "e:\x-sense_svn\xp02\xp02\src\Smoke.c"
1622  00F6  1F00     E  	clr ra
1622  00F7  3A94        	snz [20].5
1622  00F8  3000     E  	set ra.5
1622  00F9  3694        	clr [20].5
1622  00FA  0700     E  	mov a,ra
1622  00FB  0594        	orm a,[20]
1622  00FC  1F00     E  	clr ra
1622  00FD  3A1B        	snz [27].4
1622  00FE  3000     E  	set ra.4
1622  00FF  361B        	clr [27].4
1622  0100  0700     E  	mov a,ra
1622  0101  059B        	orm a,[27]
1622  0102  2800     R  	jmp _L143
1622  0103              _L150:
1632  0103              #line 1632 "e:\x-sense_svn\xp02\xp02\src\Smoke.c"
1632  0103  0F05        	mov a,5
1632  0104  0080     E  	mov _TmrDeleteTimer_2[0],a
1632  0105  1F00     E  	clr _TmrDeleteTimer_2[1]
1632  0106              	fcall _TmrDeleteTimer
1635  010D              #line 1635 "e:\x-sense_svn\xp02\xp02\src\Smoke.c"
1635  010D  0F06        	mov a,6
1635  010E  0080     E  	mov _TmrInsertTimer_2[4],a
1635  010F  1F00     E  	clr _TmrInsertTimer_2[5]
1635  0110  0F2C        	mov a,44
1635  0111  0080     E  	mov _TmrInsertTimer_2[2],a
1635  0112  0F01        	mov a,1
1635  0113  0080     E  	mov _TmrInsertTimer_2[3],a
1635  0114  2800     R  	jmp _L159
1635  0115              _L147:
1662  0115              #line 1662 "e:\x-sense_svn\xp02\xp02\src\Smoke.c"
1662  0115  1080     R  	sz ___IntervalTimeoutCnt_3311[0]
1662  0116  2800     R  	jmp _L143
1662  0117  1080     R  	sz ___TimeoutCnt_3310[0]
文件：Smoke.c      编译器版本 HGASM 0202 页次72

1662  0118  2800     R  	jmp _L143
1667  0119              #line 1667 "e:\x-sense_svn\xp02\xp02\src\Smoke.c"
1667  0119  0F01        	mov a,1
1667  011A  0080     E  	mov _SysAO[16],a
1667  011B  1F00     E  	clr _SysAO[17]
1668  011C              #line 1668 "e:\x-sense_svn\xp02\xp02\src\Smoke.c"
1668  011C  3218        	set [24].4
1669  011D              #line 1669 "e:\x-sense_svn\xp02\xp02\src\Smoke.c"
1669  011D              ;# 1669 "e:\x-sense_svn\xp02\xp02\src\Smoke.c" 1
1669  011D              	IF 10000>263690
1669  011D              ;# 1669 "e:\x-sense_svn\xp02\xp02\src\Smoke.c" 1
1669  011D              	ERRMESSAGE 'the value 10000of the argument exceeds the maxinum 263690'
1669  011D              	ENDIF
1669  011D              ;# 1669 "e:\x-sense_svn\xp02\xp02\src\Smoke.c" 1
1669  011D              	IF 10000<0
1669  011D              ;# 1669 "e:\x-sense_svn\xp02\xp02\src\Smoke.c" 1
1669  011D              	ERRMESSAGE 'the value 10000 of the argument exceeds the mininum 0'
1669  011D              	ENDIF
1669  011D              ;# 1669 "e:\x-sense_svn\xp02\xp02\src\Smoke.c" 1
1669  011D              	IF 10000==0
1669  011D              ;# 1669 "e:\x-sense_svn\xp02\xp02\src\Smoke.c" 1
1669  011D              	JMP $
1669  011D              	ENDIF
1669  011D              ;# 1669 "e:\x-sense_svn\xp02\xp02\src\Smoke.c" 1
1669  011D              	IF (10000>=1) AND (10000<( 4 + __PBP__ * 2))
1669  011D              ;# 1669 "e:\x-sense_svn\xp02\xp02\src\Smoke.c" 1
1669  011D              	NOP
1669  011D              	ENDIF
1669  011D              ;# 1669 "e:\x-sense_svn\xp02\xp02\src\Smoke.c" 1
1669  011D              	IF (10000>=2) AND (10000<( 4 + __PBP__ * 2))
1669  011D              ;# 1669 "e:\x-sense_svn\xp02\xp02\src\Smoke.c" 1
1669  011D              	NOP
1669  011D              	ENDIF
1669  011D              ;# 1669 "e:\x-sense_svn\xp02\xp02\src\Smoke.c" 1
1669  011D              	IF (10000>=3) AND (10000<( 4 + __PBP__ * 2))
1669  011D              ;# 1669 "e:\x-sense_svn\xp02\xp02\src\Smoke.c" 1
1669  011D              	NOP
1669  011D              	ENDIF
1669  011D              ;# 1669 "e:\x-sense_svn\xp02\xp02\src\Smoke.c" 1
1669  011D              	IF (10000>=4) AND (10000<( 4 + __PBP__ * 2)) AND ( __PBP__ > 0 )
1669  011D              ;# 1669 "e:\x-sense_svn\xp02\xp02\src\Smoke.c" 1
1669  011D              	NOP
1669  011D              	ENDIF
1669  011D              ;# 1669 "e:\x-sense_svn\xp02\xp02\src\Smoke.c" 1
1669  011D              	IF (10000>=5) AND (10000<( 4 + __PBP__ * 2)) AND ( __PBP__ > 0 )
1669  011D              ;# 1669 "e:\x-sense_svn\xp02\xp02\src\Smoke.c" 1
1669  011D              	NOP
1669  011D              	ENDIF
1669  011D              ;# 1669 "e:\x-sense_svn\xp02\xp02\src\Smoke.c" 1
1669  011D              	IF (10000>=6) AND (10000<( 4 + __PBP__ * 2))  AND ( __PBP__ > 1 )
1669  011D              ;# 1669 "e:\x-sense_svn\xp02\xp02\src\Smoke.c" 1
1669  011D              	NOP
1669  011D              	ENDIF
1669  011D              ;# 1669 "e:\x-sense_svn\xp02\xp02\src\Smoke.c" 1
1669  011D              	IF (10000>=7) AND (10000<( 4 + __PBP__ * 2))  AND ( __PBP__ > 1 )
1669  011D              ;# 1669 "e:\x-sense_svn\xp02\xp02\src\Smoke.c" 1
1669  011D              	NOP
1669  011D              	ENDIF
1669  011D              ;# 1669 "e:\x-sense_svn\xp02\xp02\src\Smoke.c" 1
1669  011D              	IF (10000>=8) AND (10000<( 4 + __PBP__ * 2))  AND ( __PBP__ > 2 )
文件：Smoke.c      编译器版本 HGASM 0202 页次73

1669  011D              ;# 1669 "e:\x-sense_svn\xp02\xp02\src\Smoke.c" 1
1669  011D              	NOP
1669  011D              	ENDIF
1669  011D              ;# 1669 "e:\x-sense_svn\xp02\xp02\src\Smoke.c" 1
1669  011D              	IF (10000==9)  AND ( __PBP__ > 2 )
1669  011D              ;# 1669 "e:\x-sense_svn\xp02\xp02\src\Smoke.c" 1
1669  011D              	NOP
1669  011D              	ENDIF
1669  011D              ;# 1669 "e:\x-sense_svn\xp02\xp02\src\Smoke.c" 1
1669  011D              	IF (10000< ( 8 + __PBP__ * 2)) AND (10000>( 3 + __PBP__ * 2))
1669  011D              ;# 1669 "e:\x-sense_svn\xp02\xp02\src\Smoke.c" 1
1669  011D              	fcall __DELAY3 + ( 7 + __PBP__ * 2) -10000
1669  011D              	ENDIF
1669  011D              ;# 1669 "e:\x-sense_svn\xp02\xp02\src\Smoke.c" 1
1669  011D              	IF (10000< ( 0404h + __PBP__ * 2)) AND (10000>( 7 + __PBP__ * 2))
1669  011D              ;# 1669 "e:\x-sense_svn\xp02\xp02\src\Smoke.c" 1
1669  011D              	MOV A,(10000-( 4 + __PBP__ * 2))/4
1669  011D              ;# 1669 "e:\x-sense_svn\xp02\xp02\src\Smoke.c" 1
1669  011D              	fcall __DELAYX3 + 3 -((10000-( 4 + __PBP__ * 2)) MOD 4) 
1669  011D              	ENDIF
1669  011D              ;# 1669 "e:\x-sense_svn\xp02\xp02\src\Smoke.c" 1
1669  011D              	IF (10000< ( 040bh + __PBP__ * 2)) AND (10000> ( 0403h + __PBP__ * 2))
1669  011D              ;# 1669 "e:\x-sense_svn\xp02\xp02\src\Smoke.c" 1
1669  011D              	MOV A,0 
1669  011D              ;# 1669 "e:\x-sense_svn\xp02\xp02\src\Smoke.c" 1
1669  011D              	fcall __DELAYX6 + ( 040ah + __PBP__ * 2) -10000
1669  011D              	ENDIF
1669  011D              ;# 1669 "e:\x-sense_svn\xp02\xp02\src\Smoke.c" 1
1669  011D              	IF (10000 >= ( 040bh + __PBP__ * 2)) AND ((((10000-( 9 + __PBP__ * 2))%0402h)/4+1)>256)
1669  011D              ;# 1669 "e:\x-sense_svn\xp02\xp02\src\Smoke.c" 1
1669  011D              	MOV A,(10000-( 9 + __PBP__ * 2))/0402h
1669  011D              ;# 1669 "e:\x-sense_svn\xp02\xp02\src\Smoke.c" 1
1669  011D              	MOV _builtin_holtek_delay_2,A
1669  011D              ;# 1669 "e:\x-sense_svn\xp02\xp02\src\Smoke.c" 1
1669  011D              	MOV A,0
1669  011D              ;# 1669 "e:\x-sense_svn\xp02\xp02\src\Smoke.c" 1
1669  011D              	fcall __DELAYY5 +5- (((10000-( 9 + __PBP__ * 2))%0402h)%6) 
1669  011D              	ENDIF
1669  011D              ;# 1669 "e:\x-sense_svn\xp02\xp02\src\Smoke.c" 1
1669  011D              	IF (10000 >= ( 040bh + __PBP__ * 2)) AND ((((10000-( 9 + __PBP__ * 2))%0402h)/4+1)<=256)
1669  011D              ;# 1669 "e:\x-sense_svn\xp02\xp02\src\Smoke.c" 1
1669  011D  0F09        	MOV A,(10000-( 9 + __PBP__ * 2))/0402h
1669  011E              ;# 1669 "e:\x-sense_svn\xp02\xp02\src\Smoke.c" 1
1669  011E  0080     E  	MOV _builtin_holtek_delay_2,A
1669  011F              ;# 1669 "e:\x-sense_svn\xp02\xp02\src\Smoke.c" 1
1669  011F  0FBD        	MOV A,((10000-( 9 + __PBP__ * 2))%0402h)/4+1
1669  0120              ;# 1669 "e:\x-sense_svn\xp02\xp02\src\Smoke.c" 1
1669  0120              	fcall __DELAYY3 +3-(((10000-( 9 + __PBP__ * 2))%0402h)%4) 
1669  0127              	ENDIF
1670  0127              #line 1670 "e:\x-sense_svn\xp02\xp02\src\Smoke.c"
1670  0127  3618        	clr [24].4
1670  0128  2800     R  	jmp _L143
1670  0129              _L146:
1676  0129              #line 1676 "e:\x-sense_svn\xp02\xp02\src\Smoke.c"
1676  0129  3514        	clr [20].2
1677  012A              #line 1677 "e:\x-sense_svn\xp02\xp02\src\Smoke.c"
1677  012A  3294        	set [20].5
1677  012B  361B        	clr [27].4
1678  012C              #line 1678 "e:\x-sense_svn\xp02\xp02\src\Smoke.c"
1678  012C  0F05        	mov a,5
文件：Smoke.c      编译器版本 HGASM 0202 页次74

1678  012D  0080     E  	mov _TmrDeleteTimer_2[0],a
1678  012E  1F00     E  	clr _TmrDeleteTimer_2[1]
1678  012F              	fcall _TmrDeleteTimer
1679  0136              #line 1679 "e:\x-sense_svn\xp02\xp02\src\Smoke.c"
1679  0136  1F00     E  	clr _SysAO[0]
1679  0137  1F00     E  	clr _SysAO[1]
1680  0138              #line 1680 "e:\x-sense_svn\xp02\xp02\src\Smoke.c"
1680  0138  0F23        	mov a,35
1680  0139  0080     E  	mov _SpeakerSendCmd_2[0],a
1680  013A  1F00     E  	clr _SpeakerSendCmd_2[1]
1680  013B  1F00     E  	clr _SpeakerSendCmd_2[2]
1680  013C  1F00     E  	clr _SpeakerSendCmd_2[3]
1680  013D              	fcall _SpeakerSendCmd
1682  0144              #line 1682 "e:\x-sense_svn\xp02\xp02\src\Smoke.c"
1682  0144  2800     R  	jmp _L143
1682  0145              _L148:
1685  0145              #line 1685 "e:\x-sense_svn\xp02\xp02\src\Smoke.c"
1685  0145  3514        	clr [20].2
1686  0146              #line 1686 "e:\x-sense_svn\xp02\xp02\src\Smoke.c"
1686  0146  3294        	set [20].5
1686  0147  361B        	clr [27].4
1687  0148              #line 1687 "e:\x-sense_svn\xp02\xp02\src\Smoke.c"
1687  0148  0F05        	mov a,5
1687  0149  0080     E  	mov _TmrDeleteTimer_2[0],a
1687  014A  1F00     E  	clr _TmrDeleteTimer_2[1]
1687  014B              	fcall _TmrDeleteTimer
1688  0152              #line 1688 "e:\x-sense_svn\xp02\xp02\src\Smoke.c"
1688  0152  0F07        	mov a,7
1688  0153  0080     E  	mov _SysAO[0],a
1688  0154  1F00     E  	clr _SysAO[1]
1688  0155              _L143:
1688  0155  0003        	ret
1688  0156              _SmokeTestMain endp
1688  0156              #line 1688 "e:\x-sense_svn\xp02\xp02\src\Smoke.c"
1688  0156              #pragma debug scope 1 1
1688  00AC              @crom	.section 'crom'
1688  00AC              _LC31:
1688  00AC              	db 053h,06dh,06fh,06bh,065h,020h,041h,06ch,061h,072h
1688  00B1              	db 06dh,020h,04dh,06fh,064h,065h,0ah,00h
1688  00B5              public _SmokeAlarmMain
1688  00B5              #pragma debug scope 23 1
1705  00B5              #line 1705 "e:\x-sense_svn\xp02\xp02\src\Smoke.c"
1705  0000              _SmokeAlarmMain .section 'code'
1705  0000              _SmokeAlarmMain proc
1712  0000              #line 1712 "e:\x-sense_svn\xp02\xp02\src\Smoke.c"
1712  0000  0700     E  	mov a,_SysAO[4]
1712  0001  0C01        	xor a,1
1712  0002  0500     E  	or a,_SysAO[5]
1712  0003  3D0A        	sz z
1712  0004  2800     R  	jmp _L163
1712  0005              #line 1712 "e:\x-sense_svn\xp02\xp02\src\Smoke.c"
1712  0005  0700     E  	mov a,_SysAO[4]
1712  0006  0C06        	xor a,6
1712  0007  0500     E  	or a,_SysAO[5]
1712  0008  3D0A        	sz z
1712  0009  2800     R  	jmp _L164
1712  000A  0700     E  	mov a,_SysAO[4]
1712  000B  0C15        	xor a,21
1712  000C  0500     E  	or a,_SysAO[5]
1712  000D  3D0A        	sz z
文件：Smoke.c      编译器版本 HGASM 0202 页次75

1712  000E  2800     R  	jmp _L165
1712  000F  0700     E  	mov a,_SysAO[4]
1712  0010  0C16        	xor a,22
1712  0011  0500     E  	or a,_SysAO[5]
1712  0012  3D0A        	sz z
1712  0013  2800     R  	jmp _L166
1712  0014  0700     E  	mov a,_SysAO[4]
1712  0015  0C17        	xor a,23
1712  0016  0500     E  	or a,_SysAO[5]
1712  0017  3D0A        	sz z
1712  0018  2800     R  	jmp _L167
1712  0019  0700     E  	mov a,_SysAO[4]
1712  001A  0C18        	xor a,24
1712  001B  0500     E  	or a,_SysAO[5]
1712  001C  390A        	snz z
1712  001D  2800     R  	jmp _L161
1712  001E  2800     R  	jmp _L164
1712  001F              _L163:
1715  001F              #line 1715 "e:\x-sense_svn\xp02\xp02\src\Smoke.c"
1715  001F  0F00     R  	mov a,low offset _LC31
1715  0020  0080     E  	mov _printf_2[0],a
1715  0021  0F00     R  	mov a,high offset _LC31
1715  0022  0080     E  	mov _printf_2[1],a
1715  0023              	fcall _printf
1716  002A              #line 1716 "e:\x-sense_svn\xp02\xp02\src\Smoke.c"
1716  002A  1F00     R  	clr ___TimeoutCnt_3327[0]
1719  002B              #line 1719 "e:\x-sense_svn\xp02\xp02\src\Smoke.c"
1719  002B  1F00     R  	clr ___T3TimeCnt_3328[0]
1723  002C              #line 1723 "e:\x-sense_svn\xp02\xp02\src\Smoke.c"
1723  002C  0700     E  	mov a,_RfAO[12]
1723  002D  0080     E  	mov _UartSendMsg_2[3],a
1723  002E  0F07        	mov a,7
1723  002F  0080     E  	mov _UartSendMsg_2[2],a
1723  0030  0F03        	mov a,3
1723  0031  0080     E  	mov _UartSendMsg_2[0],a
1723  0032  1F00     E  	clr _UartSendMsg_2[1]
1723  0033              	fcall _UartSendMsg
1723  003A  2800     R  	jmp _L176
1723  003B              _L165:
1730  003B              #line 1730 "e:\x-sense_svn\xp02\xp02\src\Smoke.c"
1730  003B  1400     R  	inca ___TimeoutCnt_3327[0]
1730  003C  0080     E  	mov ra,a
1730  003D  0700     E  	mov a,ra
1730  003E  0080     R  	mov ___TimeoutCnt_3327[0],a
1730  003F  0F05        	mov a,5
1730  0040  0200     E  	sub a,ra
1730  0041  3C0A        	sz c
1730  0042  2800     R  	jmp _L168
1732  0043              #line 1732 "e:\x-sense_svn\xp02\xp02\src\Smoke.c"
1732  0043  1F00     R  	clr ___TimeoutCnt_3327[0]
1733  0044              #line 1733 "e:\x-sense_svn\xp02\xp02\src\Smoke.c"
1733  0044  3514        	clr [20].2
1734  0045              #line 1734 "e:\x-sense_svn\xp02\xp02\src\Smoke.c"
1734  0045  3294        	set [20].5
1734  0046  361B        	clr [27].4
1736  0047              #line 1736 "e:\x-sense_svn\xp02\xp02\src\Smoke.c"
1736  0047              	fcall _BatteryCheckHandle
1737  004E              #line 1737 "e:\x-sense_svn\xp02\xp02\src\Smoke.c"
1737  004E              	fcall _SmokeAlarmCheck
1739  0055              #line 1739 "e:\x-sense_svn\xp02\xp02\src\Smoke.c"
文件：Smoke.c      编译器版本 HGASM 0202 页次76

1739  0055  0F05        	mov a,5
1739  0056  0080     E  	mov _TmrDeleteTimer_2[0],a
1739  0057  1F00     E  	clr _TmrDeleteTimer_2[1]
1739  0058              	fcall _TmrDeleteTimer
1741  005F              #line 1741 "e:\x-sense_svn\xp02\xp02\src\Smoke.c"
1741  005F  1400     R  	inca ___T3TimeCnt_3328[0]
1741  0060  0080     E  	mov ra,a
1742  0061              #line 1742 "e:\x-sense_svn\xp02\xp02\src\Smoke.c"
1742  0061  0F0A        	mov a,10
1742  0062  0200     E  	sub a,ra
1742  0063  380A        	snz c
1742  0064  2800     R  	jmp _L169
1741  0065              #line 1741 "e:\x-sense_svn\xp02\xp02\src\Smoke.c"
1741  0065  0700     E  	mov a,ra
1741  0066  0080     R  	mov ___T3TimeCnt_3328[0],a
1741  0067  2800     R  	jmp _L170
1741  0068              _L169:
1744  0068              #line 1744 "e:\x-sense_svn\xp02\xp02\src\Smoke.c"
1744  0068  0F09        	mov a,9
1744  0069  0080     R  	mov ___T3TimeCnt_3328[0],a
1744  006A              _L170:
1747  006A              #line 1747 "e:\x-sense_svn\xp02\xp02\src\Smoke.c"
1747  006A  0700     R  	mov a,___T3TimeCnt_3328[0]
1747  006B  0080     E  	mov ra,a
1747  006C  0F07        	mov a,7
1747  006D  0200     E  	sub a,ra
1747  006E  380A        	snz c
1747  006F  2800     R  	jmp _L171
1749  0070              #line 1749 "e:\x-sense_svn\xp02\xp02\src\Smoke.c"
1749  0070  0F03        	mov a,3
1749  0071  0080     E  	mov _TmrInsertTimer_2[4],a
1749  0072  1F00     E  	clr _TmrInsertTimer_2[5]
1749  0073  0F64        	mov a,100
1749  0074  0080     E  	mov _TmrInsertTimer_2[2],a
1749  0075  1F00     E  	clr _TmrInsertTimer_2[3]
1749  0076  0F05        	mov a,5
1749  0077  0080     E  	mov _TmrInsertTimer_2[0],a
1749  0078  1F00     E  	clr _TmrInsertTimer_2[1]
1749  0079              	fcall _TmrInsertTimer
1750  0080              #line 1750 "e:\x-sense_svn\xp02\xp02\src\Smoke.c"
1750  0080  0700     R  	mov a,___T3TimeCnt_3328[0]
1750  0081  0080     R  	mov _SpeakSmokeAlarmVoice_2[0],a
1750  0082  0700     E  	mov a,_RfAO[12]
1750  0083              	fcall _SpeakSmokeAlarmVoice
1750  008A  2800     R  	jmp _L161
1750  008B              _L171:
1754  008B              #line 1754 "e:\x-sense_svn\xp02\xp02\src\Smoke.c"
1754  008B  0700     E  	mov a,ra
1754  008C  0080     R  	mov _SpeakSmokeAlarmVoice_2[0],a
1754  008D  0700     E  	mov a,_RfAO[12]
1754  008E              	fcall _SpeakSmokeAlarmVoice
1755  0095              #line 1755 "e:\x-sense_svn\xp02\xp02\src\Smoke.c"
1755  0095  0F03        	mov a,3
1755  0096  0080     E  	mov _TmrInsertTimer_2[4],a
1755  0097  1F00     E  	clr _TmrInsertTimer_2[5]
1755  0098  0F64        	mov a,100
1755  0099  0080     E  	mov _TmrInsertTimer_2[2],a
1755  009A  1F00     E  	clr _TmrInsertTimer_2[3]
1755  009B  2800     R  	jmp _L177
1755  009C              _L168:
文件：Smoke.c      编译器版本 HGASM 0202 页次77

1764  009C              #line 1764 "e:\x-sense_svn\xp02\xp02\src\Smoke.c"
1764  009C  1F00     E  	clr ra
1764  009D  3914        	snz [20].2
1764  009E  3000     E  	set ra.2
1764  009F  3514        	clr [20].2
1764  00A0  0700     E  	mov a,ra
1764  00A1  0594        	orm a,[20]
1765  00A2              #line 1765 "e:\x-sense_svn\xp02\xp02\src\Smoke.c"
1765  00A2  1F00     E  	clr ra
1765  00A3  3A94        	snz [20].5
1765  00A4  3000     E  	set ra.5
1765  00A5  3694        	clr [20].5
1765  00A6  0700     E  	mov a,ra
1765  00A7  0594        	orm a,[20]
1765  00A8  1F00     E  	clr ra
1765  00A9  3A1B        	snz [27].4
1765  00AA  3000     E  	set ra.4
1765  00AB  361B        	clr [27].4
1765  00AC  0700     E  	mov a,ra
1765  00AD  059B        	orm a,[27]
1765  00AE  2800     R  	jmp _L161
1765  00AF              _L166:
1770  00AF              #line 1770 "e:\x-sense_svn\xp02\xp02\src\Smoke.c"
1770  00AF  0F05        	mov a,5
1770  00B0  0080     E  	mov _TmrDeleteTimer_2[0],a
1770  00B1  1F00     E  	clr _TmrDeleteTimer_2[1]
1770  00B2              	fcall _TmrDeleteTimer
1770  00B9              _L176:
1771  00B9              #line 1771 "e:\x-sense_svn\xp02\xp02\src\Smoke.c"
1771  00B9  0F02        	mov a,2
1771  00BA  0080     E  	mov _TmrInsertTimer_2[4],a
1771  00BB  1F00     E  	clr _TmrInsertTimer_2[5]
1771  00BC  0F32        	mov a,50
1771  00BD  0080     E  	mov _TmrInsertTimer_2[2],a
1771  00BE  1F00     E  	clr _TmrInsertTimer_2[3]
1771  00BF              _L177:
1771  00BF  0F05        	mov a,5
1771  00C0  0080     E  	mov _TmrInsertTimer_2[0],a
1771  00C1  1F00     E  	clr _TmrInsertTimer_2[1]
1771  00C2              	fcall _TmrInsertTimer
1772  00C9              #line 1772 "e:\x-sense_svn\xp02\xp02\src\Smoke.c"
1772  00C9  2800     R  	jmp _L161
1772  00CA              _L164:
1776  00CA              #line 1776 "e:\x-sense_svn\xp02\xp02\src\Smoke.c"
1776  00CA  3514        	clr [20].2
1777  00CB              #line 1777 "e:\x-sense_svn\xp02\xp02\src\Smoke.c"
1777  00CB  3294        	set [20].5
1777  00CC  361B        	clr [27].4
1778  00CD              #line 1778 "e:\x-sense_svn\xp02\xp02\src\Smoke.c"
1778  00CD  0F05        	mov a,5
1778  00CE  0080     E  	mov _TmrDeleteTimer_2[0],a
1778  00CF  1F00     E  	clr _TmrDeleteTimer_2[1]
1778  00D0              	fcall _TmrDeleteTimer
1779  00D7              #line 1779 "e:\x-sense_svn\xp02\xp02\src\Smoke.c"
1779  00D7  0F04        	mov a,4
1779  00D8  0080     E  	mov _SysAO[0],a
1779  00D9  1F00     E  	clr _SysAO[1]
1780  00DA              #line 1780 "e:\x-sense_svn\xp02\xp02\src\Smoke.c"
1780  00DA  2800     R  	jmp _L161
1780  00DB              _L167:
文件：Smoke.c      编译器版本 HGASM 0202 页次78

1783  00DB              #line 1783 "e:\x-sense_svn\xp02\xp02\src\Smoke.c"
1783  00DB  3514        	clr [20].2
1784  00DC              #line 1784 "e:\x-sense_svn\xp02\xp02\src\Smoke.c"
1784  00DC  3294        	set [20].5
1784  00DD  361B        	clr [27].4
1785  00DE              #line 1785 "e:\x-sense_svn\xp02\xp02\src\Smoke.c"
1785  00DE  0F05        	mov a,5
1785  00DF  0080     E  	mov _TmrDeleteTimer_2[0],a
1785  00E0  1F00     E  	clr _TmrDeleteTimer_2[1]
1785  00E1              	fcall _TmrDeleteTimer
1786  00E8              #line 1786 "e:\x-sense_svn\xp02\xp02\src\Smoke.c"
1786  00E8  1F00     E  	clr _SysAO[0]
1786  00E9  1F00     E  	clr _SysAO[1]
1788  00EA              #line 1788 "e:\x-sense_svn\xp02\xp02\src\Smoke.c"
1788  00EA  1F00     E  	clr _UartSendMsg_2[3]
1788  00EB  0F0B        	mov a,11
1788  00EC  0080     E  	mov _UartSendMsg_2[2],a
1788  00ED  0F03        	mov a,3
1788  00EE  0080     E  	mov _UartSendMsg_2[0],a
1788  00EF  1F00     E  	clr _UartSendMsg_2[1]
1788  00F0              	fcall _UartSendMsg
1792  00F7              #line 1792 "e:\x-sense_svn\xp02\xp02\src\Smoke.c"
1792  00F7  0F34        	mov a,52
1792  00F8  0080     E  	mov _SpeakerSendCmd_2[0],a
1792  00F9  1F00     E  	clr _SpeakerSendCmd_2[1]
1792  00FA  1F00     E  	clr _SpeakerSendCmd_2[2]
1792  00FB  1F00     E  	clr _SpeakerSendCmd_2[3]
1792  00FC              	fcall _SpeakerSendCmd
1792  0103  0F05        	mov a,5
1792  0104  0080     E  	mov ra,a
1792  0105              _L172:
1797  0105              #line 1797 "e:\x-sense_svn\xp02\xp02\src\Smoke.c"
1797  0105  3218        	set [24].4
1798  0106              #line 1798 "e:\x-sense_svn\xp02\xp02\src\Smoke.c"
1798  0106              ;# 1798 "e:\x-sense_svn\xp02\xp02\src\Smoke.c" 1
1798  0106              	IF 250000>263690
1798  0106              ;# 1798 "e:\x-sense_svn\xp02\xp02\src\Smoke.c" 1
1798  0106              	ERRMESSAGE 'the value 250000of the argument exceeds the maxinum 263690'
1798  0106              	ENDIF
1798  0106              ;# 1798 "e:\x-sense_svn\xp02\xp02\src\Smoke.c" 1
1798  0106              	IF 250000<0
1798  0106              ;# 1798 "e:\x-sense_svn\xp02\xp02\src\Smoke.c" 1
1798  0106              	ERRMESSAGE 'the value 250000 of the argument exceeds the mininum 0'
1798  0106              	ENDIF
1798  0106              ;# 1798 "e:\x-sense_svn\xp02\xp02\src\Smoke.c" 1
1798  0106              	IF 250000==0
1798  0106              ;# 1798 "e:\x-sense_svn\xp02\xp02\src\Smoke.c" 1
1798  0106              	JMP $
1798  0106              	ENDIF
1798  0106              ;# 1798 "e:\x-sense_svn\xp02\xp02\src\Smoke.c" 1
1798  0106              	IF (250000>=1) AND (250000<( 4 + __PBP__ * 2))
1798  0106              ;# 1798 "e:\x-sense_svn\xp02\xp02\src\Smoke.c" 1
1798  0106              	NOP
1798  0106              	ENDIF
1798  0106              ;# 1798 "e:\x-sense_svn\xp02\xp02\src\Smoke.c" 1
1798  0106              	IF (250000>=2) AND (250000<( 4 + __PBP__ * 2))
1798  0106              ;# 1798 "e:\x-sense_svn\xp02\xp02\src\Smoke.c" 1
1798  0106              	NOP
1798  0106              	ENDIF
1798  0106              ;# 1798 "e:\x-sense_svn\xp02\xp02\src\Smoke.c" 1
文件：Smoke.c      编译器版本 HGASM 0202 页次79

1798  0106              	IF (250000>=3) AND (250000<( 4 + __PBP__ * 2))
1798  0106              ;# 1798 "e:\x-sense_svn\xp02\xp02\src\Smoke.c" 1
1798  0106              	NOP
1798  0106              	ENDIF
1798  0106              ;# 1798 "e:\x-sense_svn\xp02\xp02\src\Smoke.c" 1
1798  0106              	IF (250000>=4) AND (250000<( 4 + __PBP__ * 2)) AND ( __PBP__ > 0 )
1798  0106              ;# 1798 "e:\x-sense_svn\xp02\xp02\src\Smoke.c" 1
1798  0106              	NOP
1798  0106              	ENDIF
1798  0106              ;# 1798 "e:\x-sense_svn\xp02\xp02\src\Smoke.c" 1
1798  0106              	IF (250000>=5) AND (250000<( 4 + __PBP__ * 2)) AND ( __PBP__ > 0 )
1798  0106              ;# 1798 "e:\x-sense_svn\xp02\xp02\src\Smoke.c" 1
1798  0106              	NOP
1798  0106              	ENDIF
1798  0106              ;# 1798 "e:\x-sense_svn\xp02\xp02\src\Smoke.c" 1
1798  0106              	IF (250000>=6) AND (250000<( 4 + __PBP__ * 2))  AND ( __PBP__ > 1 )
1798  0106              ;# 1798 "e:\x-sense_svn\xp02\xp02\src\Smoke.c" 1
1798  0106              	NOP
1798  0106              	ENDIF
1798  0106              ;# 1798 "e:\x-sense_svn\xp02\xp02\src\Smoke.c" 1
1798  0106              	IF (250000>=7) AND (250000<( 4 + __PBP__ * 2))  AND ( __PBP__ > 1 )
1798  0106              ;# 1798 "e:\x-sense_svn\xp02\xp02\src\Smoke.c" 1
1798  0106              	NOP
1798  0106              	ENDIF
1798  0106              ;# 1798 "e:\x-sense_svn\xp02\xp02\src\Smoke.c" 1
1798  0106              	IF (250000>=8) AND (250000<( 4 + __PBP__ * 2))  AND ( __PBP__ > 2 )
1798  0106              ;# 1798 "e:\x-sense_svn\xp02\xp02\src\Smoke.c" 1
1798  0106              	NOP
1798  0106              	ENDIF
1798  0106              ;# 1798 "e:\x-sense_svn\xp02\xp02\src\Smoke.c" 1
1798  0106              	IF (250000==9)  AND ( __PBP__ > 2 )
1798  0106              ;# 1798 "e:\x-sense_svn\xp02\xp02\src\Smoke.c" 1
1798  0106              	NOP
1798  0106              	ENDIF
1798  0106              ;# 1798 "e:\x-sense_svn\xp02\xp02\src\Smoke.c" 1
1798  0106              	IF (250000< ( 8 + __PBP__ * 2)) AND (250000>( 3 + __PBP__ * 2))
1798  0106              ;# 1798 "e:\x-sense_svn\xp02\xp02\src\Smoke.c" 1
1798  0106              	fcall __DELAY3 + ( 7 + __PBP__ * 2) -250000
1798  0106              	ENDIF
1798  0106              ;# 1798 "e:\x-sense_svn\xp02\xp02\src\Smoke.c" 1
1798  0106              	IF (250000< ( 0404h + __PBP__ * 2)) AND (250000>( 7 + __PBP__ * 2))
1798  0106              ;# 1798 "e:\x-sense_svn\xp02\xp02\src\Smoke.c" 1
1798  0106              	MOV A,(250000-( 4 + __PBP__ * 2))/4
1798  0106              ;# 1798 "e:\x-sense_svn\xp02\xp02\src\Smoke.c" 1
1798  0106              	fcall __DELAYX3 + 3 -((250000-( 4 + __PBP__ * 2)) MOD 4) 
1798  0106              	ENDIF
1798  0106              ;# 1798 "e:\x-sense_svn\xp02\xp02\src\Smoke.c" 1
1798  0106              	IF (250000< ( 040bh + __PBP__ * 2)) AND (250000> ( 0403h + __PBP__ * 2))
1798  0106              ;# 1798 "e:\x-sense_svn\xp02\xp02\src\Smoke.c" 1
1798  0106              	MOV A,0 
1798  0106              ;# 1798 "e:\x-sense_svn\xp02\xp02\src\Smoke.c" 1
1798  0106              	fcall __DELAYX6 + ( 040ah + __PBP__ * 2) -250000
1798  0106              	ENDIF
1798  0106              ;# 1798 "e:\x-sense_svn\xp02\xp02\src\Smoke.c" 1
1798  0106              	IF (250000 >= ( 040bh + __PBP__ * 2)) AND ((((250000-( 9 + __PBP__ * 2))%0402h)/4+1)>256)
1798  0106              ;# 1798 "e:\x-sense_svn\xp02\xp02\src\Smoke.c" 1
1798  0106              	MOV A,(250000-( 9 + __PBP__ * 2))/0402h
1798  0106              ;# 1798 "e:\x-sense_svn\xp02\xp02\src\Smoke.c" 1
1798  0106              	MOV _builtin_holtek_delay_2,A
1798  0106              ;# 1798 "e:\x-sense_svn\xp02\xp02\src\Smoke.c" 1
文件：Smoke.c      编译器版本 HGASM 0202 页次80

1798  0106              	MOV A,0
1798  0106              ;# 1798 "e:\x-sense_svn\xp02\xp02\src\Smoke.c" 1
1798  0106              	fcall __DELAYY5 +5- (((250000-( 9 + __PBP__ * 2))%0402h)%6) 
1798  0106              	ENDIF
1798  0106              ;# 1798 "e:\x-sense_svn\xp02\xp02\src\Smoke.c" 1
1798  0106              	IF (250000 >= ( 040bh + __PBP__ * 2)) AND ((((250000-( 9 + __PBP__ * 2))%0402h)/4+1)<=256)
1798  0106              ;# 1798 "e:\x-sense_svn\xp02\xp02\src\Smoke.c" 1
1798  0106  0FF3        	MOV A,(250000-( 9 + __PBP__ * 2))/0402h
1798  0107              ;# 1798 "e:\x-sense_svn\xp02\xp02\src\Smoke.c" 1
1798  0107  0080     E  	MOV _builtin_holtek_delay_2,A
1798  0108              ;# 1798 "e:\x-sense_svn\xp02\xp02\src\Smoke.c" 1
1798  0108  0FA8        	MOV A,((250000-( 9 + __PBP__ * 2))%0402h)/4+1
1798  0109              ;# 1798 "e:\x-sense_svn\xp02\xp02\src\Smoke.c" 1
1798  0109              	fcall __DELAYY3 +3-(((250000-( 9 + __PBP__ * 2))%0402h)%4) 
1798  0110              	ENDIF
1799  0110              #line 1799 "e:\x-sense_svn\xp02\xp02\src\Smoke.c"
1799  0110              ;# 1799 "e:\x-sense_svn\xp02\xp02\src\Smoke.c" 1
1799  0110              	IF 250000>263690
1799  0110              ;# 1799 "e:\x-sense_svn\xp02\xp02\src\Smoke.c" 1
1799  0110              	ERRMESSAGE 'the value 250000of the argument exceeds the maxinum 263690'
1799  0110              	ENDIF
1799  0110              ;# 1799 "e:\x-sense_svn\xp02\xp02\src\Smoke.c" 1
1799  0110              	IF 250000<0
1799  0110              ;# 1799 "e:\x-sense_svn\xp02\xp02\src\Smoke.c" 1
1799  0110              	ERRMESSAGE 'the value 250000 of the argument exceeds the mininum 0'
1799  0110              	ENDIF
1799  0110              ;# 1799 "e:\x-sense_svn\xp02\xp02\src\Smoke.c" 1
1799  0110              	IF 250000==0
1799  0110              ;# 1799 "e:\x-sense_svn\xp02\xp02\src\Smoke.c" 1
1799  0110              	JMP $
1799  0110              	ENDIF
1799  0110              ;# 1799 "e:\x-sense_svn\xp02\xp02\src\Smoke.c" 1
1799  0110              	IF (250000>=1) AND (250000<( 4 + __PBP__ * 2))
1799  0110              ;# 1799 "e:\x-sense_svn\xp02\xp02\src\Smoke.c" 1
1799  0110              	NOP
1799  0110              	ENDIF
1799  0110              ;# 1799 "e:\x-sense_svn\xp02\xp02\src\Smoke.c" 1
1799  0110              	IF (250000>=2) AND (250000<( 4 + __PBP__ * 2))
1799  0110              ;# 1799 "e:\x-sense_svn\xp02\xp02\src\Smoke.c" 1
1799  0110              	NOP
1799  0110              	ENDIF
1799  0110              ;# 1799 "e:\x-sense_svn\xp02\xp02\src\Smoke.c" 1
1799  0110              	IF (250000>=3) AND (250000<( 4 + __PBP__ * 2))
1799  0110              ;# 1799 "e:\x-sense_svn\xp02\xp02\src\Smoke.c" 1
1799  0110              	NOP
1799  0110              	ENDIF
1799  0110              ;# 1799 "e:\x-sense_svn\xp02\xp02\src\Smoke.c" 1
1799  0110              	IF (250000>=4) AND (250000<( 4 + __PBP__ * 2)) AND ( __PBP__ > 0 )
1799  0110              ;# 1799 "e:\x-sense_svn\xp02\xp02\src\Smoke.c" 1
1799  0110              	NOP
1799  0110              	ENDIF
1799  0110              ;# 1799 "e:\x-sense_svn\xp02\xp02\src\Smoke.c" 1
1799  0110              	IF (250000>=5) AND (250000<( 4 + __PBP__ * 2)) AND ( __PBP__ > 0 )
1799  0110              ;# 1799 "e:\x-sense_svn\xp02\xp02\src\Smoke.c" 1
1799  0110              	NOP
1799  0110              	ENDIF
1799  0110              ;# 1799 "e:\x-sense_svn\xp02\xp02\src\Smoke.c" 1
1799  0110              	IF (250000>=6) AND (250000<( 4 + __PBP__ * 2))  AND ( __PBP__ > 1 )
1799  0110              ;# 1799 "e:\x-sense_svn\xp02\xp02\src\Smoke.c" 1
1799  0110              	NOP
文件：Smoke.c      编译器版本 HGASM 0202 页次81

1799  0110              	ENDIF
1799  0110              ;# 1799 "e:\x-sense_svn\xp02\xp02\src\Smoke.c" 1
1799  0110              	IF (250000>=7) AND (250000<( 4 + __PBP__ * 2))  AND ( __PBP__ > 1 )
1799  0110              ;# 1799 "e:\x-sense_svn\xp02\xp02\src\Smoke.c" 1
1799  0110              	NOP
1799  0110              	ENDIF
1799  0110              ;# 1799 "e:\x-sense_svn\xp02\xp02\src\Smoke.c" 1
1799  0110              	IF (250000>=8) AND (250000<( 4 + __PBP__ * 2))  AND ( __PBP__ > 2 )
1799  0110              ;# 1799 "e:\x-sense_svn\xp02\xp02\src\Smoke.c" 1
1799  0110              	NOP
1799  0110              	ENDIF
1799  0110              ;# 1799 "e:\x-sense_svn\xp02\xp02\src\Smoke.c" 1
1799  0110              	IF (250000==9)  AND ( __PBP__ > 2 )
1799  0110              ;# 1799 "e:\x-sense_svn\xp02\xp02\src\Smoke.c" 1
1799  0110              	NOP
1799  0110              	ENDIF
1799  0110              ;# 1799 "e:\x-sense_svn\xp02\xp02\src\Smoke.c" 1
1799  0110              	IF (250000< ( 8 + __PBP__ * 2)) AND (250000>( 3 + __PBP__ * 2))
1799  0110              ;# 1799 "e:\x-sense_svn\xp02\xp02\src\Smoke.c" 1
1799  0110              	fcall __DELAY3 + ( 7 + __PBP__ * 2) -250000
1799  0110              	ENDIF
1799  0110              ;# 1799 "e:\x-sense_svn\xp02\xp02\src\Smoke.c" 1
1799  0110              	IF (250000< ( 0404h + __PBP__ * 2)) AND (250000>( 7 + __PBP__ * 2))
1799  0110              ;# 1799 "e:\x-sense_svn\xp02\xp02\src\Smoke.c" 1
1799  0110              	MOV A,(250000-( 4 + __PBP__ * 2))/4
1799  0110              ;# 1799 "e:\x-sense_svn\xp02\xp02\src\Smoke.c" 1
1799  0110              	fcall __DELAYX3 + 3 -((250000-( 4 + __PBP__ * 2)) MOD 4) 
1799  0110              	ENDIF
1799  0110              ;# 1799 "e:\x-sense_svn\xp02\xp02\src\Smoke.c" 1
1799  0110              	IF (250000< ( 040bh + __PBP__ * 2)) AND (250000> ( 0403h + __PBP__ * 2))
1799  0110              ;# 1799 "e:\x-sense_svn\xp02\xp02\src\Smoke.c" 1
1799  0110              	MOV A,0 
1799  0110              ;# 1799 "e:\x-sense_svn\xp02\xp02\src\Smoke.c" 1
1799  0110              	fcall __DELAYX6 + ( 040ah + __PBP__ * 2) -250000
1799  0110              	ENDIF
1799  0110              ;# 1799 "e:\x-sense_svn\xp02\xp02\src\Smoke.c" 1
1799  0110              	IF (250000 >= ( 040bh + __PBP__ * 2)) AND ((((250000-( 9 + __PBP__ * 2))%0402h)/4+1)>256)
1799  0110              ;# 1799 "e:\x-sense_svn\xp02\xp02\src\Smoke.c" 1
1799  0110              	MOV A,(250000-( 9 + __PBP__ * 2))/0402h
1799  0110              ;# 1799 "e:\x-sense_svn\xp02\xp02\src\Smoke.c" 1
1799  0110              	MOV _builtin_holtek_delay_2,A
1799  0110              ;# 1799 "e:\x-sense_svn\xp02\xp02\src\Smoke.c" 1
1799  0110              	MOV A,0
1799  0110              ;# 1799 "e:\x-sense_svn\xp02\xp02\src\Smoke.c" 1
1799  0110              	fcall __DELAYY5 +5- (((250000-( 9 + __PBP__ * 2))%0402h)%6) 
1799  0110              	ENDIF
1799  0110              ;# 1799 "e:\x-sense_svn\xp02\xp02\src\Smoke.c" 1
1799  0110              	IF (250000 >= ( 040bh + __PBP__ * 2)) AND ((((250000-( 9 + __PBP__ * 2))%0402h)/4+1)<=256)
1799  0110              ;# 1799 "e:\x-sense_svn\xp02\xp02\src\Smoke.c" 1
1799  0110  0FF3        	MOV A,(250000-( 9 + __PBP__ * 2))/0402h
1799  0111              ;# 1799 "e:\x-sense_svn\xp02\xp02\src\Smoke.c" 1
1799  0111  0080     E  	MOV _builtin_holtek_delay_2,A
1799  0112              ;# 1799 "e:\x-sense_svn\xp02\xp02\src\Smoke.c" 1
1799  0112  0FA8        	MOV A,((250000-( 9 + __PBP__ * 2))%0402h)/4+1
1799  0113              ;# 1799 "e:\x-sense_svn\xp02\xp02\src\Smoke.c" 1
1799  0113              	fcall __DELAYY3 +3-(((250000-( 9 + __PBP__ * 2))%0402h)%4) 
1799  011A              	ENDIF
1800  011A              #line 1800 "e:\x-sense_svn\xp02\xp02\src\Smoke.c"
1800  011A  3618        	clr [24].4
1801  011B              #line 1801 "e:\x-sense_svn\xp02\xp02\src\Smoke.c"
文件：Smoke.c      编译器版本 HGASM 0202 页次82

1801  011B              ;# 1801 "e:\x-sense_svn\xp02\xp02\src\Smoke.c" 1
1801  011B              	IF 250000>263690
1801  011B              ;# 1801 "e:\x-sense_svn\xp02\xp02\src\Smoke.c" 1
1801  011B              	ERRMESSAGE 'the value 250000of the argument exceeds the maxinum 263690'
1801  011B              	ENDIF
1801  011B              ;# 1801 "e:\x-sense_svn\xp02\xp02\src\Smoke.c" 1
1801  011B              	IF 250000<0
1801  011B              ;# 1801 "e:\x-sense_svn\xp02\xp02\src\Smoke.c" 1
1801  011B              	ERRMESSAGE 'the value 250000 of the argument exceeds the mininum 0'
1801  011B              	ENDIF
1801  011B              ;# 1801 "e:\x-sense_svn\xp02\xp02\src\Smoke.c" 1
1801  011B              	IF 250000==0
1801  011B              ;# 1801 "e:\x-sense_svn\xp02\xp02\src\Smoke.c" 1
1801  011B              	JMP $
1801  011B              	ENDIF
1801  011B              ;# 1801 "e:\x-sense_svn\xp02\xp02\src\Smoke.c" 1
1801  011B              	IF (250000>=1) AND (250000<( 4 + __PBP__ * 2))
1801  011B              ;# 1801 "e:\x-sense_svn\xp02\xp02\src\Smoke.c" 1
1801  011B              	NOP
1801  011B              	ENDIF
1801  011B              ;# 1801 "e:\x-sense_svn\xp02\xp02\src\Smoke.c" 1
1801  011B              	IF (250000>=2) AND (250000<( 4 + __PBP__ * 2))
1801  011B              ;# 1801 "e:\x-sense_svn\xp02\xp02\src\Smoke.c" 1
1801  011B              	NOP
1801  011B              	ENDIF
1801  011B              ;# 1801 "e:\x-sense_svn\xp02\xp02\src\Smoke.c" 1
1801  011B              	IF (250000>=3) AND (250000<( 4 + __PBP__ * 2))
1801  011B              ;# 1801 "e:\x-sense_svn\xp02\xp02\src\Smoke.c" 1
1801  011B              	NOP
1801  011B              	ENDIF
1801  011B              ;# 1801 "e:\x-sense_svn\xp02\xp02\src\Smoke.c" 1
1801  011B              	IF (250000>=4) AND (250000<( 4 + __PBP__ * 2)) AND ( __PBP__ > 0 )
1801  011B              ;# 1801 "e:\x-sense_svn\xp02\xp02\src\Smoke.c" 1
1801  011B              	NOP
1801  011B              	ENDIF
1801  011B              ;# 1801 "e:\x-sense_svn\xp02\xp02\src\Smoke.c" 1
1801  011B              	IF (250000>=5) AND (250000<( 4 + __PBP__ * 2)) AND ( __PBP__ > 0 )
1801  011B              ;# 1801 "e:\x-sense_svn\xp02\xp02\src\Smoke.c" 1
1801  011B              	NOP
1801  011B              	ENDIF
1801  011B              ;# 1801 "e:\x-sense_svn\xp02\xp02\src\Smoke.c" 1
1801  011B              	IF (250000>=6) AND (250000<( 4 + __PBP__ * 2))  AND ( __PBP__ > 1 )
1801  011B              ;# 1801 "e:\x-sense_svn\xp02\xp02\src\Smoke.c" 1
1801  011B              	NOP
1801  011B              	ENDIF
1801  011B              ;# 1801 "e:\x-sense_svn\xp02\xp02\src\Smoke.c" 1
1801  011B              	IF (250000>=7) AND (250000<( 4 + __PBP__ * 2))  AND ( __PBP__ > 1 )
1801  011B              ;# 1801 "e:\x-sense_svn\xp02\xp02\src\Smoke.c" 1
1801  011B              	NOP
1801  011B              	ENDIF
1801  011B              ;# 1801 "e:\x-sense_svn\xp02\xp02\src\Smoke.c" 1
1801  011B              	IF (250000>=8) AND (250000<( 4 + __PBP__ * 2))  AND ( __PBP__ > 2 )
1801  011B              ;# 1801 "e:\x-sense_svn\xp02\xp02\src\Smoke.c" 1
1801  011B              	NOP
1801  011B              	ENDIF
1801  011B              ;# 1801 "e:\x-sense_svn\xp02\xp02\src\Smoke.c" 1
1801  011B              	IF (250000==9)  AND ( __PBP__ > 2 )
1801  011B              ;# 1801 "e:\x-sense_svn\xp02\xp02\src\Smoke.c" 1
1801  011B              	NOP
1801  011B              	ENDIF
文件：Smoke.c      编译器版本 HGASM 0202 页次83

1801  011B              ;# 1801 "e:\x-sense_svn\xp02\xp02\src\Smoke.c" 1
1801  011B              	IF (250000< ( 8 + __PBP__ * 2)) AND (250000>( 3 + __PBP__ * 2))
1801  011B              ;# 1801 "e:\x-sense_svn\xp02\xp02\src\Smoke.c" 1
1801  011B              	fcall __DELAY3 + ( 7 + __PBP__ * 2) -250000
1801  011B              	ENDIF
1801  011B              ;# 1801 "e:\x-sense_svn\xp02\xp02\src\Smoke.c" 1
1801  011B              	IF (250000< ( 0404h + __PBP__ * 2)) AND (250000>( 7 + __PBP__ * 2))
1801  011B              ;# 1801 "e:\x-sense_svn\xp02\xp02\src\Smoke.c" 1
1801  011B              	MOV A,(250000-( 4 + __PBP__ * 2))/4
1801  011B              ;# 1801 "e:\x-sense_svn\xp02\xp02\src\Smoke.c" 1
1801  011B              	fcall __DELAYX3 + 3 -((250000-( 4 + __PBP__ * 2)) MOD 4) 
1801  011B              	ENDIF
1801  011B              ;# 1801 "e:\x-sense_svn\xp02\xp02\src\Smoke.c" 1
1801  011B              	IF (250000< ( 040bh + __PBP__ * 2)) AND (250000> ( 0403h + __PBP__ * 2))
1801  011B              ;# 1801 "e:\x-sense_svn\xp02\xp02\src\Smoke.c" 1
1801  011B              	MOV A,0 
1801  011B              ;# 1801 "e:\x-sense_svn\xp02\xp02\src\Smoke.c" 1
1801  011B              	fcall __DELAYX6 + ( 040ah + __PBP__ * 2) -250000
1801  011B              	ENDIF
1801  011B              ;# 1801 "e:\x-sense_svn\xp02\xp02\src\Smoke.c" 1
1801  011B              	IF (250000 >= ( 040bh + __PBP__ * 2)) AND ((((250000-( 9 + __PBP__ * 2))%0402h)/4+1)>256)
1801  011B              ;# 1801 "e:\x-sense_svn\xp02\xp02\src\Smoke.c" 1
1801  011B              	MOV A,(250000-( 9 + __PBP__ * 2))/0402h
1801  011B              ;# 1801 "e:\x-sense_svn\xp02\xp02\src\Smoke.c" 1
1801  011B              	MOV _builtin_holtek_delay_2,A
1801  011B              ;# 1801 "e:\x-sense_svn\xp02\xp02\src\Smoke.c" 1
1801  011B              	MOV A,0
1801  011B              ;# 1801 "e:\x-sense_svn\xp02\xp02\src\Smoke.c" 1
1801  011B              	fcall __DELAYY5 +5- (((250000-( 9 + __PBP__ * 2))%0402h)%6) 
1801  011B              	ENDIF
1801  011B              ;# 1801 "e:\x-sense_svn\xp02\xp02\src\Smoke.c" 1
1801  011B              	IF (250000 >= ( 040bh + __PBP__ * 2)) AND ((((250000-( 9 + __PBP__ * 2))%0402h)/4+1)<=256)
1801  011B              ;# 1801 "e:\x-sense_svn\xp02\xp02\src\Smoke.c" 1
1801  011B  0FF3        	MOV A,(250000-( 9 + __PBP__ * 2))/0402h
1801  011C              ;# 1801 "e:\x-sense_svn\xp02\xp02\src\Smoke.c" 1
1801  011C  0080     E  	MOV _builtin_holtek_delay_2,A
1801  011D              ;# 1801 "e:\x-sense_svn\xp02\xp02\src\Smoke.c" 1
1801  011D  0FA8        	MOV A,((250000-( 9 + __PBP__ * 2))%0402h)/4+1
1801  011E              ;# 1801 "e:\x-sense_svn\xp02\xp02\src\Smoke.c" 1
1801  011E              	fcall __DELAYY3 +3-(((250000-( 9 + __PBP__ * 2))%0402h)%4) 
1801  0125              	ENDIF
1802  0125              #line 1802 "e:\x-sense_svn\xp02\xp02\src\Smoke.c"
1802  0125              ;# 1802 "e:\x-sense_svn\xp02\xp02\src\Smoke.c" 1
1802  0125              	IF 250000>263690
1802  0125              ;# 1802 "e:\x-sense_svn\xp02\xp02\src\Smoke.c" 1
1802  0125              	ERRMESSAGE 'the value 250000of the argument exceeds the maxinum 263690'
1802  0125              	ENDIF
1802  0125              ;# 1802 "e:\x-sense_svn\xp02\xp02\src\Smoke.c" 1
1802  0125              	IF 250000<0
1802  0125              ;# 1802 "e:\x-sense_svn\xp02\xp02\src\Smoke.c" 1
1802  0125              	ERRMESSAGE 'the value 250000 of the argument exceeds the mininum 0'
1802  0125              	ENDIF
1802  0125              ;# 1802 "e:\x-sense_svn\xp02\xp02\src\Smoke.c" 1
1802  0125              	IF 250000==0
1802  0125              ;# 1802 "e:\x-sense_svn\xp02\xp02\src\Smoke.c" 1
1802  0125              	JMP $
1802  0125              	ENDIF
1802  0125              ;# 1802 "e:\x-sense_svn\xp02\xp02\src\Smoke.c" 1
1802  0125              	IF (250000>=1) AND (250000<( 4 + __PBP__ * 2))
1802  0125              ;# 1802 "e:\x-sense_svn\xp02\xp02\src\Smoke.c" 1
文件：Smoke.c      编译器版本 HGASM 0202 页次84

1802  0125              	NOP
1802  0125              	ENDIF
1802  0125              ;# 1802 "e:\x-sense_svn\xp02\xp02\src\Smoke.c" 1
1802  0125              	IF (250000>=2) AND (250000<( 4 + __PBP__ * 2))
1802  0125              ;# 1802 "e:\x-sense_svn\xp02\xp02\src\Smoke.c" 1
1802  0125              	NOP
1802  0125              	ENDIF
1802  0125              ;# 1802 "e:\x-sense_svn\xp02\xp02\src\Smoke.c" 1
1802  0125              	IF (250000>=3) AND (250000<( 4 + __PBP__ * 2))
1802  0125              ;# 1802 "e:\x-sense_svn\xp02\xp02\src\Smoke.c" 1
1802  0125              	NOP
1802  0125              	ENDIF
1802  0125              ;# 1802 "e:\x-sense_svn\xp02\xp02\src\Smoke.c" 1
1802  0125              	IF (250000>=4) AND (250000<( 4 + __PBP__ * 2)) AND ( __PBP__ > 0 )
1802  0125              ;# 1802 "e:\x-sense_svn\xp02\xp02\src\Smoke.c" 1
1802  0125              	NOP
1802  0125              	ENDIF
1802  0125              ;# 1802 "e:\x-sense_svn\xp02\xp02\src\Smoke.c" 1
1802  0125              	IF (250000>=5) AND (250000<( 4 + __PBP__ * 2)) AND ( __PBP__ > 0 )
1802  0125              ;# 1802 "e:\x-sense_svn\xp02\xp02\src\Smoke.c" 1
1802  0125              	NOP
1802  0125              	ENDIF
1802  0125              ;# 1802 "e:\x-sense_svn\xp02\xp02\src\Smoke.c" 1
1802  0125              	IF (250000>=6) AND (250000<( 4 + __PBP__ * 2))  AND ( __PBP__ > 1 )
1802  0125              ;# 1802 "e:\x-sense_svn\xp02\xp02\src\Smoke.c" 1
1802  0125              	NOP
1802  0125              	ENDIF
1802  0125              ;# 1802 "e:\x-sense_svn\xp02\xp02\src\Smoke.c" 1
1802  0125              	IF (250000>=7) AND (250000<( 4 + __PBP__ * 2))  AND ( __PBP__ > 1 )
1802  0125              ;# 1802 "e:\x-sense_svn\xp02\xp02\src\Smoke.c" 1
1802  0125              	NOP
1802  0125              	ENDIF
1802  0125              ;# 1802 "e:\x-sense_svn\xp02\xp02\src\Smoke.c" 1
1802  0125              	IF (250000>=8) AND (250000<( 4 + __PBP__ * 2))  AND ( __PBP__ > 2 )
1802  0125              ;# 1802 "e:\x-sense_svn\xp02\xp02\src\Smoke.c" 1
1802  0125              	NOP
1802  0125              	ENDIF
1802  0125              ;# 1802 "e:\x-sense_svn\xp02\xp02\src\Smoke.c" 1
1802  0125              	IF (250000==9)  AND ( __PBP__ > 2 )
1802  0125              ;# 1802 "e:\x-sense_svn\xp02\xp02\src\Smoke.c" 1
1802  0125              	NOP
1802  0125              	ENDIF
1802  0125              ;# 1802 "e:\x-sense_svn\xp02\xp02\src\Smoke.c" 1
1802  0125              	IF (250000< ( 8 + __PBP__ * 2)) AND (250000>( 3 + __PBP__ * 2))
1802  0125              ;# 1802 "e:\x-sense_svn\xp02\xp02\src\Smoke.c" 1
1802  0125              	fcall __DELAY3 + ( 7 + __PBP__ * 2) -250000
1802  0125              	ENDIF
1802  0125              ;# 1802 "e:\x-sense_svn\xp02\xp02\src\Smoke.c" 1
1802  0125              	IF (250000< ( 0404h + __PBP__ * 2)) AND (250000>( 7 + __PBP__ * 2))
1802  0125              ;# 1802 "e:\x-sense_svn\xp02\xp02\src\Smoke.c" 1
1802  0125              	MOV A,(250000-( 4 + __PBP__ * 2))/4
1802  0125              ;# 1802 "e:\x-sense_svn\xp02\xp02\src\Smoke.c" 1
1802  0125              	fcall __DELAYX3 + 3 -((250000-( 4 + __PBP__ * 2)) MOD 4) 
1802  0125              	ENDIF
1802  0125              ;# 1802 "e:\x-sense_svn\xp02\xp02\src\Smoke.c" 1
1802  0125              	IF (250000< ( 040bh + __PBP__ * 2)) AND (250000> ( 0403h + __PBP__ * 2))
1802  0125              ;# 1802 "e:\x-sense_svn\xp02\xp02\src\Smoke.c" 1
1802  0125              	MOV A,0 
1802  0125              ;# 1802 "e:\x-sense_svn\xp02\xp02\src\Smoke.c" 1
1802  0125              	fcall __DELAYX6 + ( 040ah + __PBP__ * 2) -250000
文件：Smoke.c      编译器版本 HGASM 0202 页次85

1802  0125              	ENDIF
1802  0125              ;# 1802 "e:\x-sense_svn\xp02\xp02\src\Smoke.c" 1
1802  0125              	IF (250000 >= ( 040bh + __PBP__ * 2)) AND ((((250000-( 9 + __PBP__ * 2))%0402h)/4+1)>256)
1802  0125              ;# 1802 "e:\x-sense_svn\xp02\xp02\src\Smoke.c" 1
1802  0125              	MOV A,(250000-( 9 + __PBP__ * 2))/0402h
1802  0125              ;# 1802 "e:\x-sense_svn\xp02\xp02\src\Smoke.c" 1
1802  0125              	MOV _builtin_holtek_delay_2,A
1802  0125              ;# 1802 "e:\x-sense_svn\xp02\xp02\src\Smoke.c" 1
1802  0125              	MOV A,0
1802  0125              ;# 1802 "e:\x-sense_svn\xp02\xp02\src\Smoke.c" 1
1802  0125              	fcall __DELAYY5 +5- (((250000-( 9 + __PBP__ * 2))%0402h)%6) 
1802  0125              	ENDIF
1802  0125              ;# 1802 "e:\x-sense_svn\xp02\xp02\src\Smoke.c" 1
1802  0125              	IF (250000 >= ( 040bh + __PBP__ * 2)) AND ((((250000-( 9 + __PBP__ * 2))%0402h)/4+1)<=256)
1802  0125              ;# 1802 "e:\x-sense_svn\xp02\xp02\src\Smoke.c" 1
1802  0125  0FF3        	MOV A,(250000-( 9 + __PBP__ * 2))/0402h
1802  0126              ;# 1802 "e:\x-sense_svn\xp02\xp02\src\Smoke.c" 1
1802  0126  0080     E  	MOV _builtin_holtek_delay_2,A
1802  0127              ;# 1802 "e:\x-sense_svn\xp02\xp02\src\Smoke.c" 1
1802  0127  0FA8        	MOV A,((250000-( 9 + __PBP__ * 2))%0402h)/4+1
1802  0128              ;# 1802 "e:\x-sense_svn\xp02\xp02\src\Smoke.c" 1
1802  0128              	fcall __DELAYY3 +3-(((250000-( 9 + __PBP__ * 2))%0402h)%4) 
1802  012F              	ENDIF
1802  012F  1780     E  	sdz ra
1802  0130  2800     R  	jmp _L172
1802  0131              _L161:
1802  0131  0003        	ret
1802  0132              _SmokeAlarmMain endp
1802  0132              #line 1802 "e:\x-sense_svn\xp02\xp02\src\Smoke.c"
1802  0132              #pragma debug scope 1 1
1802  00B5              @crom	.section 'crom'
1802  00B5              _LC32:
1802  00B5              	db 053h,06dh,06fh,06bh,065h,020h,04dh,075h,074h,065h
1802  00BA              	db 020h,04dh,06fh,064h,065h,0ah,00h
1802  00BD              public _SmokeMuteMain
1802  00BD              #pragma debug scope 24 1
1821  00BD              #line 1821 "e:\x-sense_svn\xp02\xp02\src\Smoke.c"
1821  0000              _SmokeMuteMain .section 'code'
1821  0000              _SmokeMuteMain proc
1828  0000              #line 1828 "e:\x-sense_svn\xp02\xp02\src\Smoke.c"
1828  0000  0700     E  	mov a,_SysAO[4]
1828  0001  0C01        	xor a,1
1828  0002  0500     E  	or a,_SysAO[5]
1828  0003  3D0A        	sz z
1828  0004  2800     R  	jmp _L180
1828  0005              #line 1828 "e:\x-sense_svn\xp02\xp02\src\Smoke.c"
1828  0005  0700     E  	mov a,_SysAO[4]
1828  0006  0C14        	xor a,20
1828  0007  0500     E  	or a,_SysAO[5]
1828  0008  3D0A        	sz z
1828  0009  2800     R  	jmp _L181
1828  000A  0700     E  	mov a,_SysAO[4]
1828  000B  0C15        	xor a,21
1828  000C  0500     E  	or a,_SysAO[5]
1828  000D  3D0A        	sz z
1828  000E  2800     R  	jmp _L182
1828  000F  0700     E  	mov a,_SysAO[4]
1828  0010  0C16        	xor a,22
1828  0011  0500     E  	or a,_SysAO[5]
1828  0012  3D0A        	sz z
文件：Smoke.c      编译器版本 HGASM 0202 页次86

1828  0013  2800     R  	jmp _L183
1828  0014  0700     E  	mov a,_SysAO[4]
1828  0015  0C1A        	xor a,26
1828  0016  0500     E  	or a,_SysAO[5]
1828  0017  3D0A        	sz z
1828  0018  2800     R  	jmp _L184
1828  0019  0700     E  	mov a,_SysAO[4]
1828  001A  0C1B        	xor a,27
1828  001B  0500     E  	or a,_SysAO[5]
1828  001C  3D0A        	sz z
1828  001D  2800     R  	jmp _L185
1828  001E  0700     E  	mov a,_SysAO[4]
1828  001F  0C22        	xor a,34
1828  0020  0500     E  	or a,_SysAO[5]
1828  0021  3D0A        	sz z
1828  0022  2800     R  	jmp _L186
1828  0023  0700     E  	mov a,_SysAO[4]
1828  0024  0C3A        	xor a,58
1828  0025  0500     E  	or a,_SysAO[5]
1828  0026  3D0A        	sz z
1828  0027  2800     R  	jmp _L187
1828  0028  0700     E  	mov a,_SysAO[4]
1828  0029  0C3C        	xor a,60
1828  002A  0500     E  	or a,_SysAO[5]
1828  002B  390A        	snz z
1828  002C  2800     R  	jmp _L178
1942  002D              #line 1942 "e:\x-sense_svn\xp02\xp02\src\Smoke.c"
1942  002D  0F07        	mov a,7
1942  002E  0080     E  	mov _TmrDeleteTimer_2[0],a
1942  002F  1F00     E  	clr _TmrDeleteTimer_2[1]
1942  0030              	fcall _TmrDeleteTimer
1943  0037              #line 1943 "e:\x-sense_svn\xp02\xp02\src\Smoke.c"
1943  0037  0F05        	mov a,5
1943  0038  0080     E  	mov _TmrDeleteTimer_2[0],a
1943  0039  1F00     E  	clr _TmrDeleteTimer_2[1]
1943  003A              	fcall _TmrDeleteTimer
1944  0041              #line 1944 "e:\x-sense_svn\xp02\xp02\src\Smoke.c"
1944  0041  0F10        	mov a,16
1944  0042  0080     E  	mov _SysAO[0],a
1944  0043  1F00     E  	clr _SysAO[1]
1944  0044  2800     R  	jmp _L195
1944  0045              _L180:
1831  0045              #line 1831 "e:\x-sense_svn\xp02\xp02\src\Smoke.c"
1831  0045  0F00     R  	mov a,low offset _LC32
1831  0046  0080     E  	mov _printf_2[0],a
1831  0047  0F00     R  	mov a,high offset _LC32
1831  0048  0080     E  	mov _printf_2[1],a
1831  0049              	fcall _printf
1833  0050              #line 1833 "e:\x-sense_svn\xp02\xp02\src\Smoke.c"
1833  0050  1F00     R  	clr ___TimeoutCnt_3344[0]
1834  0051              #line 1834 "e:\x-sense_svn\xp02\xp02\src\Smoke.c"
1834  0051  1F00     R  	clr ___MuteTimeCnt_3345[0]
1836  0052              #line 1836 "e:\x-sense_svn\xp02\xp02\src\Smoke.c"
1836  0052  1F00     R  	clr ___CoCheckCnt_3346[0]
1840  0053              #line 1840 "e:\x-sense_svn\xp02\xp02\src\Smoke.c"
1840  0053  0F30        	mov a,48
1840  0054  0080     E  	mov _SpeakerSendCmd_2[0],a
1840  0055  1F00     E  	clr _SpeakerSendCmd_2[1]
1840  0056  1F00     E  	clr _SpeakerSendCmd_2[2]
1840  0057  1F00     E  	clr _SpeakerSendCmd_2[3]
文件：Smoke.c      编译器版本 HGASM 0202 页次87

1840  0058              	fcall _SpeakerSendCmd
1844  005F              #line 1844 "e:\x-sense_svn\xp02\xp02\src\Smoke.c"
1844  005F  1F00     E  	clr _UartSendMsg_2[3]
1844  0060  0F02        	mov a,2
1844  0061  0080     E  	mov _UartSendMsg_2[2],a
1844  0062  0F03        	mov a,3
1844  0063  0080     E  	mov _UartSendMsg_2[0],a
1844  0064  1F00     E  	clr _UartSendMsg_2[1]
1844  0065              	fcall _UartSendMsg
1847  006C              #line 1847 "e:\x-sense_svn\xp02\xp02\src\Smoke.c"
1847  006C  0F02        	mov a,2
1847  006D  0080     E  	mov _TmrInsertTimer_2[4],a
1847  006E  1F00     E  	clr _TmrInsertTimer_2[5]
1847  006F  0F32        	mov a,50
1847  0070  0080     E  	mov _TmrInsertTimer_2[2],a
1847  0071  1F00     E  	clr _TmrInsertTimer_2[3]
1847  0072  0F05        	mov a,5
1847  0073  0080     E  	mov _TmrInsertTimer_2[0],a
1847  0074  1F00     E  	clr _TmrInsertTimer_2[1]
1847  0075              	fcall _TmrInsertTimer
1848  007C              #line 1848 "e:\x-sense_svn\xp02\xp02\src\Smoke.c"
1848  007C  0F04        	mov a,4
1848  007D  0080     E  	mov _TmrInsertTimer_2[4],a
1848  007E  1F00     E  	clr _TmrInsertTimer_2[5]
1848  007F  0F70        	mov a,112
1848  0080  0080     E  	mov _TmrInsertTimer_2[2],a
1848  0081  0F17        	mov a,23
1848  0082  0080     E  	mov _TmrInsertTimer_2[3],a
1848  0083  0F07        	mov a,7
1848  0084  0080     E  	mov _TmrInsertTimer_2[0],a
1848  0085  1F00     E  	clr _TmrInsertTimer_2[1]
1848  0086              	fcall _TmrInsertTimer
1851  008D              #line 1851 "e:\x-sense_svn\xp02\xp02\src\Smoke.c"
1851  008D  0700     E  	mov a,_SMOKE_ALARM_LEVEL[0]
1851  008E  0380     R  	addm a,_SmokeAO[8]
1851  008F  0700     E  	mov a,_SMOKE_ALARM_LEVEL[1]
1851  0090  1380     R  	adcm a,_SmokeAO[9]
1855  0091              #line 1855 "e:\x-sense_svn\xp02\xp02\src\Smoke.c"
1855  0091  2800     R  	jmp _L178
1855  0092              _L182:
1861  0092              #line 1861 "e:\x-sense_svn\xp02\xp02\src\Smoke.c"
1861  0092  1400     R  	inca ___TimeoutCnt_3344[0]
1861  0093  0080     E  	mov ra,a
1861  0094  0700     E  	mov a,ra
1861  0095  0080     R  	mov ___TimeoutCnt_3344[0],a
1861  0096  0F05        	mov a,5
1861  0097  0200     E  	sub a,ra
1861  0098  3C0A        	sz c
1861  0099  2800     R  	jmp _L189
1863  009A              #line 1863 "e:\x-sense_svn\xp02\xp02\src\Smoke.c"
1863  009A  1F00     R  	clr ___TimeoutCnt_3344[0]
1864  009B              #line 1864 "e:\x-sense_svn\xp02\xp02\src\Smoke.c"
1864  009B  3514        	clr [20].2
1866  009C              #line 1866 "e:\x-sense_svn\xp02\xp02\src\Smoke.c"
1866  009C              	fcall _BatteryCheckHandle
1867  00A3              #line 1867 "e:\x-sense_svn\xp02\xp02\src\Smoke.c"
1867  00A3              	fcall _SmokeAlarmCheck
1869  00AA              #line 1869 "e:\x-sense_svn\xp02\xp02\src\Smoke.c"
1869  00AA  0F05        	mov a,5
1869  00AB  0080     E  	mov _TmrDeleteTimer_2[0],a
文件：Smoke.c      编译器版本 HGASM 0202 页次88

1869  00AC  1F00     E  	clr _TmrDeleteTimer_2[1]
1869  00AD              	fcall _TmrDeleteTimer
1870  00B4              #line 1870 "e:\x-sense_svn\xp02\xp02\src\Smoke.c"
1870  00B4  0F03        	mov a,3
1870  00B5  0080     E  	mov _TmrInsertTimer_2[4],a
1870  00B6  1F00     E  	clr _TmrInsertTimer_2[5]
1870  00B7  2800     R  	jmp _L196
1870  00B8              _L189:
1874  00B8              #line 1874 "e:\x-sense_svn\xp02\xp02\src\Smoke.c"
1874  00B8  1F00     E  	clr ra
1874  00B9  3914        	snz [20].2
1874  00BA  3000     E  	set ra.2
1874  00BB  3514        	clr [20].2
1874  00BC  0700     E  	mov a,ra
1874  00BD  0594        	orm a,[20]
1874  00BE  2800     R  	jmp _L178
1874  00BF              _L183:
1880  00BF              #line 1880 "e:\x-sense_svn\xp02\xp02\src\Smoke.c"
1880  00BF  0700     R  	mov a,___CoCheckCnt_3346[0]
1880  00C0  0080     E  	mov ra,a
1880  00C1  0F05        	mov a,5
1880  00C2  0200     E  	sub a,ra
1880  00C3  380A        	snz c
1880  00C4  2800     R  	jmp _L190
1880  00C5  1400     E  	inca ra
1880  00C6  0080     R  	mov ___CoCheckCnt_3346[0],a
1880  00C7  2800     R  	jmp _L191
1880  00C8              _L190:
1882  00C8              #line 1882 "e:\x-sense_svn\xp02\xp02\src\Smoke.c"
1882  00C8  1F00     R  	clr ___CoCheckCnt_3346[0]
1883  00C9              #line 1883 "e:\x-sense_svn\xp02\xp02\src\Smoke.c"
1883  00C9              	fcall _CoAlarmCheck
1883  00D0              _L191:
1886  00D0              #line 1886 "e:\x-sense_svn\xp02\xp02\src\Smoke.c"
1886  00D0  0F05        	mov a,5
1886  00D1  0080     E  	mov _TmrDeleteTimer_2[0],a
1886  00D2  1F00     E  	clr _TmrDeleteTimer_2[1]
1886  00D3              	fcall _TmrDeleteTimer
1887  00DA              #line 1887 "e:\x-sense_svn\xp02\xp02\src\Smoke.c"
1887  00DA  0F02        	mov a,2
1887  00DB  0080     E  	mov _TmrInsertTimer_2[4],a
1887  00DC  1F00     E  	clr _TmrInsertTimer_2[5]
1887  00DD              _L196:
1887  00DD  0F32        	mov a,50
1887  00DE  0080     E  	mov _TmrInsertTimer_2[2],a
1887  00DF  1F00     E  	clr _TmrInsertTimer_2[3]
1887  00E0  0F05        	mov a,5
1887  00E1  0080     E  	mov _TmrInsertTimer_2[0],a
1887  00E2  1F00     E  	clr _TmrInsertTimer_2[1]
1887  00E3              	fcall _TmrInsertTimer
1888  00EA              #line 1888 "e:\x-sense_svn\xp02\xp02\src\Smoke.c"
1888  00EA  2800     R  	jmp _L178
1888  00EB              _L184:
1891  00EB              #line 1891 "e:\x-sense_svn\xp02\xp02\src\Smoke.c"
1891  00EB  3514        	clr [20].2
1892  00EC              #line 1892 "e:\x-sense_svn\xp02\xp02\src\Smoke.c"
1892  00EC  1400     R  	inca ___MuteTimeCnt_3345[0]
1892  00ED  0080     E  	mov ra,a
1892  00EE  0700     E  	mov a,ra
1892  00EF  0080     R  	mov ___MuteTimeCnt_3345[0],a
文件：Smoke.c      编译器版本 HGASM 0202 页次89

1892  00F0  0F08        	mov a,8
1892  00F1  0200     E  	sub a,ra
1892  00F2  3C0A        	sz c
1892  00F3  2800     R  	jmp _L178
1894  00F4              #line 1894 "e:\x-sense_svn\xp02\xp02\src\Smoke.c"
1894  00F4  0F1B        	mov a,27
1894  00F5  0080     E  	mov _SysteSetSig_2[0],a
1894  00F6  1F00     E  	clr _SysteSetSig_2[1]
1894  00F7              	fcall _SysteSetSig
1894  00FE  2800     R  	jmp _L178
1894  00FF              _L185:
1899  00FF              #line 1899 "e:\x-sense_svn\xp02\xp02\src\Smoke.c"
1899  00FF  0F07        	mov a,7
1899  0100  0080     E  	mov _TmrDeleteTimer_2[0],a
1899  0101  1F00     E  	clr _TmrDeleteTimer_2[1]
1899  0102              	fcall _TmrDeleteTimer
1900  0109              #line 1900 "e:\x-sense_svn\xp02\xp02\src\Smoke.c"
1900  0109  0F05        	mov a,5
1900  010A  0080     E  	mov _TmrDeleteTimer_2[0],a
1900  010B  1F00     E  	clr _TmrDeleteTimer_2[1]
1900  010C              	fcall _TmrDeleteTimer
1903  0113              #line 1903 "e:\x-sense_svn\xp02\xp02\src\Smoke.c"
1903  0113  0F34        	mov a,52
1903  0114  0080     E  	mov _SpeakerSendCmd_2[0],a
1903  0115  1F00     E  	clr _SpeakerSendCmd_2[1]
1903  0116  1F00     E  	clr _SpeakerSendCmd_2[2]
1903  0117  1F00     E  	clr _SpeakerSendCmd_2[3]
1903  0118              	fcall _SpeakerSendCmd
1907  011F              #line 1907 "e:\x-sense_svn\xp02\xp02\src\Smoke.c"
1907  011F              	fcall _GetRfPairedMode
1907  0126  0700     E  	mov a,ra
1907  0127  0C01        	xor a,1
1907  0128  0500     E  	or a,rb
1907  0129  390A        	snz z
1907  012A  2800     R  	jmp _L192
1909  012B              #line 1909 "e:\x-sense_svn\xp02\xp02\src\Smoke.c"
1909  012B  1F00     E  	clr _UartSendMsg_2[3]
1909  012C  0F0B        	mov a,11
1909  012D  0080     E  	mov _UartSendMsg_2[2],a
1909  012E  0F03        	mov a,3
1909  012F  0080     E  	mov _UartSendMsg_2[0],a
1909  0130  1F00     E  	clr _UartSendMsg_2[1]
1909  0131              	fcall _UartSendMsg
1909  0138              _L192:
1821  0138              #line 1821 "e:\x-sense_svn\xp02\xp02\src\Smoke.c"
1821  0138  0F03        	mov a,3
1821  0139  0080     E  	mov ra,a
1821  013A              _L194:
1914  013A              #line 1914 "e:\x-sense_svn\xp02\xp02\src\Smoke.c"
1914  013A  3218        	set [24].4
1915  013B              #line 1915 "e:\x-sense_svn\xp02\xp02\src\Smoke.c"
1915  013B              ;# 1915 "e:\x-sense_svn\xp02\xp02\src\Smoke.c" 1
1915  013B              	IF 250000>263690
1915  013B              ;# 1915 "e:\x-sense_svn\xp02\xp02\src\Smoke.c" 1
1915  013B              	ERRMESSAGE 'the value 250000of the argument exceeds the maxinum 263690'
1915  013B              	ENDIF
1915  013B              ;# 1915 "e:\x-sense_svn\xp02\xp02\src\Smoke.c" 1
1915  013B              	IF 250000<0
1915  013B              ;# 1915 "e:\x-sense_svn\xp02\xp02\src\Smoke.c" 1
1915  013B              	ERRMESSAGE 'the value 250000 of the argument exceeds the mininum 0'
文件：Smoke.c      编译器版本 HGASM 0202 页次90

1915  013B              	ENDIF
1915  013B              ;# 1915 "e:\x-sense_svn\xp02\xp02\src\Smoke.c" 1
1915  013B              	IF 250000==0
1915  013B              ;# 1915 "e:\x-sense_svn\xp02\xp02\src\Smoke.c" 1
1915  013B              	JMP $
1915  013B              	ENDIF
1915  013B              ;# 1915 "e:\x-sense_svn\xp02\xp02\src\Smoke.c" 1
1915  013B              	IF (250000>=1) AND (250000<( 4 + __PBP__ * 2))
1915  013B              ;# 1915 "e:\x-sense_svn\xp02\xp02\src\Smoke.c" 1
1915  013B              	NOP
1915  013B              	ENDIF
1915  013B              ;# 1915 "e:\x-sense_svn\xp02\xp02\src\Smoke.c" 1
1915  013B              	IF (250000>=2) AND (250000<( 4 + __PBP__ * 2))
1915  013B              ;# 1915 "e:\x-sense_svn\xp02\xp02\src\Smoke.c" 1
1915  013B              	NOP
1915  013B              	ENDIF
1915  013B              ;# 1915 "e:\x-sense_svn\xp02\xp02\src\Smoke.c" 1
1915  013B              	IF (250000>=3) AND (250000<( 4 + __PBP__ * 2))
1915  013B              ;# 1915 "e:\x-sense_svn\xp02\xp02\src\Smoke.c" 1
1915  013B              	NOP
1915  013B              	ENDIF
1915  013B              ;# 1915 "e:\x-sense_svn\xp02\xp02\src\Smoke.c" 1
1915  013B              	IF (250000>=4) AND (250000<( 4 + __PBP__ * 2)) AND ( __PBP__ > 0 )
1915  013B              ;# 1915 "e:\x-sense_svn\xp02\xp02\src\Smoke.c" 1
1915  013B              	NOP
1915  013B              	ENDIF
1915  013B              ;# 1915 "e:\x-sense_svn\xp02\xp02\src\Smoke.c" 1
1915  013B              	IF (250000>=5) AND (250000<( 4 + __PBP__ * 2)) AND ( __PBP__ > 0 )
1915  013B              ;# 1915 "e:\x-sense_svn\xp02\xp02\src\Smoke.c" 1
1915  013B              	NOP
1915  013B              	ENDIF
1915  013B              ;# 1915 "e:\x-sense_svn\xp02\xp02\src\Smoke.c" 1
1915  013B              	IF (250000>=6) AND (250000<( 4 + __PBP__ * 2))  AND ( __PBP__ > 1 )
1915  013B              ;# 1915 "e:\x-sense_svn\xp02\xp02\src\Smoke.c" 1
1915  013B              	NOP
1915  013B              	ENDIF
1915  013B              ;# 1915 "e:\x-sense_svn\xp02\xp02\src\Smoke.c" 1
1915  013B              	IF (250000>=7) AND (250000<( 4 + __PBP__ * 2))  AND ( __PBP__ > 1 )
1915  013B              ;# 1915 "e:\x-sense_svn\xp02\xp02\src\Smoke.c" 1
1915  013B              	NOP
1915  013B              	ENDIF
1915  013B              ;# 1915 "e:\x-sense_svn\xp02\xp02\src\Smoke.c" 1
1915  013B              	IF (250000>=8) AND (250000<( 4 + __PBP__ * 2))  AND ( __PBP__ > 2 )
1915  013B              ;# 1915 "e:\x-sense_svn\xp02\xp02\src\Smoke.c" 1
1915  013B              	NOP
1915  013B              	ENDIF
1915  013B              ;# 1915 "e:\x-sense_svn\xp02\xp02\src\Smoke.c" 1
1915  013B              	IF (250000==9)  AND ( __PBP__ > 2 )
1915  013B              ;# 1915 "e:\x-sense_svn\xp02\xp02\src\Smoke.c" 1
1915  013B              	NOP
1915  013B              	ENDIF
1915  013B              ;# 1915 "e:\x-sense_svn\xp02\xp02\src\Smoke.c" 1
1915  013B              	IF (250000< ( 8 + __PBP__ * 2)) AND (250000>( 3 + __PBP__ * 2))
1915  013B              ;# 1915 "e:\x-sense_svn\xp02\xp02\src\Smoke.c" 1
1915  013B              	fcall __DELAY3 + ( 7 + __PBP__ * 2) -250000
1915  013B              	ENDIF
1915  013B              ;# 1915 "e:\x-sense_svn\xp02\xp02\src\Smoke.c" 1
1915  013B              	IF (250000< ( 0404h + __PBP__ * 2)) AND (250000>( 7 + __PBP__ * 2))
1915  013B              ;# 1915 "e:\x-sense_svn\xp02\xp02\src\Smoke.c" 1
1915  013B              	MOV A,(250000-( 4 + __PBP__ * 2))/4
文件：Smoke.c      编译器版本 HGASM 0202 页次91

1915  013B              ;# 1915 "e:\x-sense_svn\xp02\xp02\src\Smoke.c" 1
1915  013B              	fcall __DELAYX3 + 3 -((250000-( 4 + __PBP__ * 2)) MOD 4) 
1915  013B              	ENDIF
1915  013B              ;# 1915 "e:\x-sense_svn\xp02\xp02\src\Smoke.c" 1
1915  013B              	IF (250000< ( 040bh + __PBP__ * 2)) AND (250000> ( 0403h + __PBP__ * 2))
1915  013B              ;# 1915 "e:\x-sense_svn\xp02\xp02\src\Smoke.c" 1
1915  013B              	MOV A,0 
1915  013B              ;# 1915 "e:\x-sense_svn\xp02\xp02\src\Smoke.c" 1
1915  013B              	fcall __DELAYX6 + ( 040ah + __PBP__ * 2) -250000
1915  013B              	ENDIF
1915  013B              ;# 1915 "e:\x-sense_svn\xp02\xp02\src\Smoke.c" 1
1915  013B              	IF (250000 >= ( 040bh + __PBP__ * 2)) AND ((((250000-( 9 + __PBP__ * 2))%0402h)/4+1)>256)
1915  013B              ;# 1915 "e:\x-sense_svn\xp02\xp02\src\Smoke.c" 1
1915  013B              	MOV A,(250000-( 9 + __PBP__ * 2))/0402h
1915  013B              ;# 1915 "e:\x-sense_svn\xp02\xp02\src\Smoke.c" 1
1915  013B              	MOV _builtin_holtek_delay_2,A
1915  013B              ;# 1915 "e:\x-sense_svn\xp02\xp02\src\Smoke.c" 1
1915  013B              	MOV A,0
1915  013B              ;# 1915 "e:\x-sense_svn\xp02\xp02\src\Smoke.c" 1
1915  013B              	fcall __DELAYY5 +5- (((250000-( 9 + __PBP__ * 2))%0402h)%6) 
1915  013B              	ENDIF
1915  013B              ;# 1915 "e:\x-sense_svn\xp02\xp02\src\Smoke.c" 1
1915  013B              	IF (250000 >= ( 040bh + __PBP__ * 2)) AND ((((250000-( 9 + __PBP__ * 2))%0402h)/4+1)<=256)
1915  013B              ;# 1915 "e:\x-sense_svn\xp02\xp02\src\Smoke.c" 1
1915  013B  0FF3        	MOV A,(250000-( 9 + __PBP__ * 2))/0402h
1915  013C              ;# 1915 "e:\x-sense_svn\xp02\xp02\src\Smoke.c" 1
1915  013C  0080     E  	MOV _builtin_holtek_delay_2,A
1915  013D              ;# 1915 "e:\x-sense_svn\xp02\xp02\src\Smoke.c" 1
1915  013D  0FA8        	MOV A,((250000-( 9 + __PBP__ * 2))%0402h)/4+1
1915  013E              ;# 1915 "e:\x-sense_svn\xp02\xp02\src\Smoke.c" 1
1915  013E              	fcall __DELAYY3 +3-(((250000-( 9 + __PBP__ * 2))%0402h)%4) 
1915  0145              	ENDIF
1916  0145              #line 1916 "e:\x-sense_svn\xp02\xp02\src\Smoke.c"
1916  0145              ;# 1916 "e:\x-sense_svn\xp02\xp02\src\Smoke.c" 1
1916  0145              	IF 250000>263690
1916  0145              ;# 1916 "e:\x-sense_svn\xp02\xp02\src\Smoke.c" 1
1916  0145              	ERRMESSAGE 'the value 250000of the argument exceeds the maxinum 263690'
1916  0145              	ENDIF
1916  0145              ;# 1916 "e:\x-sense_svn\xp02\xp02\src\Smoke.c" 1
1916  0145              	IF 250000<0
1916  0145              ;# 1916 "e:\x-sense_svn\xp02\xp02\src\Smoke.c" 1
1916  0145              	ERRMESSAGE 'the value 250000 of the argument exceeds the mininum 0'
1916  0145              	ENDIF
1916  0145              ;# 1916 "e:\x-sense_svn\xp02\xp02\src\Smoke.c" 1
1916  0145              	IF 250000==0
1916  0145              ;# 1916 "e:\x-sense_svn\xp02\xp02\src\Smoke.c" 1
1916  0145              	JMP $
1916  0145              	ENDIF
1916  0145              ;# 1916 "e:\x-sense_svn\xp02\xp02\src\Smoke.c" 1
1916  0145              	IF (250000>=1) AND (250000<( 4 + __PBP__ * 2))
1916  0145              ;# 1916 "e:\x-sense_svn\xp02\xp02\src\Smoke.c" 1
1916  0145              	NOP
1916  0145              	ENDIF
1916  0145              ;# 1916 "e:\x-sense_svn\xp02\xp02\src\Smoke.c" 1
1916  0145              	IF (250000>=2) AND (250000<( 4 + __PBP__ * 2))
1916  0145              ;# 1916 "e:\x-sense_svn\xp02\xp02\src\Smoke.c" 1
1916  0145              	NOP
1916  0145              	ENDIF
1916  0145              ;# 1916 "e:\x-sense_svn\xp02\xp02\src\Smoke.c" 1
1916  0145              	IF (250000>=3) AND (250000<( 4 + __PBP__ * 2))
文件：Smoke.c      编译器版本 HGASM 0202 页次92

1916  0145              ;# 1916 "e:\x-sense_svn\xp02\xp02\src\Smoke.c" 1
1916  0145              	NOP
1916  0145              	ENDIF
1916  0145              ;# 1916 "e:\x-sense_svn\xp02\xp02\src\Smoke.c" 1
1916  0145              	IF (250000>=4) AND (250000<( 4 + __PBP__ * 2)) AND ( __PBP__ > 0 )
1916  0145              ;# 1916 "e:\x-sense_svn\xp02\xp02\src\Smoke.c" 1
1916  0145              	NOP
1916  0145              	ENDIF
1916  0145              ;# 1916 "e:\x-sense_svn\xp02\xp02\src\Smoke.c" 1
1916  0145              	IF (250000>=5) AND (250000<( 4 + __PBP__ * 2)) AND ( __PBP__ > 0 )
1916  0145              ;# 1916 "e:\x-sense_svn\xp02\xp02\src\Smoke.c" 1
1916  0145              	NOP
1916  0145              	ENDIF
1916  0145              ;# 1916 "e:\x-sense_svn\xp02\xp02\src\Smoke.c" 1
1916  0145              	IF (250000>=6) AND (250000<( 4 + __PBP__ * 2))  AND ( __PBP__ > 1 )
1916  0145              ;# 1916 "e:\x-sense_svn\xp02\xp02\src\Smoke.c" 1
1916  0145              	NOP
1916  0145              	ENDIF
1916  0145              ;# 1916 "e:\x-sense_svn\xp02\xp02\src\Smoke.c" 1
1916  0145              	IF (250000>=7) AND (250000<( 4 + __PBP__ * 2))  AND ( __PBP__ > 1 )
1916  0145              ;# 1916 "e:\x-sense_svn\xp02\xp02\src\Smoke.c" 1
1916  0145              	NOP
1916  0145              	ENDIF
1916  0145              ;# 1916 "e:\x-sense_svn\xp02\xp02\src\Smoke.c" 1
1916  0145              	IF (250000>=8) AND (250000<( 4 + __PBP__ * 2))  AND ( __PBP__ > 2 )
1916  0145              ;# 1916 "e:\x-sense_svn\xp02\xp02\src\Smoke.c" 1
1916  0145              	NOP
1916  0145              	ENDIF
1916  0145              ;# 1916 "e:\x-sense_svn\xp02\xp02\src\Smoke.c" 1
1916  0145              	IF (250000==9)  AND ( __PBP__ > 2 )
1916  0145              ;# 1916 "e:\x-sense_svn\xp02\xp02\src\Smoke.c" 1
1916  0145              	NOP
1916  0145              	ENDIF
1916  0145              ;# 1916 "e:\x-sense_svn\xp02\xp02\src\Smoke.c" 1
1916  0145              	IF (250000< ( 8 + __PBP__ * 2)) AND (250000>( 3 + __PBP__ * 2))
1916  0145              ;# 1916 "e:\x-sense_svn\xp02\xp02\src\Smoke.c" 1
1916  0145              	fcall __DELAY3 + ( 7 + __PBP__ * 2) -250000
1916  0145              	ENDIF
1916  0145              ;# 1916 "e:\x-sense_svn\xp02\xp02\src\Smoke.c" 1
1916  0145              	IF (250000< ( 0404h + __PBP__ * 2)) AND (250000>( 7 + __PBP__ * 2))
1916  0145              ;# 1916 "e:\x-sense_svn\xp02\xp02\src\Smoke.c" 1
1916  0145              	MOV A,(250000-( 4 + __PBP__ * 2))/4
1916  0145              ;# 1916 "e:\x-sense_svn\xp02\xp02\src\Smoke.c" 1
1916  0145              	fcall __DELAYX3 + 3 -((250000-( 4 + __PBP__ * 2)) MOD 4) 
1916  0145              	ENDIF
1916  0145              ;# 1916 "e:\x-sense_svn\xp02\xp02\src\Smoke.c" 1
1916  0145              	IF (250000< ( 040bh + __PBP__ * 2)) AND (250000> ( 0403h + __PBP__ * 2))
1916  0145              ;# 1916 "e:\x-sense_svn\xp02\xp02\src\Smoke.c" 1
1916  0145              	MOV A,0 
1916  0145              ;# 1916 "e:\x-sense_svn\xp02\xp02\src\Smoke.c" 1
1916  0145              	fcall __DELAYX6 + ( 040ah + __PBP__ * 2) -250000
1916  0145              	ENDIF
1916  0145              ;# 1916 "e:\x-sense_svn\xp02\xp02\src\Smoke.c" 1
1916  0145              	IF (250000 >= ( 040bh + __PBP__ * 2)) AND ((((250000-( 9 + __PBP__ * 2))%0402h)/4+1)>256)
1916  0145              ;# 1916 "e:\x-sense_svn\xp02\xp02\src\Smoke.c" 1
1916  0145              	MOV A,(250000-( 9 + __PBP__ * 2))/0402h
1916  0145              ;# 1916 "e:\x-sense_svn\xp02\xp02\src\Smoke.c" 1
1916  0145              	MOV _builtin_holtek_delay_2,A
1916  0145              ;# 1916 "e:\x-sense_svn\xp02\xp02\src\Smoke.c" 1
1916  0145              	MOV A,0
文件：Smoke.c      编译器版本 HGASM 0202 页次93

1916  0145              ;# 1916 "e:\x-sense_svn\xp02\xp02\src\Smoke.c" 1
1916  0145              	fcall __DELAYY5 +5- (((250000-( 9 + __PBP__ * 2))%0402h)%6) 
1916  0145              	ENDIF
1916  0145              ;# 1916 "e:\x-sense_svn\xp02\xp02\src\Smoke.c" 1
1916  0145              	IF (250000 >= ( 040bh + __PBP__ * 2)) AND ((((250000-( 9 + __PBP__ * 2))%0402h)/4+1)<=256)
1916  0145              ;# 1916 "e:\x-sense_svn\xp02\xp02\src\Smoke.c" 1
1916  0145  0FF3        	MOV A,(250000-( 9 + __PBP__ * 2))/0402h
1916  0146              ;# 1916 "e:\x-sense_svn\xp02\xp02\src\Smoke.c" 1
1916  0146  0080     E  	MOV _builtin_holtek_delay_2,A
1916  0147              ;# 1916 "e:\x-sense_svn\xp02\xp02\src\Smoke.c" 1
1916  0147  0FA8        	MOV A,((250000-( 9 + __PBP__ * 2))%0402h)/4+1
1916  0148              ;# 1916 "e:\x-sense_svn\xp02\xp02\src\Smoke.c" 1
1916  0148              	fcall __DELAYY3 +3-(((250000-( 9 + __PBP__ * 2))%0402h)%4) 
1916  014F              	ENDIF
1917  014F              #line 1917 "e:\x-sense_svn\xp02\xp02\src\Smoke.c"
1917  014F  3618        	clr [24].4
1918  0150              #line 1918 "e:\x-sense_svn\xp02\xp02\src\Smoke.c"
1918  0150              ;# 1918 "e:\x-sense_svn\xp02\xp02\src\Smoke.c" 1
1918  0150              	IF 250000>263690
1918  0150              ;# 1918 "e:\x-sense_svn\xp02\xp02\src\Smoke.c" 1
1918  0150              	ERRMESSAGE 'the value 250000of the argument exceeds the maxinum 263690'
1918  0150              	ENDIF
1918  0150              ;# 1918 "e:\x-sense_svn\xp02\xp02\src\Smoke.c" 1
1918  0150              	IF 250000<0
1918  0150              ;# 1918 "e:\x-sense_svn\xp02\xp02\src\Smoke.c" 1
1918  0150              	ERRMESSAGE 'the value 250000 of the argument exceeds the mininum 0'
1918  0150              	ENDIF
1918  0150              ;# 1918 "e:\x-sense_svn\xp02\xp02\src\Smoke.c" 1
1918  0150              	IF 250000==0
1918  0150              ;# 1918 "e:\x-sense_svn\xp02\xp02\src\Smoke.c" 1
1918  0150              	JMP $
1918  0150              	ENDIF
1918  0150              ;# 1918 "e:\x-sense_svn\xp02\xp02\src\Smoke.c" 1
1918  0150              	IF (250000>=1) AND (250000<( 4 + __PBP__ * 2))
1918  0150              ;# 1918 "e:\x-sense_svn\xp02\xp02\src\Smoke.c" 1
1918  0150              	NOP
1918  0150              	ENDIF
1918  0150              ;# 1918 "e:\x-sense_svn\xp02\xp02\src\Smoke.c" 1
1918  0150              	IF (250000>=2) AND (250000<( 4 + __PBP__ * 2))
1918  0150              ;# 1918 "e:\x-sense_svn\xp02\xp02\src\Smoke.c" 1
1918  0150              	NOP
1918  0150              	ENDIF
1918  0150              ;# 1918 "e:\x-sense_svn\xp02\xp02\src\Smoke.c" 1
1918  0150              	IF (250000>=3) AND (250000<( 4 + __PBP__ * 2))
1918  0150              ;# 1918 "e:\x-sense_svn\xp02\xp02\src\Smoke.c" 1
1918  0150              	NOP
1918  0150              	ENDIF
1918  0150              ;# 1918 "e:\x-sense_svn\xp02\xp02\src\Smoke.c" 1
1918  0150              	IF (250000>=4) AND (250000<( 4 + __PBP__ * 2)) AND ( __PBP__ > 0 )
1918  0150              ;# 1918 "e:\x-sense_svn\xp02\xp02\src\Smoke.c" 1
1918  0150              	NOP
1918  0150              	ENDIF
1918  0150              ;# 1918 "e:\x-sense_svn\xp02\xp02\src\Smoke.c" 1
1918  0150              	IF (250000>=5) AND (250000<( 4 + __PBP__ * 2)) AND ( __PBP__ > 0 )
1918  0150              ;# 1918 "e:\x-sense_svn\xp02\xp02\src\Smoke.c" 1
1918  0150              	NOP
1918  0150              	ENDIF
1918  0150              ;# 1918 "e:\x-sense_svn\xp02\xp02\src\Smoke.c" 1
1918  0150              	IF (250000>=6) AND (250000<( 4 + __PBP__ * 2))  AND ( __PBP__ > 1 )
1918  0150              ;# 1918 "e:\x-sense_svn\xp02\xp02\src\Smoke.c" 1
文件：Smoke.c      编译器版本 HGASM 0202 页次94

1918  0150              	NOP
1918  0150              	ENDIF
1918  0150              ;# 1918 "e:\x-sense_svn\xp02\xp02\src\Smoke.c" 1
1918  0150              	IF (250000>=7) AND (250000<( 4 + __PBP__ * 2))  AND ( __PBP__ > 1 )
1918  0150              ;# 1918 "e:\x-sense_svn\xp02\xp02\src\Smoke.c" 1
1918  0150              	NOP
1918  0150              	ENDIF
1918  0150              ;# 1918 "e:\x-sense_svn\xp02\xp02\src\Smoke.c" 1
1918  0150              	IF (250000>=8) AND (250000<( 4 + __PBP__ * 2))  AND ( __PBP__ > 2 )
1918  0150              ;# 1918 "e:\x-sense_svn\xp02\xp02\src\Smoke.c" 1
1918  0150              	NOP
1918  0150              	ENDIF
1918  0150              ;# 1918 "e:\x-sense_svn\xp02\xp02\src\Smoke.c" 1
1918  0150              	IF (250000==9)  AND ( __PBP__ > 2 )
1918  0150              ;# 1918 "e:\x-sense_svn\xp02\xp02\src\Smoke.c" 1
1918  0150              	NOP
1918  0150              	ENDIF
1918  0150              ;# 1918 "e:\x-sense_svn\xp02\xp02\src\Smoke.c" 1
1918  0150              	IF (250000< ( 8 + __PBP__ * 2)) AND (250000>( 3 + __PBP__ * 2))
1918  0150              ;# 1918 "e:\x-sense_svn\xp02\xp02\src\Smoke.c" 1
1918  0150              	fcall __DELAY3 + ( 7 + __PBP__ * 2) -250000
1918  0150              	ENDIF
1918  0150              ;# 1918 "e:\x-sense_svn\xp02\xp02\src\Smoke.c" 1
1918  0150              	IF (250000< ( 0404h + __PBP__ * 2)) AND (250000>( 7 + __PBP__ * 2))
1918  0150              ;# 1918 "e:\x-sense_svn\xp02\xp02\src\Smoke.c" 1
1918  0150              	MOV A,(250000-( 4 + __PBP__ * 2))/4
1918  0150              ;# 1918 "e:\x-sense_svn\xp02\xp02\src\Smoke.c" 1
1918  0150              	fcall __DELAYX3 + 3 -((250000-( 4 + __PBP__ * 2)) MOD 4) 
1918  0150              	ENDIF
1918  0150              ;# 1918 "e:\x-sense_svn\xp02\xp02\src\Smoke.c" 1
1918  0150              	IF (250000< ( 040bh + __PBP__ * 2)) AND (250000> ( 0403h + __PBP__ * 2))
1918  0150              ;# 1918 "e:\x-sense_svn\xp02\xp02\src\Smoke.c" 1
1918  0150              	MOV A,0 
1918  0150              ;# 1918 "e:\x-sense_svn\xp02\xp02\src\Smoke.c" 1
1918  0150              	fcall __DELAYX6 + ( 040ah + __PBP__ * 2) -250000
1918  0150              	ENDIF
1918  0150              ;# 1918 "e:\x-sense_svn\xp02\xp02\src\Smoke.c" 1
1918  0150              	IF (250000 >= ( 040bh + __PBP__ * 2)) AND ((((250000-( 9 + __PBP__ * 2))%0402h)/4+1)>256)
1918  0150              ;# 1918 "e:\x-sense_svn\xp02\xp02\src\Smoke.c" 1
1918  0150              	MOV A,(250000-( 9 + __PBP__ * 2))/0402h
1918  0150              ;# 1918 "e:\x-sense_svn\xp02\xp02\src\Smoke.c" 1
1918  0150              	MOV _builtin_holtek_delay_2,A
1918  0150              ;# 1918 "e:\x-sense_svn\xp02\xp02\src\Smoke.c" 1
1918  0150              	MOV A,0
1918  0150              ;# 1918 "e:\x-sense_svn\xp02\xp02\src\Smoke.c" 1
1918  0150              	fcall __DELAYY5 +5- (((250000-( 9 + __PBP__ * 2))%0402h)%6) 
1918  0150              	ENDIF
1918  0150              ;# 1918 "e:\x-sense_svn\xp02\xp02\src\Smoke.c" 1
1918  0150              	IF (250000 >= ( 040bh + __PBP__ * 2)) AND ((((250000-( 9 + __PBP__ * 2))%0402h)/4+1)<=256)
1918  0150              ;# 1918 "e:\x-sense_svn\xp02\xp02\src\Smoke.c" 1
1918  0150  0FF3        	MOV A,(250000-( 9 + __PBP__ * 2))/0402h
1918  0151              ;# 1918 "e:\x-sense_svn\xp02\xp02\src\Smoke.c" 1
1918  0151  0080     E  	MOV _builtin_holtek_delay_2,A
1918  0152              ;# 1918 "e:\x-sense_svn\xp02\xp02\src\Smoke.c" 1
1918  0152  0FA8        	MOV A,((250000-( 9 + __PBP__ * 2))%0402h)/4+1
1918  0153              ;# 1918 "e:\x-sense_svn\xp02\xp02\src\Smoke.c" 1
1918  0153              	fcall __DELAYY3 +3-(((250000-( 9 + __PBP__ * 2))%0402h)%4) 
1918  015A              	ENDIF
1919  015A              #line 1919 "e:\x-sense_svn\xp02\xp02\src\Smoke.c"
1919  015A              ;# 1919 "e:\x-sense_svn\xp02\xp02\src\Smoke.c" 1
文件：Smoke.c      编译器版本 HGASM 0202 页次95

1919  015A              	IF 250000>263690
1919  015A              ;# 1919 "e:\x-sense_svn\xp02\xp02\src\Smoke.c" 1
1919  015A              	ERRMESSAGE 'the value 250000of the argument exceeds the maxinum 263690'
1919  015A              	ENDIF
1919  015A              ;# 1919 "e:\x-sense_svn\xp02\xp02\src\Smoke.c" 1
1919  015A              	IF 250000<0
1919  015A              ;# 1919 "e:\x-sense_svn\xp02\xp02\src\Smoke.c" 1
1919  015A              	ERRMESSAGE 'the value 250000 of the argument exceeds the mininum 0'
1919  015A              	ENDIF
1919  015A              ;# 1919 "e:\x-sense_svn\xp02\xp02\src\Smoke.c" 1
1919  015A              	IF 250000==0
1919  015A              ;# 1919 "e:\x-sense_svn\xp02\xp02\src\Smoke.c" 1
1919  015A              	JMP $
1919  015A              	ENDIF
1919  015A              ;# 1919 "e:\x-sense_svn\xp02\xp02\src\Smoke.c" 1
1919  015A              	IF (250000>=1) AND (250000<( 4 + __PBP__ * 2))
1919  015A              ;# 1919 "e:\x-sense_svn\xp02\xp02\src\Smoke.c" 1
1919  015A              	NOP
1919  015A              	ENDIF
1919  015A              ;# 1919 "e:\x-sense_svn\xp02\xp02\src\Smoke.c" 1
1919  015A              	IF (250000>=2) AND (250000<( 4 + __PBP__ * 2))
1919  015A              ;# 1919 "e:\x-sense_svn\xp02\xp02\src\Smoke.c" 1
1919  015A              	NOP
1919  015A              	ENDIF
1919  015A              ;# 1919 "e:\x-sense_svn\xp02\xp02\src\Smoke.c" 1
1919  015A              	IF (250000>=3) AND (250000<( 4 + __PBP__ * 2))
1919  015A              ;# 1919 "e:\x-sense_svn\xp02\xp02\src\Smoke.c" 1
1919  015A              	NOP
1919  015A              	ENDIF
1919  015A              ;# 1919 "e:\x-sense_svn\xp02\xp02\src\Smoke.c" 1
1919  015A              	IF (250000>=4) AND (250000<( 4 + __PBP__ * 2)) AND ( __PBP__ > 0 )
1919  015A              ;# 1919 "e:\x-sense_svn\xp02\xp02\src\Smoke.c" 1
1919  015A              	NOP
1919  015A              	ENDIF
1919  015A              ;# 1919 "e:\x-sense_svn\xp02\xp02\src\Smoke.c" 1
1919  015A              	IF (250000>=5) AND (250000<( 4 + __PBP__ * 2)) AND ( __PBP__ > 0 )
1919  015A              ;# 1919 "e:\x-sense_svn\xp02\xp02\src\Smoke.c" 1
1919  015A              	NOP
1919  015A              	ENDIF
1919  015A              ;# 1919 "e:\x-sense_svn\xp02\xp02\src\Smoke.c" 1
1919  015A              	IF (250000>=6) AND (250000<( 4 + __PBP__ * 2))  AND ( __PBP__ > 1 )
1919  015A              ;# 1919 "e:\x-sense_svn\xp02\xp02\src\Smoke.c" 1
1919  015A              	NOP
1919  015A              	ENDIF
1919  015A              ;# 1919 "e:\x-sense_svn\xp02\xp02\src\Smoke.c" 1
1919  015A              	IF (250000>=7) AND (250000<( 4 + __PBP__ * 2))  AND ( __PBP__ > 1 )
1919  015A              ;# 1919 "e:\x-sense_svn\xp02\xp02\src\Smoke.c" 1
1919  015A              	NOP
1919  015A              	ENDIF
1919  015A              ;# 1919 "e:\x-sense_svn\xp02\xp02\src\Smoke.c" 1
1919  015A              	IF (250000>=8) AND (250000<( 4 + __PBP__ * 2))  AND ( __PBP__ > 2 )
1919  015A              ;# 1919 "e:\x-sense_svn\xp02\xp02\src\Smoke.c" 1
1919  015A              	NOP
1919  015A              	ENDIF
1919  015A              ;# 1919 "e:\x-sense_svn\xp02\xp02\src\Smoke.c" 1
1919  015A              	IF (250000==9)  AND ( __PBP__ > 2 )
1919  015A              ;# 1919 "e:\x-sense_svn\xp02\xp02\src\Smoke.c" 1
1919  015A              	NOP
1919  015A              	ENDIF
1919  015A              ;# 1919 "e:\x-sense_svn\xp02\xp02\src\Smoke.c" 1
文件：Smoke.c      编译器版本 HGASM 0202 页次96

1919  015A              	IF (250000< ( 8 + __PBP__ * 2)) AND (250000>( 3 + __PBP__ * 2))
1919  015A              ;# 1919 "e:\x-sense_svn\xp02\xp02\src\Smoke.c" 1
1919  015A              	fcall __DELAY3 + ( 7 + __PBP__ * 2) -250000
1919  015A              	ENDIF
1919  015A              ;# 1919 "e:\x-sense_svn\xp02\xp02\src\Smoke.c" 1
1919  015A              	IF (250000< ( 0404h + __PBP__ * 2)) AND (250000>( 7 + __PBP__ * 2))
1919  015A              ;# 1919 "e:\x-sense_svn\xp02\xp02\src\Smoke.c" 1
1919  015A              	MOV A,(250000-( 4 + __PBP__ * 2))/4
1919  015A              ;# 1919 "e:\x-sense_svn\xp02\xp02\src\Smoke.c" 1
1919  015A              	fcall __DELAYX3 + 3 -((250000-( 4 + __PBP__ * 2)) MOD 4) 
1919  015A              	ENDIF
1919  015A              ;# 1919 "e:\x-sense_svn\xp02\xp02\src\Smoke.c" 1
1919  015A              	IF (250000< ( 040bh + __PBP__ * 2)) AND (250000> ( 0403h + __PBP__ * 2))
1919  015A              ;# 1919 "e:\x-sense_svn\xp02\xp02\src\Smoke.c" 1
1919  015A              	MOV A,0 
1919  015A              ;# 1919 "e:\x-sense_svn\xp02\xp02\src\Smoke.c" 1
1919  015A              	fcall __DELAYX6 + ( 040ah + __PBP__ * 2) -250000
1919  015A              	ENDIF
1919  015A              ;# 1919 "e:\x-sense_svn\xp02\xp02\src\Smoke.c" 1
1919  015A              	IF (250000 >= ( 040bh + __PBP__ * 2)) AND ((((250000-( 9 + __PBP__ * 2))%0402h)/4+1)>256)
1919  015A              ;# 1919 "e:\x-sense_svn\xp02\xp02\src\Smoke.c" 1
1919  015A              	MOV A,(250000-( 9 + __PBP__ * 2))/0402h
1919  015A              ;# 1919 "e:\x-sense_svn\xp02\xp02\src\Smoke.c" 1
1919  015A              	MOV _builtin_holtek_delay_2,A
1919  015A              ;# 1919 "e:\x-sense_svn\xp02\xp02\src\Smoke.c" 1
1919  015A              	MOV A,0
1919  015A              ;# 1919 "e:\x-sense_svn\xp02\xp02\src\Smoke.c" 1
1919  015A              	fcall __DELAYY5 +5- (((250000-( 9 + __PBP__ * 2))%0402h)%6) 
1919  015A              	ENDIF
1919  015A              ;# 1919 "e:\x-sense_svn\xp02\xp02\src\Smoke.c" 1
1919  015A              	IF (250000 >= ( 040bh + __PBP__ * 2)) AND ((((250000-( 9 + __PBP__ * 2))%0402h)/4+1)<=256)
1919  015A              ;# 1919 "e:\x-sense_svn\xp02\xp02\src\Smoke.c" 1
1919  015A  0FF3        	MOV A,(250000-( 9 + __PBP__ * 2))/0402h
1919  015B              ;# 1919 "e:\x-sense_svn\xp02\xp02\src\Smoke.c" 1
1919  015B  0080     E  	MOV _builtin_holtek_delay_2,A
1919  015C              ;# 1919 "e:\x-sense_svn\xp02\xp02\src\Smoke.c" 1
1919  015C  0FA8        	MOV A,((250000-( 9 + __PBP__ * 2))%0402h)/4+1
1919  015D              ;# 1919 "e:\x-sense_svn\xp02\xp02\src\Smoke.c" 1
1919  015D              	fcall __DELAYY3 +3-(((250000-( 9 + __PBP__ * 2))%0402h)%4) 
1919  0164              	ENDIF
1919  0164  1780     E  	sdz ra
1919  0165  2800     R  	jmp _L194
1921  0166              #line 1921 "e:\x-sense_svn\xp02\xp02\src\Smoke.c"
1921  0166  1F00     E  	clr _SysAO[0]
1921  0167  1F00     E  	clr _SysAO[1]
1921  0168  2800     R  	jmp _L195
1921  0169              _L187:
1931  0169              #line 1931 "e:\x-sense_svn\xp02\xp02\src\Smoke.c"
1931  0169  0F07        	mov a,7
1931  016A  0080     E  	mov _TmrDeleteTimer_2[0],a
1931  016B  1F00     E  	clr _TmrDeleteTimer_2[1]
1931  016C              	fcall _TmrDeleteTimer
1932  0173              #line 1932 "e:\x-sense_svn\xp02\xp02\src\Smoke.c"
1932  0173  0F05        	mov a,5
1932  0174  0080     E  	mov _TmrDeleteTimer_2[0],a
1932  0175  1F00     E  	clr _TmrDeleteTimer_2[1]
1932  0176              	fcall _TmrDeleteTimer
1933  017D              #line 1933 "e:\x-sense_svn\xp02\xp02\src\Smoke.c"
1933  017D  0F0F        	mov a,15
1933  017E  0080     E  	mov _SysAO[0],a
文件：Smoke.c      编译器版本 HGASM 0202 页次97

1933  017F  1F00     E  	clr _SysAO[1]
1933  0180  2800     R  	jmp _L195
1933  0181              _L181:
1954  0181              #line 1954 "e:\x-sense_svn\xp02\xp02\src\Smoke.c"
1954  0181  0F07        	mov a,7
1954  0182  0080     E  	mov _TmrDeleteTimer_2[0],a
1954  0183  1F00     E  	clr _TmrDeleteTimer_2[1]
1954  0184              	fcall _TmrDeleteTimer
1955  018B              #line 1955 "e:\x-sense_svn\xp02\xp02\src\Smoke.c"
1955  018B  0F05        	mov a,5
1955  018C  0080     E  	mov _TmrDeleteTimer_2[0],a
1955  018D  1F00     E  	clr _TmrDeleteTimer_2[1]
1955  018E              	fcall _TmrDeleteTimer
1958  0195              #line 1958 "e:\x-sense_svn\xp02\xp02\src\Smoke.c"
1958  0195  0F32        	mov a,50
1958  0196  0080     E  	mov _SpeakerSendCmd_2[0],a
1958  0197  1F00     E  	clr _SpeakerSendCmd_2[1]
1958  0198  1F00     E  	clr _SpeakerSendCmd_2[2]
1958  0199  1F00     E  	clr _SpeakerSendCmd_2[3]
1958  019A              	fcall _SpeakerSendCmd
1961  01A1              #line 1961 "e:\x-sense_svn\xp02\xp02\src\Smoke.c"
1961  01A1  0F03        	mov a,3
1961  01A2  0080     E  	mov _SysAO[0],a
1961  01A3  1F00     E  	clr _SysAO[1]
1961  01A4  2800     R  	jmp _L195
1961  01A5              _L186:
1972  01A5              #line 1972 "e:\x-sense_svn\xp02\xp02\src\Smoke.c"
1972  01A5  0F07        	mov a,7
1972  01A6  0080     E  	mov _TmrDeleteTimer_2[0],a
1972  01A7  1F00     E  	clr _TmrDeleteTimer_2[1]
1972  01A8              	fcall _TmrDeleteTimer
1973  01AF              #line 1973 "e:\x-sense_svn\xp02\xp02\src\Smoke.c"
1973  01AF  0F05        	mov a,5
1973  01B0  0080     E  	mov _TmrDeleteTimer_2[0],a
1973  01B1  1F00     E  	clr _TmrDeleteTimer_2[1]
1973  01B2              	fcall _TmrDeleteTimer
1974  01B9              #line 1974 "e:\x-sense_svn\xp02\xp02\src\Smoke.c"
1974  01B9  0F08        	mov a,8
1974  01BA  0080     E  	mov _SysAO[0],a
1974  01BB  1F00     E  	clr _SysAO[1]
1974  01BC              _L195:
1976  01BC              #line 1976 "e:\x-sense_svn\xp02\xp02\src\Smoke.c"
1976  01BC  0700     R  	mov a,_SmokeAO[8]
1976  01BD  0200     E  	sub a,_SMOKE_ALARM_LEVEL[0]
1976  01BE  0080     R  	mov _SmokeAO[8],a
1976  01BF  0700     R  	mov a,_SmokeAO[9]
1976  01C0  1200     E  	sbc a,_SMOKE_ALARM_LEVEL[1]
1976  01C1  0080     R  	mov _SmokeAO[9],a
1976  01C2              _L178:
1976  01C2  0003        	ret
1976  01C3              _SmokeMuteMain endp
1976  01C3              #line 1976 "e:\x-sense_svn\xp02\xp02\src\Smoke.c"
1976  01C3              #pragma debug scope 1 1
1976  00BD              @crom	.section 'crom'
1976  00BD              _LC33:
1976  00BD              	db 053h,06dh,06fh,06bh,065h,020h,045h,072h,072h,020h
1976  00C2              	db 04dh,06fh,064h,065h,0ah,00h
1976  00C5              @crom	.section 'crom'
1976  00C5              _LC34:
1976  00C5              	db 0ah,054h,068h,072h,065h,073h,068h,06fh,06ch,064h
文件：Smoke.c      编译器版本 HGASM 0202 页次98

1976  00CA              	db 03ah,025h,064h,0ah,00h
1976  00CD              public _SmokeErrMain
1976  00CD              #pragma debug scope 25 1
1997  00CD              #line 1997 "e:\x-sense_svn\xp02\xp02\src\Smoke.c"
1997  0000              _SmokeErrMain .section 'code'
1997  0000              _SmokeErrMain proc
1997  0000  00              local _SmokeErrMain_2 db 1 dup(?)	; 0,1
2002  0001              #line 2002 "e:\x-sense_svn\xp02\xp02\src\Smoke.c"
2002  0000  0700     E  	mov a,_SysAO[4]
2002  0001  0C01        	xor a,1
2002  0002  0500     E  	or a,_SysAO[5]
2002  0003  3D0A        	sz z
2002  0004  2800     R  	jmp _L199
2002  0005              #line 2002 "e:\x-sense_svn\xp02\xp02\src\Smoke.c"
2002  0005  0700     E  	mov a,_SysAO[4]
2002  0006  0C02        	xor a,2
2002  0007  0500     E  	or a,_SysAO[5]
2002  0008  3D0A        	sz z
2002  0009  2800     R  	jmp _L200
2002  000A  0700     E  	mov a,_SysAO[4]
2002  000B  0C06        	xor a,6
2002  000C  0500     E  	or a,_SysAO[5]
2002  000D  3D0A        	sz z
2002  000E  2800     R  	jmp _L201
2002  000F  0700     E  	mov a,_SysAO[4]
2002  0010  0C1E        	xor a,30
2002  0011  0500     E  	or a,_SysAO[5]
2002  0012  390A        	snz z
2002  0013  2800     R  	jmp _L197
2002  0014  2800     R  	jmp _L209
2002  0015              _L199:
2006  0015              #line 2006 "e:\x-sense_svn\xp02\xp02\src\Smoke.c"
2006  0015  1F00     R  	clr ___SpeakTimeCnt_3366[0]
2006  0016              _L201:
2009  0016              #line 2009 "e:\x-sense_svn\xp02\xp02\src\Smoke.c"
2009  0016  0F00     R  	mov a,low offset _LC33
2009  0017  0080     E  	mov _printf_2[0],a
2009  0018  0F00     R  	mov a,high offset _LC33
2009  0019  0080     E  	mov _printf_2[1],a
2009  001A              	fcall _printf
2010  0021              #line 2010 "e:\x-sense_svn\xp02\xp02\src\Smoke.c"
2010  0021  1F00     R  	clr ___CheckTimeCnt_3365[0]
2012  0022              #line 2012 "e:\x-sense_svn\xp02\xp02\src\Smoke.c"
2012  0022  0F25        	mov a,37
2012  0023  0080     E  	mov _SpeakerSendCmd_2[0],a
2012  0024  1F00     E  	clr _SpeakerSendCmd_2[1]
2012  0025  1F00     E  	clr _SpeakerSendCmd_2[2]
2012  0026  1F00     E  	clr _SpeakerSendCmd_2[3]
2012  0027              	fcall _SpeakerSendCmd
2016  002E              #line 2016 "e:\x-sense_svn\xp02\xp02\src\Smoke.c"
2016  002E              	fcall _GetRfPairedMode
2016  0035  0700     E  	mov a,ra
2016  0036  0C01        	xor a,1
2016  0037  0500     E  	or a,rb
2016  0038  390A        	snz z
2016  0039  2800     R  	jmp _L203
2018  003A              #line 2018 "e:\x-sense_svn\xp02\xp02\src\Smoke.c"
2018  003A  0F02        	mov a,2
2018  003B  0080     E  	mov _UartSendMsg_2[3],a
2018  003C  0F05        	mov a,5
文件：Smoke.c      编译器版本 HGASM 0202 页次99

2018  003D  0080     E  	mov _UartSendMsg_2[2],a
2018  003E  0F03        	mov a,3
2018  003F  0080     E  	mov _UartSendMsg_2[0],a
2018  0040  1F00     E  	clr _UartSendMsg_2[1]
2018  0041              	fcall _UartSendMsg
2018  0048              _L203:
2022  0048              #line 2022 "e:\x-sense_svn\xp02\xp02\src\Smoke.c"
2022  0048  0F02        	mov a,2
2022  0049  0080     E  	mov _ErrIndex_2[1],a
2022  004A  0F01        	mov a,1
2022  004B  0080     E  	mov _ErrIndex_2[0],a
2022  004C  0F01        	mov a,1
2022  004D              	fcall _ErrIndex
2023  0054              #line 2023 "e:\x-sense_svn\xp02\xp02\src\Smoke.c"
2023  0054  2800     R  	jmp _L197
2023  0055              _L200:
2026  0055              #line 2026 "e:\x-sense_svn\xp02\xp02\src\Smoke.c"
2026  0055              	fcall _SmokeSensorCheck
2026  005C  0700     E  	mov a,ra
2026  005D  0C01        	xor a,1
2026  005E  0500     E  	or a,rb
2026  005F  390A        	snz z
2026  0060  2800     R  	jmp _L204
2028  0061              #line 2028 "e:\x-sense_svn\xp02\xp02\src\Smoke.c"
2028  0061  1400     R  	inca ___CheckTimeCnt_3365[0]
2028  0062  0080     E  	mov ra,a
2028  0063  0700     E  	mov a,ra
2028  0064  0080     R  	mov ___CheckTimeCnt_3365[0],a
2028  0065  0F05        	mov a,5
2028  0066  0200     E  	sub a,ra
2028  0067  3C0A        	sz c
2028  0068  2800     R  	jmp _L205
2031  0069              #line 2031 "e:\x-sense_svn\xp02\xp02\src\Smoke.c"
2031  0069  0700     R  	mov a,___SpeakTimeCnt_3366[0]
2031  006A  0080     R  	mov _SmokeErrMain_2[0],a
2031  006B  0F04        	mov a,4
2031  006C  0200     R  	sub a,_SmokeErrMain_2[0]
2031  006D  3C0A        	sz c
2031  006E  2800     R  	jmp _L208
2035  006F              #line 2035 "e:\x-sense_svn\xp02\xp02\src\Smoke.c"
2035  006F  0F12        	mov a,18
2035  0070  0200     R  	sub a,_SmokeErrMain_2[0]
2035  0071  3C0A        	sz c
2035  0072  2800     R  	jmp _L207
2037  0073              #line 2037 "e:\x-sense_svn\xp02\xp02\src\Smoke.c"
2037  0073  0F05        	mov a,5
2037  0074  0080     R  	mov ___SpeakTimeCnt_3366[0],a
2037  0075              _L208:
2038  0075              #line 2038 "e:\x-sense_svn\xp02\xp02\src\Smoke.c"
2038  0075  0F25        	mov a,37
2038  0076  0080     E  	mov _SpeakerSendCmd_2[0],a
2038  0077  1F00     E  	clr _SpeakerSendCmd_2[1]
2038  0078  1F00     E  	clr _SpeakerSendCmd_2[2]
2038  0079  1F00     E  	clr _SpeakerSendCmd_2[3]
2038  007A              	fcall _SpeakerSendCmd
2038  0081              _L207:
2040  0081              #line 2040 "e:\x-sense_svn\xp02\xp02\src\Smoke.c"
2040  0081  1480     R  	inc ___SpeakTimeCnt_3366[0]
2042  0082              #line 2042 "e:\x-sense_svn\xp02\xp02\src\Smoke.c"
2042  0082  1F00     R  	clr ___CheckTimeCnt_3365[0]
文件：Smoke.c      编译器版本 HGASM 0202 页次100

2043  0083              #line 2043 "e:\x-sense_svn\xp02\xp02\src\Smoke.c"
2043  0083  0F02        	mov a,2
2043  0084  0080     E  	mov _ErrIndex_2[1],a
2043  0085  0F01        	mov a,1
2043  0086  0080     E  	mov _ErrIndex_2[0],a
2043  0087  0F01        	mov a,1
2043  0088              	fcall _ErrIndex
2043  008F  2800     R  	jmp _L205
2043  0090              _L204:
2048  0090              #line 2048 "e:\x-sense_svn\xp02\xp02\src\Smoke.c"
2048  0090  0F1E        	mov a,30
2048  0091  0080     E  	mov _SysteSetSig_2[0],a
2048  0092  1F00     E  	clr _SysteSetSig_2[1]
2048  0093              	fcall _SysteSetSig
2048  009A              _L205:
2050  009A              #line 2050 "e:\x-sense_svn\xp02\xp02\src\Smoke.c"
2050  009A  0700     R  	mov a,_SmokeAO[8]
2050  009B  0080     E  	mov _printf_2[2],a
2050  009C  0700     R  	mov a,_SmokeAO[9]
2050  009D  0080     E  	mov _printf_2[3],a
2050  009E  0F00     R  	mov a,low offset _LC34
2050  009F  0080     E  	mov _printf_2[0],a
2050  00A0  0F00     R  	mov a,high offset _LC34
2050  00A1  0080     E  	mov _printf_2[1],a
2050  00A2              	fcall _printf
2051  00A9              #line 2051 "e:\x-sense_svn\xp02\xp02\src\Smoke.c"
2051  00A9  0700     R  	mov a,_SmokeAO[1]
2051  00AA  0080     E  	mov _printf_2[2],a
2051  00AB  0700     R  	mov a,_SmokeAO[2]
2051  00AC  0080     E  	mov _printf_2[3],a
2051  00AD  0F00     R  	mov a,low offset _LC29
2051  00AE  0080     E  	mov _printf_2[0],a
2051  00AF  0F00     R  	mov a,high offset _LC29
2051  00B0  0080     E  	mov _printf_2[1],a
2051  00B1              	fcall _printf
2052  00B8              #line 2052 "e:\x-sense_svn\xp02\xp02\src\Smoke.c"
2052  00B8  0700     R  	mov a,_SmokeAO[3]
2052  00B9  0080     E  	mov _printf_2[2],a
2052  00BA  0700     R  	mov a,_SmokeAO[4]
2052  00BB  0080     E  	mov _printf_2[3],a
2052  00BC  0F00     R  	mov a,low offset _LC30
2052  00BD  0080     E  	mov _printf_2[0],a
2052  00BE  0F00     R  	mov a,high offset _LC30
2052  00BF  0080     E  	mov _printf_2[1],a
2052  00C0              	fcall _printf
2053  00C7              #line 2053 "e:\x-sense_svn\xp02\xp02\src\Smoke.c"
2053  00C7  2800     R  	jmp _L197
2053  00C8              _L209:
2056  00C8              #line 2056 "e:\x-sense_svn\xp02\xp02\src\Smoke.c"
2056  00C8  1F00     E  	clr _SysAO[0]
2056  00C9  1F00     E  	clr _SysAO[1]
2058  00CA              #line 2058 "e:\x-sense_svn\xp02\xp02\src\Smoke.c"
2058  00CA              	fcall _GetRfPairedMode
2058  00D1  0700     E  	mov a,ra
2058  00D2  0C01        	xor a,1
2058  00D3  0500     E  	or a,rb
2058  00D4  390A        	snz z
2058  00D5  2800     R  	jmp _L197
2060  00D6              #line 2060 "e:\x-sense_svn\xp02\xp02\src\Smoke.c"
2060  00D6  0F06        	mov a,6
文件：Smoke.c      编译器版本 HGASM 0202 页次101

2060  00D7  0080     E  	mov _UartSendMsg_2[3],a
2060  00D8  0F05        	mov a,5
2060  00D9  0080     E  	mov _UartSendMsg_2[2],a
2060  00DA  0F03        	mov a,3
2060  00DB  0080     E  	mov _UartSendMsg_2[0],a
2060  00DC  1F00     E  	clr _UartSendMsg_2[1]
2060  00DD              	fcall _UartSendMsg
2060  00E4              _L197:
2060  00E4  0003        	ret
2060  00E5              _SmokeErrMain endp
2060  00E5              #line 2060 "e:\x-sense_svn\xp02\xp02\src\Smoke.c"
2060  00E5              #pragma debug scope 1 1
2060  00CD              @crom	.section 'crom'
2060  00CD              _LC35:
2060  00CD              	db 06eh,065h,074h,020h,073h,06dh,06fh,06bh,065h,020h
2060  00D2              	db 061h,06ch,061h,072h,06dh,0ah,00h
2060  00D5              public _RfSmokeAlarmMain
2060  00D5              #pragma debug scope 26 1
2079  00D5              #line 2079 "e:\x-sense_svn\xp02\xp02\src\Smoke.c"
2079  0000              _RfSmokeAlarmMain .section 'code'
2079  0000              _RfSmokeAlarmMain proc
2079  0000  00              local _RfSmokeAlarmMain_2 db 1 dup(?)	; 0,1
2085  0001              #line 2085 "e:\x-sense_svn\xp02\xp02\src\Smoke.c"
2085  0000  0700     E  	mov a,_SysAO[4]
2085  0001  0C01        	xor a,1
2085  0002  0500     E  	or a,_SysAO[5]
2085  0003  3D0A        	sz z
2085  0004  2800     R  	jmp _L212
2085  0005              #line 2085 "e:\x-sense_svn\xp02\xp02\src\Smoke.c"
2085  0005  0700     E  	mov a,_SysAO[4]
2085  0006  0C06        	xor a,6
2085  0007  0500     E  	or a,_SysAO[5]
2085  0008  3D0A        	sz z
2085  0009  2800     R  	jmp _L213
2085  000A  0700     E  	mov a,_SysAO[4]
2085  000B  0C14        	xor a,20
2085  000C  0500     E  	or a,_SysAO[5]
2085  000D  3D0A        	sz z
2085  000E  2800     R  	jmp _L214
2085  000F  0700     E  	mov a,_SysAO[4]
2085  0010  0C15        	xor a,21
2085  0011  0500     E  	or a,_SysAO[5]
2085  0012  3D0A        	sz z
2085  0013  2800     R  	jmp _L215
2085  0014  0700     E  	mov a,_SysAO[4]
2085  0015  0C16        	xor a,22
2085  0016  0500     E  	or a,_SysAO[5]
2085  0017  3D0A        	sz z
2085  0018  2800     R  	jmp _L216
2085  0019  0700     E  	mov a,_SysAO[4]
2085  001A  0C22        	xor a,34
2085  001B  0500     E  	or a,_SysAO[5]
2085  001C  3D0A        	sz z
2085  001D  2800     R  	jmp _L217
2085  001E  0700     E  	mov a,_SysAO[4]
2085  001F  0C3E        	xor a,62
2085  0020  0500     E  	or a,_SysAO[5]
2085  0021  390A        	snz z
2085  0022  2800     R  	jmp _L210
2186  0023              #line 2186 "e:\x-sense_svn\xp02\xp02\src\Smoke.c"
文件：Smoke.c      编译器版本 HGASM 0202 页次102

2186  0023  3514        	clr [20].2
2187  0024              #line 2187 "e:\x-sense_svn\xp02\xp02\src\Smoke.c"
2187  0024  3618        	clr [24].4
2188  0025              #line 2188 "e:\x-sense_svn\xp02\xp02\src\Smoke.c"
2188  0025  3294        	set [20].5
2188  0026  361B        	clr [27].4
2189  0027              #line 2189 "e:\x-sense_svn\xp02\xp02\src\Smoke.c"
2189  0027  0F05        	mov a,5
2189  0028  0080     E  	mov _TmrDeleteTimer_2[0],a
2189  0029  1F00     E  	clr _TmrDeleteTimer_2[1]
2189  002A              	fcall _TmrDeleteTimer
2192  0031              #line 2192 "e:\x-sense_svn\xp02\xp02\src\Smoke.c"
2192  0031  0F17        	mov a,23
2192  0032  0080     E  	mov _RfAO[11],a
2193  0033              #line 2193 "e:\x-sense_svn\xp02\xp02\src\Smoke.c"
2193  0033  0F34        	mov a,52
2193  0034  0080     E  	mov _SpeakerSendCmd_2[0],a
2193  0035  1F00     E  	clr _SpeakerSendCmd_2[1]
2193  0036  1F00     E  	clr _SpeakerSendCmd_2[2]
2193  0037  1F00     E  	clr _SpeakerSendCmd_2[3]
2193  0038  2800     R  	jmp _L224
2193  0039              _L212:
2088  0039              #line 2088 "e:\x-sense_svn\xp02\xp02\src\Smoke.c"
2088  0039  0F00     R  	mov a,low offset _LC35
2088  003A  0080     E  	mov _printf_2[0],a
2088  003B  0F00     R  	mov a,high offset _LC35
2088  003C  0080     E  	mov _printf_2[1],a
2088  003D              	fcall _printf
2089  0044              #line 2089 "e:\x-sense_svn\xp02\xp02\src\Smoke.c"
2089  0044  1F00     R  	clr ___TimeoutCnt_3376[0]
2092  0045              #line 2092 "e:\x-sense_svn\xp02\xp02\src\Smoke.c"
2092  0045  1F00     R  	clr ___T3TimeCnt_3377[0]
2092  0046  2800     R  	jmp _L225
2092  0047              _L215:
2098  0047              #line 2098 "e:\x-sense_svn\xp02\xp02\src\Smoke.c"
2098  0047  1400     R  	inca ___TimeoutCnt_3376[0]
2098  0048  0080     R  	mov _RfSmokeAlarmMain_2[0],a
2098  0049  0700     R  	mov a,_RfSmokeAlarmMain_2[0]
2098  004A  0080     R  	mov ___TimeoutCnt_3376[0],a
2098  004B  0F05        	mov a,5
2098  004C  0200     R  	sub a,_RfSmokeAlarmMain_2[0]
2098  004D  3C0A        	sz c
2098  004E  2800     R  	jmp _L219
2100  004F              #line 2100 "e:\x-sense_svn\xp02\xp02\src\Smoke.c"
2100  004F  1F00     R  	clr ___TimeoutCnt_3376[0]
2101  0050              #line 2101 "e:\x-sense_svn\xp02\xp02\src\Smoke.c"
2101  0050  3294        	set [20].5
2101  0051  361B        	clr [27].4
2102  0052              #line 2102 "e:\x-sense_svn\xp02\xp02\src\Smoke.c"
2102  0052  3618        	clr [24].4
2103  0053              #line 2103 "e:\x-sense_svn\xp02\xp02\src\Smoke.c"
2103  0053  3514        	clr [20].2
2105  0054              #line 2105 "e:\x-sense_svn\xp02\xp02\src\Smoke.c"
2105  0054              	fcall _CoAlarmCheck
2106  005B              #line 2106 "e:\x-sense_svn\xp02\xp02\src\Smoke.c"
2106  005B              	fcall _SmokeAlarmCheck
2108  0062              #line 2108 "e:\x-sense_svn\xp02\xp02\src\Smoke.c"
2108  0062  0F05        	mov a,5
2108  0063  0080     E  	mov _TmrDeleteTimer_2[0],a
2108  0064  1F00     E  	clr _TmrDeleteTimer_2[1]
文件：Smoke.c      编译器版本 HGASM 0202 页次103

2108  0065              	fcall _TmrDeleteTimer
2110  006C              #line 2110 "e:\x-sense_svn\xp02\xp02\src\Smoke.c"
2110  006C  1400     R  	inca ___T3TimeCnt_3377[0]
2110  006D  0080     E  	mov ra,a
2111  006E              #line 2111 "e:\x-sense_svn\xp02\xp02\src\Smoke.c"
2111  006E  0F0A        	mov a,10
2111  006F  0200     E  	sub a,ra
2111  0070  380A        	snz c
2111  0071  2800     R  	jmp _L220
2110  0072              #line 2110 "e:\x-sense_svn\xp02\xp02\src\Smoke.c"
2110  0072  0700     E  	mov a,ra
2110  0073  0080     R  	mov ___T3TimeCnt_3377[0],a
2110  0074  2800     R  	jmp _L221
2110  0075              _L220:
2113  0075              #line 2113 "e:\x-sense_svn\xp02\xp02\src\Smoke.c"
2113  0075  0F09        	mov a,9
2113  0076  0080     R  	mov ___T3TimeCnt_3377[0],a
2113  0077              _L221:
2115  0077              #line 2115 "e:\x-sense_svn\xp02\xp02\src\Smoke.c"
2115  0077  0700     R  	mov a,___T3TimeCnt_3377[0]
2115  0078  0080     R  	mov _SpeakSmokeAlarmVoice_2[0],a
2115  0079  0700     E  	mov a,_RfAO[11]
2115  007A              	fcall _SpeakSmokeAlarmVoice
2118  0081              #line 2118 "e:\x-sense_svn\xp02\xp02\src\Smoke.c"
2118  0081  0F03        	mov a,3
2118  0082  0080     E  	mov _TmrInsertTimer_2[4],a
2118  0083  1F00     E  	clr _TmrInsertTimer_2[5]
2118  0084              _L223:
2118  0084  0F32        	mov a,50
2118  0085  0080     E  	mov _TmrInsertTimer_2[2],a
2118  0086  1F00     E  	clr _TmrInsertTimer_2[3]
2118  0087  0F05        	mov a,5
2118  0088  0080     E  	mov _TmrInsertTimer_2[0],a
2118  0089  1F00     E  	clr _TmrInsertTimer_2[1]
2118  008A              	fcall _TmrInsertTimer
2118  0091  2800     R  	jmp _L210
2118  0092              _L219:
2122  0092              #line 2122 "e:\x-sense_svn\xp02\xp02\src\Smoke.c"
2122  0092  1F00     E  	clr ra
2122  0093  3A94        	snz [20].5
2122  0094  3000     E  	set ra.5
2122  0095  3694        	clr [20].5
2122  0096  0700     E  	mov a,ra
2122  0097  0594        	orm a,[20]
2122  0098  1F00     E  	clr ra
2122  0099  3A1B        	snz [27].4
2122  009A  3000     E  	set ra.4
2122  009B  361B        	clr [27].4
2122  009C  0700     E  	mov a,ra
2122  009D  059B        	orm a,[27]
2123  009E              #line 2123 "e:\x-sense_svn\xp02\xp02\src\Smoke.c"
2123  009E  3C00     R  	sz _RfSmokeAlarmMain_2[0].0
2123  009F  2800     R  	jmp _L222
2125  00A0              #line 2125 "e:\x-sense_svn\xp02\xp02\src\Smoke.c"
2125  00A0  3514        	clr [20].2
2126  00A1              #line 2126 "e:\x-sense_svn\xp02\xp02\src\Smoke.c"
2126  00A1  3218        	set [24].4
2126  00A2  2800     R  	jmp _L210
2126  00A3              _L222:
2130  00A3              #line 2130 "e:\x-sense_svn\xp02\xp02\src\Smoke.c"
文件：Smoke.c      编译器版本 HGASM 0202 页次104

2130  00A3  3114        	set [20].2
2131  00A4              #line 2131 "e:\x-sense_svn\xp02\xp02\src\Smoke.c"
2131  00A4  3618        	clr [24].4
2131  00A5  2800     R  	jmp _L210
2131  00A6              _L216:
2137  00A6              #line 2137 "e:\x-sense_svn\xp02\xp02\src\Smoke.c"
2137  00A6  0F05        	mov a,5
2137  00A7  0080     E  	mov _TmrDeleteTimer_2[0],a
2137  00A8  1F00     E  	clr _TmrDeleteTimer_2[1]
2137  00A9              	fcall _TmrDeleteTimer
2137  00B0              _L225:
2138  00B0              #line 2138 "e:\x-sense_svn\xp02\xp02\src\Smoke.c"
2138  00B0  0F02        	mov a,2
2138  00B1  0080     E  	mov _TmrInsertTimer_2[4],a
2138  00B2  1F00     E  	clr _TmrInsertTimer_2[5]
2138  00B3  2800     R  	jmp _L223
2138  00B4              _L214:
2142  00B4              #line 2142 "e:\x-sense_svn\xp02\xp02\src\Smoke.c"
2142  00B4  3514        	clr [20].2
2143  00B5              #line 2143 "e:\x-sense_svn\xp02\xp02\src\Smoke.c"
2143  00B5  3618        	clr [24].4
2144  00B6              #line 2144 "e:\x-sense_svn\xp02\xp02\src\Smoke.c"
2144  00B6  3294        	set [20].5
2144  00B7  361B        	clr [27].4
2145  00B8              #line 2145 "e:\x-sense_svn\xp02\xp02\src\Smoke.c"
2145  00B8  0F05        	mov a,5
2145  00B9  0080     E  	mov _TmrDeleteTimer_2[0],a
2145  00BA  1F00     E  	clr _TmrDeleteTimer_2[1]
2145  00BB              	fcall _TmrDeleteTimer
2147  00C2              #line 2147 "e:\x-sense_svn\xp02\xp02\src\Smoke.c"
2147  00C2  0F17        	mov a,23
2147  00C3  0080     E  	mov _RfAO[11],a
2150  00C4              #line 2150 "e:\x-sense_svn\xp02\xp02\src\Smoke.c"
2150  00C4  0F03        	mov a,3
2150  00C5  0080     E  	mov _SysAO[0],a
2150  00C6  1F00     E  	clr _SysAO[1]
2151  00C7              #line 2151 "e:\x-sense_svn\xp02\xp02\src\Smoke.c"
2151  00C7  2800     R  	jmp _L210
2151  00C8              _L217:
2156  00C8              #line 2156 "e:\x-sense_svn\xp02\xp02\src\Smoke.c"
2156  00C8  3514        	clr [20].2
2157  00C9              #line 2157 "e:\x-sense_svn\xp02\xp02\src\Smoke.c"
2157  00C9  3618        	clr [24].4
2158  00CA              #line 2158 "e:\x-sense_svn\xp02\xp02\src\Smoke.c"
2158  00CA  3294        	set [20].5
2158  00CB  361B        	clr [27].4
2159  00CC              #line 2159 "e:\x-sense_svn\xp02\xp02\src\Smoke.c"
2159  00CC  0F05        	mov a,5
2159  00CD  0080     E  	mov _TmrDeleteTimer_2[0],a
2159  00CE  1F00     E  	clr _TmrDeleteTimer_2[1]
2159  00CF              	fcall _TmrDeleteTimer
2161  00D6              #line 2161 "e:\x-sense_svn\xp02\xp02\src\Smoke.c"
2161  00D6  0F17        	mov a,23
2161  00D7  0080     E  	mov _RfAO[11],a
2164  00D8              #line 2164 "e:\x-sense_svn\xp02\xp02\src\Smoke.c"
2164  00D8  0F08        	mov a,8
2164  00D9  0080     E  	mov _SysAO[0],a
2164  00DA  1F00     E  	clr _SysAO[1]
2165  00DB              #line 2165 "e:\x-sense_svn\xp02\xp02\src\Smoke.c"
2165  00DB  2800     R  	jmp _L210
文件：Smoke.c      编译器版本 HGASM 0202 页次105

2165  00DC              _L213:
2169  00DC              #line 2169 "e:\x-sense_svn\xp02\xp02\src\Smoke.c"
2169  00DC  3514        	clr [20].2
2170  00DD              #line 2170 "e:\x-sense_svn\xp02\xp02\src\Smoke.c"
2170  00DD  3618        	clr [24].4
2171  00DE              #line 2171 "e:\x-sense_svn\xp02\xp02\src\Smoke.c"
2171  00DE  3294        	set [20].5
2171  00DF  361B        	clr [27].4
2172  00E0              #line 2172 "e:\x-sense_svn\xp02\xp02\src\Smoke.c"
2172  00E0  0F05        	mov a,5
2172  00E1  0080     E  	mov _TmrDeleteTimer_2[0],a
2172  00E2  1F00     E  	clr _TmrDeleteTimer_2[1]
2172  00E3              	fcall _TmrDeleteTimer
2175  00EA              #line 2175 "e:\x-sense_svn\xp02\xp02\src\Smoke.c"
2175  00EA  1F00     E  	clr _UartSendMsg_2[3]
2175  00EB  0F0B        	mov a,11
2175  00EC  0080     E  	mov _UartSendMsg_2[2],a
2175  00ED  0F03        	mov a,3
2175  00EE  0080     E  	mov _UartSendMsg_2[0],a
2175  00EF  1F00     E  	clr _UartSendMsg_2[1]
2175  00F0              	fcall _UartSendMsg
2179  00F7              #line 2179 "e:\x-sense_svn\xp02\xp02\src\Smoke.c"
2179  00F7  0F17        	mov a,23
2179  00F8  0080     E  	mov _RfAO[11],a
2180  00F9              #line 2180 "e:\x-sense_svn\xp02\xp02\src\Smoke.c"
2180  00F9  0F30        	mov a,48
2180  00FA  0080     E  	mov _SpeakerSendCmd_2[0],a
2180  00FB  1F00     E  	clr _SpeakerSendCmd_2[1]
2180  00FC  1F00     E  	clr _SpeakerSendCmd_2[2]
2180  00FD  1F00     E  	clr _SpeakerSendCmd_2[3]
2180  00FE              _L224:
2193  00FE              #line 2193 "e:\x-sense_svn\xp02\xp02\src\Smoke.c"
2193  00FE              	fcall _SpeakerSendCmd
2195  0105              #line 2195 "e:\x-sense_svn\xp02\xp02\src\Smoke.c"
2195  0105  1F00     E  	clr _SysAO[0]
2195  0106  1F00     E  	clr _SysAO[1]
2195  0107              _L210:
2195  0107  0003        	ret
2195  0108              _RfSmokeAlarmMain endp
2195  0108              #line 2195 "e:\x-sense_svn\xp02\xp02\src\Smoke.c"
2195  0108              #pragma debug scope 1 1
2195  0000              @HCCINIT	.section 'data'
2082  0000              #line 2082 "e:\x-sense_svn\xp02\xp02\src\Smoke.c"
2082  0000              @HCCINIT___T3TimeCnt_3377 .section 'data'
2082  0000              ___T3TimeCnt_3377 label byte
2082  0000              #pragma debug variable 8 26 ___T3TimeCnt_3377 "T3TimeCnt"
2082  0000              	db 0
2082  0000              @ROMDATA_BASE .section inpage 'code'
2082  0000              	db 0
2082  0001              @HCCINIT___T3TimeCnt_3377 .section 'data'
2080  0001              #line 2080 "e:\x-sense_svn\xp02\xp02\src\Smoke.c"
2080  0000              @HCCINIT___TimeoutCnt_3376 .section 'data'
2080  0000              ___TimeoutCnt_3376 label byte
2080  0000              #pragma debug variable 8 26 ___TimeoutCnt_3376 "TimeoutCnt"
2080  0000              	db 0
2080  0001              @ROMDATA_BASE .section inpage 'code'
2080  0001              	db 0
2080  0001              @HCCINIT___TimeoutCnt_3376 .section 'data'
1998  0001              #line 1998 "e:\x-sense_svn\xp02\xp02\src\Smoke.c"
1998  0000              @HCCINIT___CheckTimeCnt_3365 .section 'data'
文件：Smoke.c      编译器版本 HGASM 0202 页次106

1998  0000              ___CheckTimeCnt_3365 label byte
1998  0000              #pragma debug variable 8 25 ___CheckTimeCnt_3365 "CheckTimeCnt"
1998  0000              	db 0
1998  0001              @ROMDATA_BASE .section inpage 'code'
1998  0001              	db 0
1998  0001              @HCCINIT___CheckTimeCnt_3365 .section 'data'
2000  0001              #line 2000 "e:\x-sense_svn\xp02\xp02\src\Smoke.c"
2000  0000              @HCCINIT___SpeakTimeCnt_3366 .section 'data'
2000  0000              ___SpeakTimeCnt_3366 label byte
2000  0000              #pragma debug variable 8 25 ___SpeakTimeCnt_3366 "SpeakTimeCnt"
2000  0000              	db 0
2000  0002              @ROMDATA_BASE .section inpage 'code'
2000  0002              	db 0
2000  0001              @HCCINIT___SpeakTimeCnt_3366 .section 'data'
1826  0001              #line 1826 "e:\x-sense_svn\xp02\xp02\src\Smoke.c"
1826  0000              @HCCINIT___CoCheckCnt_3346 .section 'data'
1826  0000              ___CoCheckCnt_3346 label byte
1826  0000              #pragma debug variable 8 24 ___CoCheckCnt_3346 "CoCheckCnt"
1826  0000              	db 0
1826  0002              @ROMDATA_BASE .section inpage 'code'
1826  0002              	db 0
1826  0001              @HCCINIT___CoCheckCnt_3346 .section 'data'
1824  0001              #line 1824 "e:\x-sense_svn\xp02\xp02\src\Smoke.c"
1824  0000              @HCCINIT___MuteTimeCnt_3345 .section 'data'
1824  0000              ___MuteTimeCnt_3345 label byte
1824  0000              #pragma debug variable 8 24 ___MuteTimeCnt_3345 "MuteTimeCnt"
1824  0000              	db 0
1824  0003              @ROMDATA_BASE .section inpage 'code'
1824  0003              	db 0
1824  0001              @HCCINIT___MuteTimeCnt_3345 .section 'data'
1823  0001              #line 1823 "e:\x-sense_svn\xp02\xp02\src\Smoke.c"
1823  0000              @HCCINIT___TimeoutCnt_3344 .section 'data'
1823  0000              ___TimeoutCnt_3344 label byte
1823  0000              #pragma debug variable 8 24 ___TimeoutCnt_3344 "TimeoutCnt"
1823  0000              	db 0
1823  0003              @ROMDATA_BASE .section inpage 'code'
1823  0003              	db 0
1823  0001              @HCCINIT___TimeoutCnt_3344 .section 'data'
1709  0001              #line 1709 "e:\x-sense_svn\xp02\xp02\src\Smoke.c"
1709  0000              @HCCINIT___T3TimeCnt_3328 .section 'data'
1709  0000              ___T3TimeCnt_3328 label byte
1709  0000              #pragma debug variable 8 23 ___T3TimeCnt_3328 "T3TimeCnt"
1709  0000              	db 0
1709  0004              @ROMDATA_BASE .section inpage 'code'
1709  0004              	db 0
1709  0001              @HCCINIT___T3TimeCnt_3328 .section 'data'
1707  0001              #line 1707 "e:\x-sense_svn\xp02\xp02\src\Smoke.c"
1707  0000              @HCCINIT___TimeoutCnt_3327 .section 'data'
1707  0000              ___TimeoutCnt_3327 label byte
1707  0000              #pragma debug variable 8 23 ___TimeoutCnt_3327 "TimeoutCnt"
1707  0000              	db 0
1707  0004              @ROMDATA_BASE .section inpage 'code'
1707  0004              	db 0
1707  0001              @HCCINIT___TimeoutCnt_3327 .section 'data'
1554  0001              #line 1554 "e:\x-sense_svn\xp02\xp02\src\Smoke.c"
1554  0000              @HCCINIT___ErrFlag_3309 .section 'data'
1554  0000              ___ErrFlag_3309 label byte
1554  0000              #pragma debug variable 12 22 ___ErrFlag_3309 "ErrFlag"
1554  0000              	db 0
1554  0005              @ROMDATA_BASE .section inpage 'code'
文件：Smoke.c      编译器版本 HGASM 0202 页次107

1554  0005              	db 0
1554  0001              @HCCINIT___ErrFlag_3309 .section 'data'
1554  0001              	db 0
1554  0005              @ROMDATA_BASE .section inpage 'code'
1554  0005              	db 0
1554  0002              @HCCINIT___ErrFlag_3309 .section 'data'
1556  0002              #line 1556 "e:\x-sense_svn\xp02\xp02\src\Smoke.c"
1556  0000              @HCCINIT___IntervalTimeoutCnt_3311 .section 'data'
1556  0000              ___IntervalTimeoutCnt_3311 label byte
1556  0000              #pragma debug variable 8 22 ___IntervalTimeoutCnt_3311 "IntervalTimeoutCnt"
1556  0000              	db 0
1556  0006              @ROMDATA_BASE .section inpage 'code'
1556  0006              	db 0
1556  0001              @HCCINIT___IntervalTimeoutCnt_3311 .section 'data'
1555  0001              #line 1555 "e:\x-sense_svn\xp02\xp02\src\Smoke.c"
1555  0000              @HCCINIT___TimeoutCnt_3310 .section 'data'
1555  0000              ___TimeoutCnt_3310 label byte
1555  0000              #pragma debug variable 8 22 ___TimeoutCnt_3310 "TimeoutCnt"
1555  0000              	db 0
1555  0006              @ROMDATA_BASE .section inpage 'code'
1555  0006              	db 0
1555  0001              @HCCINIT___TimeoutCnt_3310 .section 'data'
1392  0001              #line 1392 "e:\x-sense_svn\xp02\xp02\src\Smoke.c"
1392  0000              @HCCINIT___i_3293 .section 'data'
1392  0000              ___i_3293 label byte
1392  0000              #pragma debug variable 8 21 ___i_3293 "i"
1392  0000              	db 0
1392  0007              @ROMDATA_BASE .section inpage 'code'
1392  0007              	db 0
1392  0001              @HCCINIT___i_3293 .section 'data'
1395  0001              #line 1395 "e:\x-sense_svn\xp02\xp02\src\Smoke.c"
1395  0000              @HCCINIT___SmokeCaliData_3296 .section 'data'
1395  0000              ___SmokeCaliData_3296 label byte
1395  0000              #pragma debug variable 14 21 ___SmokeCaliData_3296 "SmokeCaliData"
1395  0000              	db 0
1395  0007              @ROMDATA_BASE .section inpage 'code'
1395  0007              	db 0
1395  0001              @HCCINIT___SmokeCaliData_3296 .section 'data'
1395  0001              	db 0
1395  0008              @ROMDATA_BASE .section inpage 'code'
1395  0008              	db 0
1395  0002              @HCCINIT___SmokeCaliData_3296 .section 'data'
1395  0002              	db 0
1395  0008              @ROMDATA_BASE .section inpage 'code'
1395  0008              	db 0
1395  0003              @HCCINIT___SmokeCaliData_3296 .section 'data'
1395  0003              	db 0
1395  0009              @ROMDATA_BASE .section inpage 'code'
1395  0009              	db 0
1395  0004              @HCCINIT___SmokeCaliData_3296 .section 'data'
1199  0004              #line 1199 "e:\x-sense_svn\xp02\xp02\src\Smoke.c"
1199  0000              @HCCINIT___SmokeDataFirst_3260 .section 'data'
1199  0000              ___SmokeDataFirst_3260 label byte
1199  0000              #pragma debug variable 10 17 ___SmokeDataFirst_3260 "SmokeDataFirst"
1199  0000              	db 0
1199  0009              @ROMDATA_BASE .section inpage 'code'
1199  0009              	db 0
1199  0001              @HCCINIT___SmokeDataFirst_3260 .section 'data'
1199  0001              	db 0
1199  000A              @ROMDATA_BASE .section inpage 'code'
文件：Smoke.c      编译器版本 HGASM 0202 页次108

1199  000A              	db 0
1199  0002              @HCCINIT___SmokeDataFirst_3260 .section 'data'
1024  0002              #line 1024 "e:\x-sense_svn\xp02\xp02\src\Smoke.c"
1024  0000              @HCCINIT___SmokeData_3254 .section 'data'
1024  0000              ___SmokeData_3254 label byte
1024  0000              #pragma debug variable 10 14 ___SmokeData_3254 "SmokeData"
1024  0000              	db 0
1024  000A              @ROMDATA_BASE .section inpage 'code'
1024  000A              	db 0
1024  0001              @HCCINIT___SmokeData_3254 .section 'data'
1024  0001              	db 0
1024  000B              @ROMDATA_BASE .section inpage 'code'
1024  000B              	db 0
1024  0002              @HCCINIT___SmokeData_3254 .section 'data'
1024  0002              public _SmokeCaliVol
1024  00D5              @crom	.section 'crom'
 162  00D5              #line 162 "e:\x-sense_svn\xp02\xp02\src\Smoke.c"
 162  00D5              @crom	.section	'crom'
 162  00D5              _SmokeCaliVol:
 162  00D5              #pragma debug array 44 12 6 1
 162  00D5              #pragma debug array 44 12 6 1
 162  00D5              #pragma debug variable 44 1 _SmokeCaliVol "SmokeCaliVol"
 162  00D5  03E8        	dc 1000
 162  00D6  03F2        	dc 1010
 162  00D7  03F7        	dc 1015
 162  00D8  03FC        	dc 1020
 162  00D9  0406        	dc 1030
 162  00DA  041A        	dc 1050
 162  00DB              public _SmokeTempRate
  91  00DB              #line 91 "e:\x-sense_svn\xp02\xp02\src\Smoke.c"
  91  00DB              @crom	.section	'crom'
  91  00DB              _SmokeTempRate:
  91  00DB              #pragma debug array 45 12 91 1
  91  00DB              #pragma debug array 45 12 91 1
  91  00DB              #pragma debug variable 45 1 _SmokeTempRate "SmokeTempRate"
  91  00DB  02C6        	dc 710
  91  00DC  02CB        	dc 715
  91  00DD  02D0        	dc 720
  91  00DE  02D5        	dc 725
  91  00DF  02DF        	dc 735
  91  00E0  02E9        	dc 745
  91  00E1  02F3        	dc 755
  91  00E2  02FB        	dc 763
  91  00E3  0301        	dc 769
  91  00E4  0306        	dc 774
  91  00E5  030C        	dc 780
  91  00E6  0312        	dc 786
  91  00E7  0318        	dc 792
  91  00E8  031E        	dc 798
  91  00E9  0323        	dc 803
  91  00EA  032A        	dc 810
  91  00EB  0330        	dc 816
  91  00EC  0336        	dc 822
  91  00ED  033C        	dc 828
  91  00EE  0342        	dc 834
  91  00EF  0349        	dc 841
  91  00F0  034F        	dc 847
  91  00F1  0355        	dc 853
  91  00F2  035B        	dc 859
  91  00F3  0362        	dc 866
文件：Smoke.c      编译器版本 HGASM 0202 页次109

  91  00F4  0368        	dc 872
  91  00F5  036E        	dc 878
  91  00F6  0374        	dc 884
  91  00F7  037B        	dc 891
  91  00F8  0382        	dc 898
  91  00F9  0389        	dc 905
  91  00FA  038F        	dc 911
  91  00FB  0395        	dc 917
  91  00FC  039B        	dc 923
  91  00FD  03A1        	dc 929
  91  00FE  03A8        	dc 936
  91  00FF  03AE        	dc 942
  91  0100  03B5        	dc 949
  91  0101  03BC        	dc 956
  91  0102  03C2        	dc 962
  91  0103  03C9        	dc 969
  91  0104  03CF        	dc 975
  91  0105  03D5        	dc 981
  91  0106  03DB        	dc 987
  91  0107  03E2        	dc 994
  91  0108  03E8        	dc 1000
  91  0109  03EE        	dc 1006
  91  010A  03F4        	dc 1012
  91  010B  03FA        	dc 1018
  91  010C  0401        	dc 1025
  91  010D  0405        	dc 1029
  91  010E  040E        	dc 1038
  91  010F  0416        	dc 1046
  91  0110  041F        	dc 1055
  91  0111  0425        	dc 1061
  91  0112  042C        	dc 1068
  91  0113  0434        	dc 1076
  91  0114  043A        	dc 1082
  91  0115  0442        	dc 1090
  91  0116  0448        	dc 1096
  91  0117  044F        	dc 1103
  91  0118  0458        	dc 1112
  91  0119  045E        	dc 1118
  91  011A  0464        	dc 1124
  91  011B  046B        	dc 1131
  91  011C  0473        	dc 1139
  91  011D  0479        	dc 1145
  91  011E  0481        	dc 1153
  91  011F  048B        	dc 1163
  91  0120  0491        	dc 1169
  91  0121  049A        	dc 1178
  91  0122  04A1        	dc 1185
  91  0123  04A9        	dc 1193
  91  0124  04B1        	dc 1201
  91  0125  04B9        	dc 1209
  91  0126  04C1        	dc 1217
  91  0127  04C9        	dc 1225
  91  0128  04CF        	dc 1231
  91  0129  04D6        	dc 1238
  91  012A  04E0        	dc 1248
  91  012B  04E9        	dc 1257
  91  012C  04EE        	dc 1262
  91  012D  04F7        	dc 1271
  91  012E  04FF        	dc 1279
  91  012F  0509        	dc 1289
文件：Smoke.c      编译器版本 HGASM 0202 页次110

  91  0130  0510        	dc 1296
  91  0131  051A        	dc 1306
  91  0132  0521        	dc 1313
  91  0133  052C        	dc 1324
  91  0134  0536        	dc 1334
  91  0135  0546        	dc 1350
  91  0136              public _NtcTbl
  68  0136              #line 68 "e:\x-sense_svn\xp02\xp02\src\Smoke.c"
  68  0136              @crom	.section	'crom'
  68  0136              _NtcTbl:
  68  0136              #pragma debug variable 45 1 _NtcTbl "NtcTbl"
  68  0136  0E9D        	dc 3741
  68  0137  0E89        	dc 3721
  68  0138  0E73        	dc 3699
  68  0139  0E5D        	dc 3677
  68  013A  0E46        	dc 3654
  68  013B  0E2E        	dc 3630
  68  013C  0E15        	dc 3605
  68  013D  0DFA        	dc 3578
  68  013E  0DE0        	dc 3552
  68  013F  0DC5        	dc 3525
  68  0140  0DA8        	dc 3496
  68  0141  0D8A        	dc 3466
  68  0142  0D6B        	dc 3435
  68  0143  0D4C        	dc 3404
  68  0144  0D2B        	dc 3371
  68  0145  0D0A        	dc 3338
  68  0146  0CE7        	dc 3303
  68  0147  0CC4        	dc 3268
  68  0148  0CA0        	dc 3232
  68  0149  0C7B        	dc 3195
  68  014A  0C55        	dc 3157
  68  014B  0C2E        	dc 3118
  68  014C  0C07        	dc 3079
  68  014D  0BDE        	dc 3038
  68  014E  0BB6        	dc 2998
  68  014F  0B8C        	dc 2956
  68  0150  0B62        	dc 2914
  68  0151  0B37        	dc 2871
  68  0152  0B0B        	dc 2827
  68  0153  0ADF        	dc 2783
  68  0154  0AB2        	dc 2738
  68  0155  0A86        	dc 2694
  68  0156  0A58        	dc 2648
  68  0157  0A2B        	dc 2603
  68  0158  09FD        	dc 2557
  68  0159  09CF        	dc 2511
  68  015A  09A0        	dc 2464
  68  015B  0972        	dc 2418
  68  015C  0943        	dc 2371
  68  015D  0915        	dc 2325
  68  015E  08E7        	dc 2279
  68  015F  08B8        	dc 2232
  68  0160  088A        	dc 2186
  68  0161  085C        	dc 2140
  68  0162  082E        	dc 2094
  68  0163  0800        	dc 2048
  68  0164  07D3        	dc 2003
  68  0165  07A6        	dc 1958
  68  0166  0779        	dc 1913
文件：Smoke.c      编译器版本 HGASM 0202 页次111

  68  0167  0759        	dc 1881
  68  0168  0721        	dc 1825
  68  0169  06F6        	dc 1782
  68  016A  06CB        	dc 1739
  68  016B  06A1        	dc 1697
  68  016C  0677        	dc 1655
  68  016D  064E        	dc 1614
  68  016E  0626        	dc 1574
  68  016F  05FE        	dc 1534
  68  0170  05D7        	dc 1495
  68  0171  05B1        	dc 1457
  68  0172  058B        	dc 1419
  68  0173  0567        	dc 1383
  68  0174  0541        	dc 1345
  68  0175  051E        	dc 1310
  68  0176  04FB        	dc 1275
  68  0177  04D9        	dc 1241
  68  0178  04B8        	dc 1208
  68  0179  0497        	dc 1175
  68  017A  0477        	dc 1143
  68  017B  0458        	dc 1112
  68  017C  043A        	dc 1082
  68  017D  041C        	dc 1052
  68  017E  03FF        	dc 1023
  68  017F  03E3        	dc 995
  68  0180  03C7        	dc 967
  68  0181  03AC        	dc 940
  68  0182  0391        	dc 913
  68  0183  0378        	dc 888
  68  0184  035F        	dc 863
  68  0185  0347        	dc 839
  68  0186  0330        	dc 816
  68  0187  0319        	dc 793
  68  0188  0302        	dc 770
  68  0189  02ED        	dc 749
  68  018A  02D8        	dc 728
  68  018B  02C3        	dc 707
  68  018C  02AF        	dc 687
  68  018D  029C        	dc 668
  68  018E  0289        	dc 649
  68  018F  0277        	dc 631
  68  0190  0265        	dc 613
  64  0191              #line 64 "e:\x-sense_svn\xp02\xp02\src\Smoke.c"
  64  0191              public _SmokeAO
  64  0000              @HCCINIT0_SmokeAO .section 'data'
  64  0000  0014[       _SmokeAO	db 20 dup(0)
            00
            ]
  64  0014              #pragma debug struct_end
  64  0014              #pragma debug struct_end
  64  0014              #pragma debug variable 46 1 _SmokeAO "SmokeAO"
  64  0014              
  64  0000              @HCCINIT .section 'data'
  64  0000              #pragma debug struct_end
  64  0000              #pragma debug struct_end
  64  0000              #pragma debug union_end
  64  0000              #pragma debug union_end
  64  0000              #pragma debug variable 48 1 ___pa "__pa" 1
  64  0000              #pragma debug struct_end
  64  0000              #pragma debug struct_end
文件：Smoke.c      编译器版本 HGASM 0202 页次112

  64  0000              #pragma debug union_end
  64  0000              #pragma debug union_end
  64  0000              #pragma debug variable 50 1 ___pb "__pb" 1
  64  0000              #pragma debug struct_end
  64  0000              #pragma debug struct_end
  64  0000              #pragma debug union_end
  64  0000              #pragma debug union_end
  64  0000              #pragma debug variable 52 1 ___pc "__pc" 1
  64  0000              #pragma debug struct_end
  64  0000              #pragma debug struct_end
  64  0000              #pragma debug union_end
  64  0000              #pragma debug union_end
  64  0000              #pragma debug variable 54 1 ___sdsw "__sdsw" 1
  64  0000              #pragma debug struct_end
  64  0000              #pragma debug struct_end
  64  0000              #pragma debug union_end
  64  0000              #pragma debug union_end
  64  0000              #pragma debug variable 56 1 ___sdpgac0 "__sdpgac0" 1
  64  0000              #pragma debug struct_end
  64  0000              #pragma debug struct_end
  64  0000              #pragma debug union_end
  64  0000              #pragma debug union_end
  64  0000              #pragma debug variable 58 1 ___sdpgac1 "__sdpgac1" 1
  64  0000              #pragma debug struct_end
  64  0000              #pragma debug struct_end
  64  0000              #pragma debug union_end
  64  0000              #pragma debug union_end
  64  0000              #pragma debug variable 60 1 ___sda0c "__sda0c" 1
  64  0000              #pragma debug struct_end
  64  0000              #pragma debug struct_end
  64  0000              #pragma debug union_end
  64  0000              #pragma debug union_end
  64  0000              #pragma debug variable 62 1 ___sda0vos "__sda0vos" 1
  64  0000              #pragma debug struct_end
  64  0000              #pragma debug struct_end
  64  0000              #pragma debug union_end
  64  0000              #pragma debug union_end
  64  0000              #pragma debug variable 64 1 ___sda1c "__sda1c" 1
  64  0000              #pragma debug struct_end
  64  0000              #pragma debug struct_end
  64  0000              #pragma debug union_end
  64  0000              #pragma debug union_end
  64  0000              #pragma debug variable 66 1 ___sda1vos "__sda1vos" 1
  64  0000              #pragma debug struct_end
  64  0000              #pragma debug struct_end
  64  0000              #pragma debug union_end
  64  0000              #pragma debug union_end
  64  0000              #pragma debug variable 68 1 ___sadc0 "__sadc0" 1
  64  0000              #pragma debug struct_end
  64  0000              #pragma debug struct_end
  64  0000              #pragma debug union_end
  64  0000              #pragma debug union_end
  64  0000              #pragma debug variable 70 1 ___sadc1 "__sadc1" 1
  64  0000              #pragma debug variable 8 1 ___sadoh "__sadoh" 1
  64  0000              #pragma debug variable 8 1 ___sadol "__sadol" 1
  64  0000              #pragma debug struct_end
  64  0000              #pragma debug struct_end
  64  0000              #pragma debug union_end
  64  0000              #pragma debug union_end
  64  0000              #pragma debug variable 72 1 ___isgenc "__isgenc" 1
文件：Smoke.c      编译器版本 HGASM 0202 页次113

  64  0000              #pragma debug variable 8 1 ___isgdata0 "__isgdata0" 1
  64  0000              #pragma debug variable 8 1 ___isgdata1 "__isgdata1" 1
  64  0000              #pragma debug struct_end
  64  0000              #pragma debug struct_end
  64  0000              #pragma debug union_end
  64  0000              #pragma debug union_end
  64  0000              #pragma debug variable 74 1 ___intc0 "__intc0" 1
  64  0000              
  64  0000              ; output external variables
  64  0000              extern _RfAO:byte
  64  0000              extern _SMOKE_ALARM_LEVEL:byte
  64  0000              extern _SysAO:byte
  64  0000              extern _PwrAO:byte
  64  0000              extern _E2promRead:near
  64  0000              extern _printf_2:byte
  64  0000              extern _printf:near
  64  0000              extern _builtin_holtek_mulsi3_2:byte
  64  0000              extern _builtin_holtek_mulsi3:near
  64  0000              extern _SysteSetSig_2:byte
  64  0000              extern _SysteSetSig:near
  64  0000              extern _GetAdcSample_2:byte
  64  0000              extern _GetAdcSample:near
  64  0000              extern _builtin_holtek_udivmodsi4_2:byte
  64  0000              extern _builtin_holtek_udivmodsi4:near
  64  0000              extern _E2promWrite_2:byte
  64  0000              extern _E2promWrite:near
  64  0000              extern _builtin_holtek_udivmodhi4_2:byte
  64  0000              extern _builtin_holtek_udivmodhi4:near
  64  0000              extern _EnteryLowPower:near
  64  0000              extern _SpeakerSendCmd_2:byte
  64  0000              extern _SpeakerSendCmd:near
  64  0000              extern _TmrInsertTimer_2:byte
  64  0000              extern _TmrInsertTimer:near
  64  0000              extern _BatteryCheckHandle:near
  64  0000              extern _CailRes_2:byte
  64  0000              extern _CailRes:near
  64  0000              extern _CailStepDisplay_2:byte
  64  0000              extern _CailStepDisplay:near
  64  0000              extern _TmrDeleteTimer_2:byte
  64  0000              extern _TmrDeleteTimer:near
  64  0000              extern _UartSendMsg_2:byte
  64  0000              extern _UartSendMsg:near
  64  0000              extern _CoAlarmCheck:near
  64  0000              extern _GetRfPairedMode:near
  64  0000              extern _ErrIndex_2:byte
  64  0000              extern _ErrIndex:near
  64  0000              
  64  0000              ; 
  64  0000              ; Generated by holtek-gcc v3.19, Fri Nov 11 18:10:33 2022
  64  0000              ; Rebuild 718
  64  0000              ; end of file


        0 Errors, 0