文件：RF.c         编译器版本 HGASM 0202 页次1


   1  0000              ; Generated by holtek-gcc v3.19, Fri Nov 11 18:10:34 2022
   2  0000              ; 
   3  0000              ; Configuration:
   4  0000              ;       with long instruction
   5  0000              ;       Multi-ROM, Multi-RAM
   6  0000              ;       bits_per_rom_unit:16
   7  0000              ;       with mp1
   8  0000              ;       with tbhp, address(0x9)
   9  0000              ;          Use tabrd-const
  10  0000              ;       
  11  0000              ; SFR address of long-instruction arch:
  12  0000              ;    mp0 = -1,1,0
  13  0000              ;    mp1 = 4,3,2
  14  0000              ;    mp2 = 14,13,12
  15  0000              ;    tbp = 9,7,8
  16  0000              ;    acc = 5
  17  0000              ;    pcl = 6
  18  0000              ;    status = 10
  19  0000              ;    bp = 11
  20  0000              ;    intc = 67
  21  0000              ;       
  22  0000              ;       
  23  0000              ; use 'tabrdc' instead of 'tabrd'
  24  0000              ;       
  25  0000              
  26  0000              #pragma translator "holtek-gcc 4.6.4" "3.19" "build 20130711"
  27  0000              ; Rebuild 718
  28  0000              
  29  0000              ir equ [2]
  30  0000              mp equ [3]
  31  0000              sbp equ [4]
  32  0000              acc equ [5]
  33  0000              bp equ [11]
  34  0000              tblp equ [7]
  35  0000              tbhp equ [9]
  36  0000              status equ [10]
  37  0000              c equ [10].0
  38  0000              ac equ [10].1
  39  0000              z equ [10].2
  40  0000              ov equ [10].3
  41  0000              cz equ [10].6
  42  0000              sc equ [10].7
  43  0000              intc equ [67]
  44  0000              
  45  0000              extern ra:byte
  46  0000              extern rb:byte
  47  0000              extern rc:byte
  48  0000              extern rd:byte
  49  0000              extern re:byte
  50  0000              extern rf:byte
  51  0000              extern rg:byte
  52  0000              extern rh:byte
  53  0000              extern _Crom2Prom:near
  54  0000              extern _Crom2PromNext:near
  55  0000              
  56  0000              RAMBANK 0 @BITDATASEC, @BITDATASEC1
  57  0000              @HCCINIT	.section 'data'
  58  0000              @HCCINIT0	.section 'data'
  59  0000              @BITDATASEC	 .section 'data'
文件：RF.ASM       编译器版本 HGASM 0202 页次2

  60  0000              @BITDATASEC1	 .section 'data'
  61  0000              
  62  0000              #pragma debug scope 1 1
  63  0000              	extern __DELAY3:near
  64  0000              	extern __DELAYX3:near
  65  0000              	extern __DELAYX6:near
  66  0000              	extern __DELAYY5:near
  67  0000              	extern __DELAYY3:near
  68  0000              	extern _builtin_holtek_delay_2:byte
  69  0000              #pragma debug scope 2 1

 173  0000              #line 173 "e:\x-sense_svn\xp02\xp02\src\RF.c"
 173  0000              _Memcpy .section 'code'
 173  0000              _Memcpy proc
 173  0000  0005[           local _Memcpy_2 db 5 dup(?)	; 5,0
            00
            ]
 173  0005              #pragma debug pointer 42 7 2
 173  0005              #pragma debug pointer 42 7 2
 173  0005              #pragma debug variable 42 2 _Memcpy_2+0 "dest"
 173  0005              #pragma debug variable 42 2 _Memcpy_2+2 "src"
 173  0005              #pragma debug variable 8 2 _Memcpy_2+4 "Length"
 179  0005              #line 179 "e:\x-sense_svn\xp02\xp02\src\RF.c"
 179  0000  1F00     E  	clr rb
 179  0001  1F00     E  	clr rc
 177  0002              #line 177 "e:\x-sense_svn\xp02\xp02\src\RF.c"
 177  0002  0700     R  	mov a,_Memcpy_2[0]
 177  0003  0500     R  	or a,_Memcpy_2[1]
 177  0004  3D0A        	sz z
 177  0005  2800     R  	jmp _L2
 177  0006              #line 177 "e:\x-sense_svn\xp02\xp02\src\RF.c"
 177  0006  0700     R  	mov a,_Memcpy_2[2]
 177  0007  0500     R  	or a,_Memcpy_2[3]
 177  0008  3D0A        	sz z
 177  0009  2800     R  	jmp _L2
 177  000A  1E00     R  	snz _Memcpy_2[4]
 177  000B  2800     R  	jmp _L2
 177  000C              _L3:
 182  000C              #line 182 "e:\x-sense_svn\xp02\xp02\src\RF.c"
 182  000C  0700     R  	mov a,_Memcpy_2[4]
 182  000D  0080     E  	mov rd,a
 182  000E  1F00     E  	clr re
 182  000F  0700     E  	mov a,rb
 182  0010  0200     E  	sub a,rd
 182  0011  0700     E  	mov a,rc
 182  0012  1200     E  	sbc a,re
 182  0013  3B8A        	snz sc
 182  0014  2800     R  	jmp _L9
 183  0015              #line 183 "e:\x-sense_svn\xp02\xp02\src\RF.c"
 183  0015  0700     E  	mov a,rb
 183  0016  0300     R  	add a,_Memcpy_2[2]
 183  0017  0083        	mov mp,a
 183  0018  0700     E  	mov a,rc
 183  0019  1300     R  	adc a,_Memcpy_2[3]
 183  001A  0084        	mov sbp,a
 183  001B              	fcall _Crom2Prom
 183  0022  0080     E  	mov ra,a
 183  0023  0700     E  	mov a,rb
 183  0024  0300     R  	add a,_Memcpy_2[0]
 183  0025  0083        	mov mp,a
文件：RF.c         编译器版本 HGASM 0202 页次3

 183  0026  0700     E  	mov a,rc
 183  0027  1300     R  	adc a,_Memcpy_2[1]
 183  0028  0084        	mov sbp,a
 183  0029  0700     E  	mov a,ra
 183  002A  0082        	mov ir,a
 182  002B              #line 182 "e:\x-sense_svn\xp02\xp02\src\RF.c"
 182  002B  1480     E  	inc rb
 182  002C  3D0A        	sz z
 182  002D  1480     E  	inc rc
 182  002E  2800     R  	jmp _L3
 182  002F              _L9:
 182  002F  0700     R  	mov a,_Memcpy_2[0]
 182  0030  0080     E  	mov rb,a
 182  0031  0700     R  	mov a,_Memcpy_2[1]
 182  0032  0080     E  	mov rc,a
 182  0033              _L2:
 186  0033              #line 186 "e:\x-sense_svn\xp02\xp02\src\RF.c"
 186  0033  0700     E  	mov a,rb
 186  0034  0080     E  	mov ra,a
 186  0035  0700     E  	mov a,rc
 186  0036  0080     E  	mov rb,a
 186  0037  0003        	ret
 186  0038              _Memcpy endp
 186  0038              #line 186 "e:\x-sense_svn\xp02\xp02\src\RF.c"
 186  0038              #pragma debug scope 1 1
 186  0038              #pragma debug scope 3 1
 197  0038              #line 197 "e:\x-sense_svn\xp02\xp02\src\RF.c"
 197  0000              _SetUartTxBufByte .section 'code'
 197  0000              _SetUartTxBufByte proc
 197  0000  0002[           local _SetUartTxBufByte_2 db 2 dup(?)	; 1,1
            00
            ]
 197  0000  0080     E  	mov rb,a
 197  0001  0080     E  	mov ra,a
 197  0002              #pragma debug variable 8 3 _SetUartTxBufByte_2+1 "dest"
 197  0002              #pragma debug variable 8 3 _SetUartTxBufByte_2+0 "byte"
 200  0002              #line 200 "e:\x-sense_svn\xp02\xp02\src\RF.c"
 200  0002  0F00     R  	mov a,low (offset _UartSendBuf+3)
 200  0003  0300     E  	add a,rb
 200  0004  0083        	mov mp,a
 200  0005  0F00     R  	mov a,high (offset _UartSendBuf+3)
 200  0006  1F04        	clr sbp
 200  0007  1384        	adcm a,sbp
 200  0008  0700     R  	mov a,_SetUartTxBufByte_2[0]
 200  0009  0082        	mov ir,a
 201  000A              #line 201 "e:\x-sense_svn\xp02\xp02\src\RF.c"
 201  000A  1480     E  	inc ra
 204  000B              #line 204 "e:\x-sense_svn\xp02\xp02\src\RF.c"
 204  000B  0700     E  	mov a,ra
 204  000C  0003        	ret
 204  000D              _SetUartTxBufByte endp
 204  000D              #line 204 "e:\x-sense_svn\xp02\xp02\src\RF.c"
 204  000D              #pragma debug scope 1 1
 204  000D              ___txr_rxr0 equ [93]
 204  000D              ___u0sr equ [89]
 204  000D              #pragma debug scope 4 1
 253  000D              #line 253 "e:\x-sense_svn\xp02\xp02\src\RF.c"
 253  0000              _UartWriteFrame .section 'code'
 253  0000              _UartWriteFrame proc
 253  0000  0009[           local _UartWriteFrame_2 db 9 dup(?)	; 1,8
文件：RF.c         编译器版本 HGASM 0202 页次4

            00
            ]
 253  0000  0080     E  	mov ra,a
 253  0001  0080     R  	mov _UartWriteFrame_2[1],a
 253  0002              #pragma debug variable 8 4 _UartWriteFrame_2+1 "UartCmd"
 253  0002              #pragma debug variable 8 4 _UartWriteFrame_2+0 "length"
 253  0002              #pragma debug variable 11 4 _UartWriteFrame_2+3 "k"
 272  0002              #line 272 "e:\x-sense_svn\xp02\xp02\src\RF.c"
 272  0002  0FAF        	mov a,175
 272  0003  0080     R  	mov _UartSendBuf[0],a
 273  0004              #line 273 "e:\x-sense_svn\xp02\xp02\src\RF.c"
 273  0004  0700     E  	mov a,ra
 273  0005  0080     R  	mov _UartSendBuf[1],a
 274  0006              #line 274 "e:\x-sense_svn\xp02\xp02\src\RF.c"
 274  0006  0700     R  	mov a,_UartWriteFrame_2[0]
 274  0007  0080     R  	mov _UartSendBuf[2],a
 276  0008              #line 276 "e:\x-sense_svn\xp02\xp02\src\RF.c"
 276  0008  0700     R  	mov a,_UartWriteFrame_2[0]
 276  0009  0B04        	add a,4
 276  000A  0080     E  	mov rh,a
 281  000B              #line 281 "e:\x-sense_svn\xp02\xp02\src\RF.c"
 281  000B  0700     E  	mov a,rh
 281  000C  0080     E  	mov rb,a
 281  000D  1F00     E  	clr rc
 281  000E  0FFF        	mov a,255
 281  000F  0300     E  	add a,rb
 281  0010  0080     R  	mov _UartWriteFrame_2[3],a
 281  0011  0FFF        	mov a,255
 281  0012  1300     E  	adc a,rc
 281  0013  0080     R  	mov _UartWriteFrame_2[4],a
 282  0014              #line 282 "e:\x-sense_svn\xp02\xp02\src\RF.c"
 282  0014  0F01        	mov a,1
 282  0015  0080     E  	mov rf,a
 282  0016  1F00     E  	clr rg
 270  0017              #line 270 "e:\x-sense_svn\xp02\xp02\src\RF.c"
 270  0017  1F00     E  	clr ra
 270  0018  0700     E  	mov a,rb
 270  0019  0080     R  	mov _UartWriteFrame_2[7],a
 270  001A  0700     E  	mov a,rc
 270  001B  0080     R  	mov _UartWriteFrame_2[8],a
 270  001C              _L12:
 282  001C              #line 282 "e:\x-sense_svn\xp02\xp02\src\RF.c"
 282  001C  0700     R  	mov a,_UartWriteFrame_2[7]
 282  001D  0200     E  	sub a,rf
 282  001E  0700     R  	mov a,_UartWriteFrame_2[8]
 282  001F  1200     E  	sbc a,rg
 282  0020  3F0A        	sz cz
 282  0021  2800     R  	jmp _L17
 296  0022              #line 296 "e:\x-sense_svn\xp02\xp02\src\RF.c"
 296  0022  0F00     R  	mov a,low (offset _UartSendBuf-1)
 296  0023  0300     E  	add a,rf
 296  0024  0083        	mov mp,a
 296  0025  0F00     R  	mov a,high (offset _UartSendBuf-1)
 296  0026  1300     E  	adc a,rg
 296  0027  0084        	mov sbp,a
 296  0028              	fcall _Crom2Prom
 296  002F  0080     E  	mov rb,a
 296  0030  0700     E  	mov a,rb
 296  0031  0080     R  	mov _UartWriteFrame_2[5],a
 296  0032  1F00     R  	clr _UartWriteFrame_2[6]
文件：RF.c         编译器版本 HGASM 0202 页次5

 296  0033  1F00     R  	clr _UartWriteFrame_2[2]
 296  0034  0F80        	mov a,-128
 296  0035  0080     E  	mov rb,a
 296  0036  1F00     E  	clr rc
 296  0037              _L18:
 286  0037              #line 286 "e:\x-sense_svn\xp02\xp02\src\RF.c"
 286  0037  3800     E  	snz ra.7
 286  0038  2800     R  	jmp _L13
 288  0039              #line 288 "e:\x-sense_svn\xp02\xp02\src\RF.c"
 288  0039  0700     E  	mov a,ra
 288  003A  0380     E  	addm a,ra
 289  003B              #line 289 "e:\x-sense_svn\xp02\xp02\src\RF.c"
 289  003B  0F07        	mov a,7
 289  003C  0480     E  	xorm a,ra
 289  003D  2800     R  	jmp _L14
 289  003E              _L13:
 293  003E              #line 293 "e:\x-sense_svn\xp02\xp02\src\RF.c"
 293  003E  0700     E  	mov a,ra
 293  003F  0380     E  	addm a,ra
 293  0040              _L14:
 296  0040              #line 296 "e:\x-sense_svn\xp02\xp02\src\RF.c"
 296  0040  0700     R  	mov a,_UartWriteFrame_2[5]
 296  0041  0080     E  	mov rd,a
 296  0042  0700     R  	mov a,_UartWriteFrame_2[6]
 296  0043  0080     E  	mov re,a
 296  0044  0700     E  	mov a,rb  
 296  0045  0680     E  	andm a,rd  
 296  0046  0700     E  	mov a,rc  
 296  0047  0680     E  	andm a,re
 296  0048  0700     E  	mov a,rd
 296  0049  0500     E  	or a,re
 296  004A  3D0A        	sz z
 296  004B  2800     R  	jmp _L15
 298  004C              #line 298 "e:\x-sense_svn\xp02\xp02\src\RF.c"
 298  004C  0F07        	mov a,7
 298  004D  0480     E  	xorm a,ra
 298  004E              _L15:
 284  004E              #line 284 "e:\x-sense_svn\xp02\xp02\src\RF.c"
 284  004E  0700     E  	mov a,rb
 284  004F  0080     E  	mov rd,a
 284  0050  0700     E  	mov a,rc
 284  0051  0080     E  	mov re,a
 284  0052  1A80     E  	rlc re
 284  0053  1F00     E  	clr rd
 284  0054  1A80     E  	rlc rd
 284  0055  1F00     E  	clr re
 284  0056  0700     E  	mov a,rd
 284  0057  0380     E  	addm a,rb
 284  0058  0700     E  	mov a,re
 284  0059  1380     E  	adcm a,rc
 284  005A  1A00     E  	rlca rc
 284  005B  1B80     E  	rrc rc
 284  005C  1B80     E  	rrc rb
 284  005D  1480     R  	inc _UartWriteFrame_2[2]
 284  005E  0700     R  	mov a,_UartWriteFrame_2[2]
 284  005F  0A08        	sub a,8
 284  0060  390A        	snz z
 284  0061  2800     R  	jmp _L18
 284  0062  1480     E  	inc rf
 284  0063  3D0A        	sz z
文件：RF.c         编译器版本 HGASM 0202 页次6

 284  0064  1480     E  	inc rg
 284  0065  2800     R  	jmp _L12
 284  0066              _L17:
 304  0066              #line 304 "e:\x-sense_svn\xp02\xp02\src\RF.c"
 304  0066  0F00     R  	mov a,low offset _UartSendBuf
 304  0067  0300     R  	add a,_UartWriteFrame_2[3]
 304  0068  0083        	mov mp,a
 304  0069  0F00     R  	mov a,high offset _UartSendBuf
 304  006A  1300     R  	adc a,_UartWriteFrame_2[4]
 304  006B  0084        	mov sbp,a
 304  006C  0700     E  	mov a,ra
 304  006D  0082        	mov ir,a
 304  006E              #pragma debug scope 5 4
 304  006E              ;begin block, line: 304.-1
 304  006E              #pragma debug scope 6 5
 304  006E              ;begin block, line: 304.-1
 234  006E              #line 234 "e:\x-sense_svn\xp02\xp02\src\RF.c"
 234  006E  1E00     E  	snz rh
 234  006F  2800     R  	jmp _L11
 234  0070  1F00     E  	clr ra
 234  0071              _L23:
 241  0071              #line 241 "e:\x-sense_svn\xp02\xp02\src\RF.c"
 241  0071  0F00     R  	mov a,low offset _UartSendBuf
 241  0072  0300     E  	add a,ra
 241  0073  0083        	mov mp,a
 241  0074  0F00     R  	mov a,high offset _UartSendBuf
 241  0075  1F04        	clr sbp
 241  0076  1384        	adcm a,sbp
 241  0077              	fcall _Crom2Prom
 241  007E  00DD        	mov [93],a
 241  007F              _L21:
 241  007F  38D9        	snz [89].1
 241  0080  2800     R  	jmp _L21
 239  0081              #line 239 "e:\x-sense_svn\xp02\xp02\src\RF.c"
 239  0081  1480     E  	inc ra
 239  0082  0700     E  	mov a,ra
 239  0083  0200     E  	sub a,rh
 239  0084  380A        	snz c
 239  0085  2800     R  	jmp _L23
 239  0086              _L11:
 239  0086              #pragma debug scope 5 4
 239  0086              #pragma debug scope 4 1
 239  0086  0003        	ret
 239  0087              _UartWriteFrame endp
 239  0087              #line 239 "e:\x-sense_svn\xp02\xp02\src\RF.c"
 239  0087              #pragma debug scope 1 1
 239  0000              @crom	.section 'crom'
 239  0000              _LC0:
 239  0000              	db 04ch,06fh,063h,061h,074h,069h,06fh,06eh,03ah,025h
 239  0005              	db 064h,0ah,00h
 239  0007              public _RfInit
 239  0007              #pragma debug scope 7 1
  36  0007              #line 36 "e:\x-sense_svn\xp02\xp02\src\RF.c"
  36  0000              _RfInit .section 'code'
  36  0000              _RfInit proc
  37  0000              #line 37 "e:\x-sense_svn\xp02\xp02\src\RF.c"
  37  0000  0F13        	mov a,19
  37  0001  0080     R  	mov _RfAO[4],a
  37  0002  1F00     R  	clr _RfAO[5]
  38  0003              #line 38 "e:\x-sense_svn\xp02\xp02\src\RF.c"
文件：RF.c         编译器版本 HGASM 0202 页次7

  38  0003  0F03        	mov a,3
  38  0004  0080     R  	mov _RfAO[6],a
  38  0005  1F00     R  	clr _RfAO[7]
  39  0006              #line 39 "e:\x-sense_svn\xp02\xp02\src\RF.c"
  39  0006  1F00     R  	clr _RfAO[8]
  41  0007              #line 41 "e:\x-sense_svn\xp02\xp02\src\RF.c"
  41  0007  0F02        	mov a,2
  41  0008              	fcall _E2promRead
  41  000F  0080     E  	mov ra,a
  41  0010  0700     E  	mov a,ra
  41  0011  0080     R  	mov _RfAO[9],a
  41  0012  1F00     R  	clr _RfAO[10]
  43  0013              #line 43 "e:\x-sense_svn\xp02\xp02\src\RF.c"
  43  0013  0F14        	mov a,20
  43  0014              	fcall _E2promRead
  43  001B  0080     E  	mov ra,a
  43  001C  0700     E  	mov a,ra
  43  001D  0080     R  	mov _RfAO[12],a
  44  001E              #line 44 "e:\x-sense_svn\xp02\xp02\src\RF.c"
  44  001E  0F17        	mov a,23
  44  001F  0080     R  	mov _RfAO[11],a
  46  0020              #line 46 "e:\x-sense_svn\xp02\xp02\src\RF.c"
  46  0020  1600     E  	siza ra
  46  0021  2800     R  	jmp _L28
  48  0022              #line 48 "e:\x-sense_svn\xp02\xp02\src\RF.c"
  48  0022  0F17        	mov a,23
  48  0023  0080     R  	mov _RfAO[12],a
  48  0024              _L28:
  51  0024              #line 51 "e:\x-sense_svn\xp02\xp02\src\RF.c"
  51  0024  0700     R  	mov a,_RfAO[12]
  51  0025  0080     E  	mov _printf_2[2],a
  51  0026  1F00     E  	clr _printf_2[3]
  51  0027  0F00     R  	mov a,low offset _LC0
  51  0028  0080     E  	mov _printf_2[0],a
  51  0029  0F00     R  	mov a,high offset _LC0
  51  002A  0080     E  	mov _printf_2[1],a
  51  002B              	fcall _printf
  51  0032  0003        	ret
  51  0033              _RfInit endp
  51  0033              #line 51 "e:\x-sense_svn\xp02\xp02\src\RF.c"
  51  0033              #pragma debug scope 1 1
  51  0033              public _GetRfPairedMode
  51  0033              #pragma debug scope 8 1
  64  0033              #line 64 "e:\x-sense_svn\xp02\xp02\src\RF.c"
  64  0000              _GetRfPairedMode .section 'code'
  64  0000              _GetRfPairedMode proc
  66  0000              #line 66 "e:\x-sense_svn\xp02\xp02\src\RF.c"
  66  0000  0700     R  	mov a,_RfAO[9]
  66  0001  0080     E  	mov ra,a
  66  0002  0700     R  	mov a,_RfAO[10]
  66  0003  0080     E  	mov rb,a
  66  0004  0003        	ret
  66  0005              _GetRfPairedMode endp
  66  0005              #line 66 "e:\x-sense_svn\xp02\xp02\src\RF.c"
  66  0005              #pragma debug scope 1 1
  66  0005              public _PollingRfTimeout
  66  0005              #pragma debug scope 9 1
 100  0005              #line 100 "e:\x-sense_svn\xp02\xp02\src\RF.c"
 100  0000              _PollingRfTimeout .section 'code'
 100  0000              _PollingRfTimeout proc
文件：RF.c         编译器版本 HGASM 0202 页次8

 101  0000              #line 101 "e:\x-sense_svn\xp02\xp02\src\RF.c"
 101  0000  0F32        	mov a,50
 101  0001  0080     E  	mov _SysteSetSig_2[0],a
 101  0002  1F00     E  	clr _SysteSetSig_2[1]
 101  0003              	fcall _SysteSetSig
 101  000A  0003        	ret
 101  000B              _PollingRfTimeout endp
 101  000B              #line 101 "e:\x-sense_svn\xp02\xp02\src\RF.c"
 101  000B              #pragma debug scope 1 1
 101  000B              public _RFLedFlash
 101  000B              #pragma debug scope 10 1
 105  000B              #line 105 "e:\x-sense_svn\xp02\xp02\src\RF.c"
 105  0000              _RFLedFlash .section 'code'
 105  0000              _RFLedFlash proc
 105  0000              public _RFLedFlash_2
 105  0000  0002[           local _RFLedFlash_2 db 2 dup(?)	; 2,0
            00
            ]
 105  0002              #pragma debug pointer 43 7 10
 105  0002              #pragma debug pointer 43 7 10
 105  0002              #pragma debug variable 43 10 _RFLedFlash_2+0 "SysMode"
 107  0002              #line 107 "e:\x-sense_svn\xp02\xp02\src\RF.c"
 107  0000  0700     R  	mov a,_RFLedFlash_2[0]
 107  0001  0C0B        	xor a,11
 107  0002  0500     R  	or a,_RFLedFlash_2[1]
 107  0003  3D0A        	sz z
 107  0004  2800     R  	jmp _L33
 107  0005              #line 107 "e:\x-sense_svn\xp02\xp02\src\RF.c"
 107  0005  0700     R  	mov a,_RFLedFlash_2[0]
 107  0006  0C0C        	xor a,12
 107  0007  0500     R  	or a,_RFLedFlash_2[1]
 107  0008  3D0A        	sz z
 107  0009  2800     R  	jmp _L34
 107  000A  0700     R  	mov a,_RFLedFlash_2[0]
 107  000B  0C0D        	xor a,13
 107  000C  0500     R  	or a,_RFLedFlash_2[1]
 107  000D  3D0A        	sz z
 107  000E  2800     R  	jmp _L33
 107  000F  0700     R  	mov a,_RFLedFlash_2[0]
 107  0010  0C0E        	xor a,14
 107  0011  0500     R  	or a,_RFLedFlash_2[1]
 107  0012  3D0A        	sz z
 107  0013  2800     R  	jmp _L34
 107  0014  0700     R  	mov a,_RFLedFlash_2[0]
 107  0015  0C12        	xor a,18
 107  0016  0500     R  	or a,_RFLedFlash_2[1]
 107  0017  3D0A        	sz z
 107  0018  2800     R  	jmp _L35
 107  0019  0700     R  	mov a,_RFLedFlash_2[0]
 107  001A  0C13        	xor a,19
 107  001B  0500     R  	or a,_RFLedFlash_2[1]
 107  001C  390A        	snz z
 107  001D  2800     R  	jmp _L31
 120  001E              #line 120 "e:\x-sense_svn\xp02\xp02\src\RF.c"
 120  001E  0F32        	mov a,50
 120  001F  0080     E  	mov _PollingRFLED_2[0],a
 120  0020  1F00     E  	clr _PollingRFLED_2[1]
 120  0021              	fcall _PollingRFLED
 120  0028  2800     R  	jmp _L38
 120  0029              _L33:
文件：RF.c         编译器版本 HGASM 0202 页次9

 111  0029              #line 111 "e:\x-sense_svn\xp02\xp02\src\RF.c"
 111  0029  0F64        	mov a,100
 111  002A  0080     E  	mov _PollingLED_2[0],a
 111  002B  1F00     E  	clr _PollingLED_2[1]
 111  002C  2800     R  	jmp _L37
 111  002D              _L34:
 116  002D              #line 116 "e:\x-sense_svn\xp02\xp02\src\RF.c"
 116  002D  0FF4        	mov a,-12
 116  002E  0080     E  	mov _PollingLED_2[0],a
 116  002F  0F01        	mov a,1
 116  0030  0080     E  	mov _PollingLED_2[1],a
 116  0031              _L37:
 116  0031              	fcall _PollingLED
 117  0038              #line 117 "e:\x-sense_svn\xp02\xp02\src\RF.c"
 117  0038  2800     R  	jmp _L31
 117  0039              _L35:
 125  0039              #line 125 "e:\x-sense_svn\xp02\xp02\src\RF.c"
 125  0039  0F32        	mov a,50
 125  003A  0080     E  	mov _PollingLED_2[0],a
 125  003B  1F00     E  	clr _PollingLED_2[1]
 125  003C              	fcall _PollingLED
 125  0043              _L38:
 126  0043              #line 126 "e:\x-sense_svn\xp02\xp02\src\RF.c"
 126  0043  0F32        	mov a,50
 126  0044  0080     E  	mov _PollingBeep_2[0],a
 126  0045  1F00     E  	clr _PollingBeep_2[1]
 126  0046              	fcall _PollingBeep
 126  004D              _L31:
 126  004D  0003        	ret
 126  004E              _RFLedFlash endp
 126  004E              #line 126 "e:\x-sense_svn\xp02\xp02\src\RF.c"
 126  004E              #pragma debug scope 1 1
 126  004E              ___mfi3 equ [74]
 126  004E              public _UART_ISR
 126  004E              #pragma debug scope 11 1
 151  004E              #line 151 "e:\x-sense_svn\xp02\xp02\src\RF.c"
 151  004E              rombank 0 @UART_ISR_code
 151  0000              @UART_ISR_code .section at 48 'code'
 151  0000  0080     E  	mov r1,a
 151  0001  070B        	mov a,bp
 151  0002  1F0B        	clr bp
 151  0003  2800     R  	jmp _UART_ISR
 151  0004              ROMBANK 0 _UART_ISR
 151  0004              #pragma debug scope 1 1
 151  0004              @dummy48 endp
 151  0004              #pragma debug scope 12 1
 151  0000              _UART_ISR .section 'code'
 151  0000              _UART_ISR proc
 151  0000  0002[       local _UART_ISR_2 db 2 dup(?)
            00
            ]
 151  0000  0080     E  	mov r2,a
 151  0001  070A        	mov a, status
 151  0002  0080     E  	mov r3,a
 151  0003  0703        	mov a,mp
 151  0004  0080     E  	mov r4,a
 151  0005  0704        	mov a,sbp
 151  0006  0080     E  	mov r5,a
 153  0007              #line 153 "e:\x-sense_svn\xp02\xp02\src\RF.c"
 153  0007  0F09        	mov a,9
文件：RF.c         编译器版本 HGASM 0202 页次10

 153  0008  0080     E  	mov _PwrAO[11],a
 154  0009              #line 154 "e:\x-sense_svn\xp02\xp02\src\RF.c"
 154  0009  3B4A        	snz [74].6
 154  000A  2800     R  	jmp _L39
 154  000B              _L41:
 156  000B              #line 156 "e:\x-sense_svn\xp02\xp02\src\RF.c"
 156  000B  3959        	snz [89].2
 156  000C  2800     R  	jmp _L53
 158  000D              #line 158 "e:\x-sense_svn\xp02\xp02\src\RF.c"
 158  000D  075D        	mov a,[93]
 158  000E  0080     E  	mov ra,a
 158  000F              #pragma debug scope 13 12
 158  000F              ;begin block, line: 158.-1
 158  000F              #pragma debug scope 14 13
 158  000F              ;begin block, line: 158.-1
 320  000F              #line 320 "e:\x-sense_svn\xp02\xp02\src\RF.c"
 320  000F  0700     R  	mov a,_UartQueueIn[0]
 320  0010  0080     E  	mov rb,a
 320  0011  0700     R  	mov a,_UartQueueIn[1]
 320  0012  0080     E  	mov rc,a
 320  0013  0700     R  	mov a,_UartQueueOut[0]
 320  0014  0080     E  	mov rd,a
 320  0015  0700     R  	mov a,_UartQueueOut[1]
 320  0016  0080     E  	mov re,a
 320  0017  0700     E  	mov a,rd
 320  0018  0200     E  	sub a,rb
 320  0019  0700     E  	mov a,re
 320  001A  1200     E  	sbc a,rc
 320  001B  3C0A        	sz c
 320  001C  2800     R  	jmp _L42
 320  001D  0700     E  	mov a,rb
 320  001E  0200     E  	sub a,rd
 320  001F  0080     E  	mov rf,a
 320  0020  0700     E  	mov a,rc
 320  0021  1200     E  	sbc a,re
 320  0022  0080     E  	mov rg,a
 320  0023  0F3F        	mov a,63
 320  0024  0200     E  	sub a,rf
 320  0025  0F00        	mov a,0
 320  0026  1200     E  	sbc a,rg
 320  0027  380A        	snz c
 320  0028  2800     R  	jmp _L41
 320  0029              _L42:
 324  0029              #line 324 "e:\x-sense_svn\xp02\xp02\src\RF.c"
 324  0029  0700     E  	mov a,rb
 324  002A  0200     E  	sub a,rd
 324  002B  0700     E  	mov a,rc
 324  002C  1200     E  	sbc a,re
 324  002D  3C0A        	sz c
 324  002E  2800     R  	jmp _L44
 324  002F  0700     E  	mov a,rd
 324  0030  0200     E  	sub a,rb
 324  0031  0080     E  	mov rd,a
 324  0032  0700     E  	mov a,re
 324  0033  1200     E  	sbc a,rc
 324  0034  0080     E  	mov re,a
 324  0035  0700     E  	mov a,rd
 324  0036  0C01        	xor a,1
 324  0037  0500     E  	or a,re
 324  0038  3D0A        	sz z
文件：RF.c         编译器版本 HGASM 0202 页次11

 324  0039  2800     R  	jmp _L41
 324  003A              _L44:
 331  003A              #line 331 "e:\x-sense_svn\xp02\xp02\src\RF.c"
 331  003A  0700     E  	mov a,rb
 331  003B  0A00     R  	sub a,low offset _UartQueueBuf[64]
 331  003C  0700     E  	mov a,rc
 331  003D  0800     R  	sbc a,high offset _UartQueueBuf[64]
 331  003E  380A        	snz c
 331  003F  2800     R  	jmp _L45
 333  0040              #line 333 "e:\x-sense_svn\xp02\xp02\src\RF.c"
 333  0040  0F00     R  	mov a,low offset _UartQueueBuf
 333  0041  0080     R  	mov _UartQueueIn[0],a
 333  0042  0F00     R  	mov a,high offset _UartQueueBuf
 333  0043  0080     R  	mov _UartQueueIn[1],a
 333  0044              _L45:
 336  0044              #line 336 "e:\x-sense_svn\xp02\xp02\src\RF.c"
 336  0044  0700     R  	mov a,_UartQueueIn[0]
 336  0045  0080     E  	mov rb,a
 336  0046  0700     R  	mov a,_UartQueueIn[1]
 336  0047  0080     E  	mov rc,a
 336  0048  0F01        	mov a,1
 336  0049  0300     E  	add a,rb
 336  004A  0080     R  	mov _UartQueueIn[0],a
 336  004B  0F00        	mov a,0
 336  004C  1300     E  	adc a,rc
 336  004D  0080     R  	mov _UartQueueIn[1],a
 336  004E  0700     E  	mov a,rb
 336  004F  0083        	mov mp,a
 336  0050  0700     E  	mov a,rc
 336  0051  0084        	mov sbp,a
 336  0052  0700     E  	mov a,ra
 336  0053  0082        	mov ir,a
 336  0054  2800     R  	jmp _L41
 336  0055              _L53:
 336  0055              #pragma debug scope 13 12
 336  0055              #pragma debug scope 12 1
 161  0055              #line 161 "e:\x-sense_svn\xp02\xp02\src\RF.c"
 161  0055  374A        	clr [74].6
 161  0056              _L39:
 161  0056  0700     E  	mov a,r2
 161  0057  008B        	mov bp,a
 161  0058  0700     E  	mov a,r3
 161  0059  008A        	mov status,a
 161  005A  0700     E  	mov a,r4
 161  005B  0083        	mov mp,a
 161  005C  0700     E  	mov a,r5
 161  005D  0084        	mov sbp,a
 161  005E  0700     E  	mov a,r1
 161  005F  0004        	reti
 161  0060              _UART_ISR endp
 161  0060              
 161  0060              #line 161 "e:\x-sense_svn\xp02\xp02\src\RF.c"
 161  0060              #pragma debug scope 1 1
 161  0060              public _SetUartTxBufBuffer
 161  0060              #pragma debug scope 15 1
 214  0060              #line 214 "e:\x-sense_svn\xp02\xp02\src\RF.c"
 214  0000              _SetUartTxBufBuffer .section 'code'
 214  0000              _SetUartTxBufBuffer proc
 214  0000              public _SetUartTxBufBuffer_2
 214  0000  0004[           local _SetUartTxBufBuffer_2 db 4 dup(?)	; 3,1
文件：RF.c         编译器版本 HGASM 0202 页次12

            00
            ]
 214  0000  0080     E  	mov ra,a
 214  0001  0080     R  	mov _SetUartTxBufBuffer_2[3],a
 214  0002              #pragma debug variable 8 15 _SetUartTxBufBuffer_2+3 "dest"
 214  0002              #pragma debug pointer 44 8 15
 214  0002              #pragma debug pointer 44 8 15
 214  0002              #pragma debug variable 44 15 _SetUartTxBufBuffer_2+0 "src"
 214  0002              #pragma debug variable 8 15 _SetUartTxBufBuffer_2+2 "len"
 217  0002              #line 217 "e:\x-sense_svn\xp02\xp02\src\RF.c"
 217  0002  0700     R  	mov a,_SetUartTxBufBuffer_2[2]
 217  0003  0080     R  	mov _Memcpy_2[4],a
 217  0004  0700     R  	mov a,_SetUartTxBufBuffer_2[0]
 217  0005  0080     R  	mov _Memcpy_2[2],a
 217  0006  0700     R  	mov a,_SetUartTxBufBuffer_2[1]
 217  0007  0080     R  	mov _Memcpy_2[3],a
 217  0008  0F00     R  	mov a,low (offset _UartSendBuf+3)
 217  0009  0300     E  	add a,ra
 217  000A  0080     R  	mov _Memcpy_2[0],a
 217  000B  0F00     R  	mov a,high (offset _UartSendBuf+3)
 217  000C  1F00     R  	clr _Memcpy_2[1]
 217  000D  1380     R  	adcm a,_Memcpy_2[1]
 217  000E              	fcall _Memcpy
 219  0015              #line 219 "e:\x-sense_svn\xp02\xp02\src\RF.c"
 219  0015  0700     R  	mov a,_SetUartTxBufBuffer_2[3]
 219  0016  0300     R  	add a,_SetUartTxBufBuffer_2[2]
 219  0017  0080     E  	mov ra,a
 221  0018              #line 221 "e:\x-sense_svn\xp02\xp02\src\RF.c"
 221  0018  0700     E  	mov a,ra
 221  0019  0003        	ret
 221  001A              _SetUartTxBufBuffer endp
 221  001A              #line 221 "e:\x-sense_svn\xp02\xp02\src\RF.c"
 221  001A              #pragma debug scope 1 1
 221  001A              ___pac equ [21]
 221  001A              ___pa equ [20]
 221  001A              public _UartSend
 221  001A              #pragma debug scope 16 1
 461  001A              #line 461 "e:\x-sense_svn\xp02\xp02\src\RF.c"
 461  0000              _UartSend .section 'code'
 461  0000              _UartSend proc
 461  0000              public _UartSend_2
 461  0000  0004[           local _UartSend_2 db 4 dup(?)	; 4,0
            00
            ]
 461  0004              #pragma debug variable 12 16 _UartSend_2+0 "UartMsgType"
 461  0004              #pragma debug variable 8 16 _UartSend_2+2 "MsgLevel1"
 461  0004              #pragma debug variable 8 16 _UartSend_2+3 "Data"
 464  0004              #line 464 "e:\x-sense_svn\xp02\xp02\src\RF.c"
 464  0000  0700     R  	mov a,_UartSend_2[0]
 464  0001  0080     R  	mov _RfAO[0],a
 464  0002  0700     R  	mov a,_UartSend_2[1]
 464  0003  0080     R  	mov _RfAO[1],a
 465  0004              #line 465 "e:\x-sense_svn\xp02\xp02\src\RF.c"
 465  0004  0700     R  	mov a,_UartSend_2[2]
 465  0005  0080     R  	mov _RfAO[2],a
 466  0006              #line 466 "e:\x-sense_svn\xp02\xp02\src\RF.c"
 466  0006  0700     R  	mov a,_UartSend_2[3]
 466  0007  0080     R  	mov _RfAO[3],a
 468  0008              #line 468 "e:\x-sense_svn\xp02\xp02\src\RF.c"
 468  0008  3495        	clr [21].1
文件：RF.c         编译器版本 HGASM 0202 页次13

 468  0009  3494        	clr [20].1
 469  000A              #line 469 "e:\x-sense_svn\xp02\xp02\src\RF.c"
 469  000A              ;# 469 "e:\x-sense_svn\xp02\xp02\src\RF.c" 1
 469  000A              	IF 1000>263690
 469  000A              ;# 469 "e:\x-sense_svn\xp02\xp02\src\RF.c" 1
 469  000A              	ERRMESSAGE 'the value 1000of the argument exceeds the maxinum 263690'
 469  000A              	ENDIF
 469  000A              ;# 469 "e:\x-sense_svn\xp02\xp02\src\RF.c" 1
 469  000A              	IF 1000<0
 469  000A              ;# 469 "e:\x-sense_svn\xp02\xp02\src\RF.c" 1
 469  000A              	ERRMESSAGE 'the value 1000 of the argument exceeds the mininum 0'
 469  000A              	ENDIF
 469  000A              ;# 469 "e:\x-sense_svn\xp02\xp02\src\RF.c" 1
 469  000A              	IF 1000==0
 469  000A              ;# 469 "e:\x-sense_svn\xp02\xp02\src\RF.c" 1
 469  000A              	JMP $
 469  000A              	ENDIF
 469  000A              ;# 469 "e:\x-sense_svn\xp02\xp02\src\RF.c" 1
 469  000A              	IF (1000>=1) AND (1000<( 4 + __PBP__ * 2))
 469  000A              ;# 469 "e:\x-sense_svn\xp02\xp02\src\RF.c" 1
 469  000A              	NOP
 469  000A              	ENDIF
 469  000A              ;# 469 "e:\x-sense_svn\xp02\xp02\src\RF.c" 1
 469  000A              	IF (1000>=2) AND (1000<( 4 + __PBP__ * 2))
 469  000A              ;# 469 "e:\x-sense_svn\xp02\xp02\src\RF.c" 1
 469  000A              	NOP
 469  000A              	ENDIF
 469  000A              ;# 469 "e:\x-sense_svn\xp02\xp02\src\RF.c" 1
 469  000A              	IF (1000>=3) AND (1000<( 4 + __PBP__ * 2))
 469  000A              ;# 469 "e:\x-sense_svn\xp02\xp02\src\RF.c" 1
 469  000A              	NOP
 469  000A              	ENDIF
 469  000A              ;# 469 "e:\x-sense_svn\xp02\xp02\src\RF.c" 1
 469  000A              	IF (1000>=4) AND (1000<( 4 + __PBP__ * 2)) AND ( __PBP__ > 0 )
 469  000A              ;# 469 "e:\x-sense_svn\xp02\xp02\src\RF.c" 1
 469  000A              	NOP
 469  000A              	ENDIF
 469  000A              ;# 469 "e:\x-sense_svn\xp02\xp02\src\RF.c" 1
 469  000A              	IF (1000>=5) AND (1000<( 4 + __PBP__ * 2)) AND ( __PBP__ > 0 )
 469  000A              ;# 469 "e:\x-sense_svn\xp02\xp02\src\RF.c" 1
 469  000A              	NOP
 469  000A              	ENDIF
 469  000A              ;# 469 "e:\x-sense_svn\xp02\xp02\src\RF.c" 1
 469  000A              	IF (1000>=6) AND (1000<( 4 + __PBP__ * 2))  AND ( __PBP__ > 1 )
 469  000A              ;# 469 "e:\x-sense_svn\xp02\xp02\src\RF.c" 1
 469  000A              	NOP
 469  000A              	ENDIF
 469  000A              ;# 469 "e:\x-sense_svn\xp02\xp02\src\RF.c" 1
 469  000A              	IF (1000>=7) AND (1000<( 4 + __PBP__ * 2))  AND ( __PBP__ > 1 )
 469  000A              ;# 469 "e:\x-sense_svn\xp02\xp02\src\RF.c" 1
 469  000A              	NOP
 469  000A              	ENDIF
 469  000A              ;# 469 "e:\x-sense_svn\xp02\xp02\src\RF.c" 1
 469  000A              	IF (1000>=8) AND (1000<( 4 + __PBP__ * 2))  AND ( __PBP__ > 2 )
 469  000A              ;# 469 "e:\x-sense_svn\xp02\xp02\src\RF.c" 1
 469  000A              	NOP
 469  000A              	ENDIF
 469  000A              ;# 469 "e:\x-sense_svn\xp02\xp02\src\RF.c" 1
 469  000A              	IF (1000==9)  AND ( __PBP__ > 2 )
 469  000A              ;# 469 "e:\x-sense_svn\xp02\xp02\src\RF.c" 1
文件：RF.c         编译器版本 HGASM 0202 页次14

 469  000A              	NOP
 469  000A              	ENDIF
 469  000A              ;# 469 "e:\x-sense_svn\xp02\xp02\src\RF.c" 1
 469  000A              	IF (1000< ( 8 + __PBP__ * 2)) AND (1000>( 3 + __PBP__ * 2))
 469  000A              ;# 469 "e:\x-sense_svn\xp02\xp02\src\RF.c" 1
 469  000A              	fcall __DELAY3 + ( 7 + __PBP__ * 2) -1000
 469  000A              	ENDIF
 469  000A              ;# 469 "e:\x-sense_svn\xp02\xp02\src\RF.c" 1
 469  000A              	IF (1000< ( 0404h + __PBP__ * 2)) AND (1000>( 7 + __PBP__ * 2))
 469  000A              ;# 469 "e:\x-sense_svn\xp02\xp02\src\RF.c" 1
 469  000A  0FF8        	MOV A,(1000-( 4 + __PBP__ * 2))/4
 469  000B              ;# 469 "e:\x-sense_svn\xp02\xp02\src\RF.c" 1
 469  000B              	fcall __DELAYX3 + 3 -((1000-( 4 + __PBP__ * 2)) MOD 4) 
 469  0012              	ENDIF
 469  0012              ;# 469 "e:\x-sense_svn\xp02\xp02\src\RF.c" 1
 469  0012              	IF (1000< ( 040bh + __PBP__ * 2)) AND (1000> ( 0403h + __PBP__ * 2))
 469  0012              ;# 469 "e:\x-sense_svn\xp02\xp02\src\RF.c" 1
 469  0012              	MOV A,0 
 469  0012              ;# 469 "e:\x-sense_svn\xp02\xp02\src\RF.c" 1
 469  0012              	fcall __DELAYX6 + ( 040ah + __PBP__ * 2) -1000
 469  0012              	ENDIF
 469  0012              ;# 469 "e:\x-sense_svn\xp02\xp02\src\RF.c" 1
 469  0012              	IF (1000 >= ( 040bh + __PBP__ * 2)) AND ((((1000-( 9 + __PBP__ * 2))%0402h)/4+1)>256)
 469  0012              ;# 469 "e:\x-sense_svn\xp02\xp02\src\RF.c" 1
 469  0012              	MOV A,(1000-( 9 + __PBP__ * 2))/0402h
 469  0012              ;# 469 "e:\x-sense_svn\xp02\xp02\src\RF.c" 1
 469  0012              	MOV _builtin_holtek_delay_2,A
 469  0012              ;# 469 "e:\x-sense_svn\xp02\xp02\src\RF.c" 1
 469  0012              	MOV A,0
 469  0012              ;# 469 "e:\x-sense_svn\xp02\xp02\src\RF.c" 1
 469  0012              	fcall __DELAYY5 +5- (((1000-( 9 + __PBP__ * 2))%0402h)%6) 
 469  0012              	ENDIF
 469  0012              ;# 469 "e:\x-sense_svn\xp02\xp02\src\RF.c" 1
 469  0012              	IF (1000 >= ( 040bh + __PBP__ * 2)) AND ((((1000-( 9 + __PBP__ * 2))%0402h)/4+1)<=256)
 469  0012              ;# 469 "e:\x-sense_svn\xp02\xp02\src\RF.c" 1
 469  0012              	MOV A,(1000-( 9 + __PBP__ * 2))/0402h
 469  0012              ;# 469 "e:\x-sense_svn\xp02\xp02\src\RF.c" 1
 469  0012              	MOV _builtin_holtek_delay_2,A
 469  0012              ;# 469 "e:\x-sense_svn\xp02\xp02\src\RF.c" 1
 469  0012              	MOV A,((1000-( 9 + __PBP__ * 2))%0402h)/4+1
 469  0012              ;# 469 "e:\x-sense_svn\xp02\xp02\src\RF.c" 1
 469  0012              	fcall __DELAYY3 +3-(((1000-( 9 + __PBP__ * 2))%0402h)%4) 
 469  0012              	ENDIF
 471  0012              #line 471 "e:\x-sense_svn\xp02\xp02\src\RF.c"
 471  0012  1F5D        	clr [93]
 471  0013              _L57:
 471  0013              #line 471 "e:\x-sense_svn\xp02\xp02\src\RF.c"
 471  0013  38D9        	snz [89].1
 471  0014  2800     R  	jmp _L57
 472  0015              #line 472 "e:\x-sense_svn\xp02\xp02\src\RF.c"
 472  0015  0700     R  	mov a,_UartSend_2[2]
 472  0016  0080     R  	mov _SetUartTxBufByte_2[0],a
 472  0017  0F00        	mov a,0
 472  0018              	fcall _SetUartTxBufByte
 472  001F  0080     E  	mov ra,a
 473  0020              #line 473 "e:\x-sense_svn\xp02\xp02\src\RF.c"
 473  0020  0700     R  	mov a,_UartSend_2[0]
 473  0021  0C01        	xor a,1
 473  0022  0500     R  	or a,_UartSend_2[1]
 473  0023  390A        	snz z
文件：RF.c         编译器版本 HGASM 0202 页次15

 473  0024  2800     R  	jmp _L58
 475  0025              #line 475 "e:\x-sense_svn\xp02\xp02\src\RF.c"
 475  0025  0700     R  	mov a,_RfAO[6]
 475  0026  0080     R  	mov _SetUartTxBufByte_2[0],a
 475  0027  0700     E  	mov a,ra
 475  0028              	fcall _SetUartTxBufByte
 475  002F  0080     E  	mov ra,a
 476  0030              #line 476 "e:\x-sense_svn\xp02\xp02\src\RF.c"
 476  0030  0700     R  	mov a,_RfAO[4]
 476  0031  0080     R  	mov _SetUartTxBufByte_2[0],a
 476  0032  0700     E  	mov a,ra
 476  0033              	fcall _SetUartTxBufByte
 476  003A  0080     E  	mov ra,a
 476  003B              _L58:
 479  003B              #line 479 "e:\x-sense_svn\xp02\xp02\src\RF.c"
 479  003B  1E00     R  	snz _UartSend_2[3]
 479  003C  2800     R  	jmp _L59
 481  003D              #line 481 "e:\x-sense_svn\xp02\xp02\src\RF.c"
 481  003D  0700     R  	mov a,_UartSend_2[3]
 481  003E  0080     R  	mov _SetUartTxBufByte_2[0],a
 481  003F  0700     E  	mov a,ra
 481  0040              	fcall _SetUartTxBufByte
 481  0047  0080     E  	mov ra,a
 481  0048              _L59:
 484  0048              #line 484 "e:\x-sense_svn\xp02\xp02\src\RF.c"
 484  0048  0700     E  	mov a,ra
 484  0049  0080     R  	mov _UartWriteFrame_2[0],a
 484  004A  0700     R  	mov a,_UartSend_2[0]
 484  004B              	fcall _UartWriteFrame
 485  0052              #line 485 "e:\x-sense_svn\xp02\xp02\src\RF.c"
 485  0052  1F5D        	clr [93]
 485  0053              _L61:
 485  0053  38D9        	snz [89].1
 485  0054  2800     R  	jmp _L61
 487  0055              #line 487 "e:\x-sense_svn\xp02\xp02\src\RF.c"
 487  0055  3094        	set [20].1
 487  0056  3095        	set [21].1
 489  0057              #line 489 "e:\x-sense_svn\xp02\xp02\src\RF.c"
 489  0057  0F01        	mov a,1
 489  0058  0080     E  	mov ra,a
 489  0059  1F00     E  	clr rb
 489  005A  0003        	ret
 489  005B              _UartSend endp
 489  005B              #line 489 "e:\x-sense_svn\xp02\xp02\src\RF.c"
 489  005B              #pragma debug scope 1 1
 489  005B              public _PollingUartSendTimeout
 489  005B              #pragma debug scope 17 1
 135  005B              #line 135 "e:\x-sense_svn\xp02\xp02\src\RF.c"
 135  0000              _PollingUartSendTimeout .section 'code'
 135  0000              _PollingUartSendTimeout proc
 135  0000              public _PollingUartSendTimeout_2
 135  0000  0002[           local _PollingUartSendTimeout_2 db 2 dup(?)	; 2,0
            00
            ]
 135  0002              #pragma debug pointer 45 7 17
 135  0002              #pragma debug pointer 45 7 17
 135  0002              #pragma debug variable 45 17 _PollingUartSendTimeout_2+0 "SendCnt"
 138  0002              #line 138 "e:\x-sense_svn\xp02\xp02\src\RF.c"
 138  0000  0F02        	mov a,2
 138  0001  0200     R  	sub a,_PollingUartSendTimeout_2[0]
文件：RF.c         编译器版本 HGASM 0202 页次16

 138  0002  0F00        	mov a,0
 138  0003  1200     R  	sbc a,_PollingUartSendTimeout_2[1]
 138  0004  3C0A        	sz c
 138  0005  2800     R  	jmp _L63
 141  0006              #line 141 "e:\x-sense_svn\xp02\xp02\src\RF.c"
 141  0006  0F0A        	mov a,10
 141  0007  0080     E  	mov _TmrDeleteTimer_2[0],a
 141  0008  1F00     E  	clr _TmrDeleteTimer_2[1]
 141  0009              	fcall _TmrDeleteTimer
 141  0010  2800     R  	jmp _L62
 141  0011              _L63:
 145  0011              #line 145 "e:\x-sense_svn\xp02\xp02\src\RF.c"
 145  0011  0700     R  	mov a,_RfAO[3]
 145  0012  0080     R  	mov _UartSend_2[3],a
 145  0013  0700     R  	mov a,_RfAO[2]
 145  0014  0080     R  	mov _UartSend_2[2],a
 145  0015  0700     R  	mov a,_RfAO[0]
 145  0016  0080     R  	mov _UartSend_2[0],a
 145  0017  0700     R  	mov a,_RfAO[1]
 145  0018  0080     R  	mov _UartSend_2[1],a
 145  0019              	fcall _UartSend
 145  0020              _L62:
 145  0020  0003        	ret
 145  0021              _PollingUartSendTimeout endp
 145  0021              #line 145 "e:\x-sense_svn\xp02\xp02\src\RF.c"
 145  0021              #pragma debug scope 1 1
 145  0021              public _UartSendMsg
 145  0021              #pragma debug scope 18 1
 500  0021              #line 500 "e:\x-sense_svn\xp02\xp02\src\RF.c"
 500  0000              _UartSendMsg .section 'code'
 500  0000              _UartSendMsg proc
 500  0000              public _UartSendMsg_2
 500  0000  0004[           local _UartSendMsg_2 db 4 dup(?)	; 4,0
            00
            ]
 500  0004              #pragma debug variable 12 18 _UartSendMsg_2+0 "UartMsgType"
 500  0004              #pragma debug variable 8 18 _UartSendMsg_2+2 "MsgLevel1"
 500  0004              #pragma debug variable 8 18 _UartSendMsg_2+3 "Data"
 501  0004              #line 501 "e:\x-sense_svn\xp02\xp02\src\RF.c"
 501  0000  0700     R  	mov a,_UartSendMsg_2[3]
 501  0001  0080     R  	mov _UartSend_2[3],a
 501  0002  0700     R  	mov a,_UartSendMsg_2[2]
 501  0003  0080     R  	mov _UartSend_2[2],a
 501  0004  0700     R  	mov a,_UartSendMsg_2[0]
 501  0005  0080     R  	mov _UartSend_2[0],a
 501  0006  0700     R  	mov a,_UartSendMsg_2[1]
 501  0007  0080     R  	mov _UartSend_2[1],a
 501  0008              	fcall _UartSend
 502  000F              #line 502 "e:\x-sense_svn\xp02\xp02\src\RF.c"
 502  000F  1F00     E  	clr _TmrInsertTimer_2[4]
 502  0010  1F00     E  	clr _TmrInsertTimer_2[5]
 502  0011  0F64        	mov a,100
 502  0012  0080     E  	mov _TmrInsertTimer_2[2],a
 502  0013  1F00     E  	clr _TmrInsertTimer_2[3]
 502  0014  0F0A        	mov a,10
 502  0015  0080     E  	mov _TmrInsertTimer_2[0],a
 502  0016  1F00     E  	clr _TmrInsertTimer_2[1]
 502  0017              	fcall _TmrInsertTimer
 502  001E  0003        	ret
 502  001F              _UartSendMsg endp
文件：RF.c         编译器版本 HGASM 0202 页次17

 502  001F              #line 502 "e:\x-sense_svn\xp02\xp02\src\RF.c"
 502  001F              #pragma debug scope 1 1
 502  001F              public _UartSendAck
 502  001F              #pragma debug scope 19 1
 513  001F              #line 513 "e:\x-sense_svn\xp02\xp02\src\RF.c"
 513  0000              _UartSendAck .section 'code'
 513  0000              _UartSendAck proc
 513  0000              public _UartSendAck_2
 513  0000  0003[           local _UartSendAck_2 db 3 dup(?)	; 2,1
            00
            ]
 513  0000  0080     R  	mov _UartSendAck_2[2],a
 513  0001              #pragma debug variable 8 19 _UartSendAck_2+2 "UartMsgType"
 513  0001              #pragma debug variable 8 19 _UartSendAck_2+0 "TypeAck"
 513  0001              #pragma debug variable 8 19 _UartSendAck_2+1 "UartMsgLevel"
 515  0001              #line 515 "e:\x-sense_svn\xp02\xp02\src\RF.c"
 515  0001  0700     R  	mov a,_UartSendAck_2[0]
 515  0002  0080     R  	mov _SetUartTxBufByte_2[0],a
 515  0003  0F00        	mov a,0
 515  0004              	fcall _SetUartTxBufByte
 515  000B  0080     E  	mov ra,a
 516  000C              #line 516 "e:\x-sense_svn\xp02\xp02\src\RF.c"
 516  000C  0700     R  	mov a,_UartSendAck_2[1]
 516  000D  0080     R  	mov _SetUartTxBufByte_2[0],a
 516  000E  0700     E  	mov a,ra
 516  000F              	fcall _SetUartTxBufByte
 516  0016  0080     E  	mov ra,a
 517  0017              #line 517 "e:\x-sense_svn\xp02\xp02\src\RF.c"
 517  0017  0700     E  	mov a,ra
 517  0018  0080     R  	mov _UartWriteFrame_2[0],a
 517  0019  0700     R  	mov a,_UartSendAck_2[2]
 517  001A              	fcall _UartWriteFrame
 520  0021              #line 520 "e:\x-sense_svn\xp02\xp02\src\RF.c"
 520  0021  0F01        	mov a,1
 520  0022  0080     E  	mov ra,a
 520  0023  1F00     E  	clr rb
 520  0024  0003        	ret
 520  0025              _UartSendAck endp
 520  0025              #line 520 "e:\x-sense_svn\xp02\xp02\src\RF.c"
 520  0025              #pragma debug scope 1 1
 520  0007              @crom	.section 'crom'
 520  0007              _LC1:
 520  0007              	db 043h,072h,063h,020h,069h,073h,020h,06fh,06bh,0ah
 520  000C              	db 00h
 520  000C              @crom	.section 'crom'
 520  000C              _LC2:
 520  000C              	db 052h,078h,04ch,06fh,063h,061h,074h,069h,06fh,06eh
 520  0011              	db 03dh,025h,064h,0ah,00h
 520  0014              @crom	.section 'crom'
 520  0014              _LC3:
 520  0014              	db 043h,072h,063h,020h,045h,072h,072h,0ah,00h
 520  0018              public _UartService
 520  0018              #pragma debug scope 20 1
 388  0018              #line 388 "e:\x-sense_svn\xp02\xp02\src\RF.c"
 388  0000              _UartService .section 'code'
 388  0000              _UartService proc
 388  0000  000A[           local _UartService_2 db 10 dup(?)	; 0,10
            00
            ]
 388  000A              #pragma debug variable 8 20 _UartService_2+8 "offset"
文件：RF.c         编译器版本 HGASM 0202 页次18

 388  000A              #pragma debug variable 8 20 _UartService_2+9 "rx_value_len"
 388  0000              #pragma debug scope 21 20
 388  0000              ;begin block, line: 388.-1
 388  0000              #pragma debug scope 22 21
 388  0000              ;begin block, line: 388.-1
 348  0000              #line 348 "e:\x-sense_svn\xp02\xp02\src\RF.c"
 348  0000  0700     R  	mov a,_UartQueueIn[0]
 348  0001  0080     E  	mov rf,a
 348  0002  0700     R  	mov a,_UartQueueIn[1]
 348  0003  0080     E  	mov rg,a
 348  0004              #pragma debug scope 21 20
 348  0004              #pragma debug scope 20 1
 395  0004              #line 395 "e:\x-sense_svn\xp02\xp02\src\RF.c"
 395  0004  0700     R  	mov a,___rx_in_3256[0]
 395  0005  0080     E  	mov rb,a
 395  0006  0700     R  	mov a,___rx_in_3256[1]
 395  0007  0080     E  	mov rc,a
 395  0008              _L68:
 395  0008              #line 395 "e:\x-sense_svn\xp02\xp02\src\RF.c"
 395  0008  0F5F        	mov a,95
 395  0009  0200     E  	sub a,rb
 395  000A  0F00        	mov a,0
 395  000B  1200     E  	sbc a,rc
 395  000C  3C0A        	sz c
 395  000D  2800     R  	jmp _L70
 395  000E  0700     E  	mov a,rb
 395  000F  0080     R  	mov ___rx_in_3256[0],a
 395  0010  0700     E  	mov a,rc
 395  0011  0080     R  	mov ___rx_in_3256[1],a
 395  0012              _L73:
 395  0012              #pragma debug scope 23 20
 395  0012              ;begin block, line: 395.-1
 395  0012              #pragma debug scope 24 23
 395  0012              ;begin block, line: 395.-1
  78  0012              #line 78 "e:\x-sense_svn\xp02\xp02\src\RF.c"
  78  0012  1F00     R  	clr _UartService_2[8]
  78  0013  2800     R  	jmp _L71
  78  0014              _L70:
  78  0014              #pragma debug scope 23 20
  78  0014              #pragma debug scope 20 1
  78  0014              #pragma debug scope 25 20
  78  0014              ;begin block, line: 78.-1
  78  0014              #pragma debug scope 26 25
  78  0014              ;begin block, line: 78.-1
 348  0014              #line 348 "e:\x-sense_svn\xp02\xp02\src\RF.c"
 348  0014  0700     R  	mov a,_UartQueueOut[0]
 348  0015  0080     E  	mov rd,a
 348  0016  0700     R  	mov a,_UartQueueOut[1]
 348  0017  0080     E  	mov re,a
 348  0018  0700     E  	mov a,rf
 348  0019  0200     E  	sub a,rd
 348  001A  0700     E  	mov a,rg
 348  001B  1200     E  	sbc a,re
 348  001C  3F0A        	sz cz
 348  001D  2800     R  	jmp _L119
 348  001E              #pragma debug scope 25 20
 348  001E              #pragma debug scope 20 1
 348  001E              #pragma debug scope 27 20
 348  001E              ;begin block, line: 348.-1
 348  001E              #pragma debug scope 28 27
文件：RF.c         编译器版本 HGASM 0202 页次19

 348  001E              ;begin block, line: 348.-1
 366  001E              #line 366 "e:\x-sense_svn\xp02\xp02\src\RF.c"
 366  001E  0700     E  	mov a,rd
 366  001F  0A00     R  	sub a,low offset _UartQueueBuf[64]
 366  0020  0700     E  	mov a,re
 366  0021  0800     R  	sbc a,high offset _UartQueueBuf[64]
 366  0022  380A        	snz c
 366  0023  2800     R  	jmp _L69
 369  0024              #line 369 "e:\x-sense_svn\xp02\xp02\src\RF.c"
 369  0024  0F00     R  	mov a,low offset _UartQueueBuf
 369  0025  0080     R  	mov _UartQueueOut[0],a
 369  0026  0F00     R  	mov a,high offset _UartQueueBuf
 369  0027  0080     R  	mov _UartQueueOut[1],a
 369  0028              _L69:
 372  0028              #line 372 "e:\x-sense_svn\xp02\xp02\src\RF.c"
 372  0028  0700     R  	mov a,_UartQueueOut[0]
 372  0029  0080     E  	mov rd,a
 372  002A  0700     R  	mov a,_UartQueueOut[1]
 372  002B  0080     E  	mov re,a
 372  002C  0F01        	mov a,1
 372  002D  0300     E  	add a,rd
 372  002E  0080     R  	mov _UartQueueOut[0],a
 372  002F  0F00        	mov a,0
 372  0030  1300     E  	adc a,re
 372  0031  0080     R  	mov _UartQueueOut[1],a
 372  0032  0700     E  	mov a,rd
 372  0033  0083        	mov mp,a
 372  0034  0700     E  	mov a,re
 372  0035  0084        	mov sbp,a
 372  0036              	fcall _Crom2Prom
 372  003D  0080     E  	mov ra,a
 372  003E              #pragma debug scope 27 20
 372  003E              #pragma debug scope 20 1
 398  003E              #line 398 "e:\x-sense_svn\xp02\xp02\src\RF.c"
 398  003E  0F00     R  	mov a,low offset _UartReadBuf
 398  003F  0300     E  	add a,rb
 398  0040  0083        	mov mp,a
 398  0041  0F00     R  	mov a,high offset _UartReadBuf
 398  0042  1300     E  	adc a,rc
 398  0043  0084        	mov sbp,a
 398  0044  0700     E  	mov a,ra
 398  0045  0082        	mov ir,a
 398  0046  1480     E  	inc rb
 398  0047  3D0A        	sz z
 398  0048  1480     E  	inc rc
 398  0049  2800     R  	jmp _L68
 398  004A              _L119:
 398  004A  0700     E  	mov a,rb
 398  004B  0080     R  	mov ___rx_in_3256[0],a
 398  004C  0700     E  	mov a,rc
 398  004D  0080     R  	mov ___rx_in_3256[1],a
 401  004E              #line 401 "e:\x-sense_svn\xp02\xp02\src\RF.c"
 401  004E  0F03        	mov a,3
 401  004F  0200     E  	sub a,rb
 401  0050  0F00        	mov a,0
 401  0051  1200     E  	sbc a,rc
 401  0052  3C0A        	sz c
 401  0053  2800     R  	jmp _L67
 401  0054  2800     R  	jmp _L73
 401  0055              _L103:
文件：RF.c         编译器版本 HGASM 0202 页次20

 409  0055              #line 409 "e:\x-sense_svn\xp02\xp02\src\RF.c"
 409  0055  0F00     R  	mov a,low offset _UartReadBuf
 409  0056  0300     E  	add a,rd
 409  0057  0083        	mov mp,a
 409  0058  0F00     R  	mov a,high offset _UartReadBuf
 409  0059  1300     E  	adc a,re
 409  005A  0084        	mov sbp,a
 409  005B              	fcall _Crom2Prom
 409  0062  0080     E  	mov ra,a
 409  0063  0700     E  	mov a,ra
 409  0064  0AAF        	sub a,175
 409  0065  3D0A        	sz z
 409  0066  2800     R  	jmp _L75
 411  0067              #line 411 "e:\x-sense_svn\xp02\xp02\src\RF.c"
 411  0067  1480     R  	inc _UartService_2[8]
 411  0068              _L71:
 407  0068              #line 407 "e:\x-sense_svn\xp02\xp02\src\RF.c"
 407  0068  0700     R  	mov a,___rx_in_3256[0]
 407  0069  0080     E  	mov rb,a
 407  006A  0700     R  	mov a,___rx_in_3256[1]
 407  006B  0080     E  	mov rc,a
 407  006C  0700     R  	mov a,_UartService_2[8]
 407  006D  0080     E  	mov rd,a
 407  006E  1F00     E  	clr re
 407  006F  0700     E  	mov a,rb
 407  0070  0200     E  	sub a,rd
 407  0071  0080     E  	mov rf,a
 407  0072  0700     E  	mov a,rc
 407  0073  1200     E  	sbc a,re
 407  0074  0080     E  	mov rg,a
 407  0075  0F04        	mov a,4
 407  0076  0200     E  	sub a,rf
 407  0077  0F00        	mov a,0
 407  0078  1200     E  	sbc a,rg
 407  0079  380A        	snz c
 407  007A  2800     R  	jmp _L103
 407  007B  2800     R  	jmp _L78
 407  007C              _L75:
 416  007C              #line 416 "e:\x-sense_svn\xp02\xp02\src\RF.c"
 416  007C  0F00     R  	mov a,low (offset _UartReadBuf+2)
 416  007D  0300     E  	add a,rd
 416  007E  0083        	mov mp,a
 416  007F  0F00     R  	mov a,high (offset _UartReadBuf+2)
 416  0080  1300     E  	adc a,re
 416  0081  0084        	mov sbp,a
 416  0082              	fcall _Crom2Prom
 416  0089  0080     E  	mov ra,a
 416  008A  0700     E  	mov a,ra
 416  008B  0B04        	add a,4
 416  008C  0080     R  	mov _UartService_2[9],a
 418  008D              #line 418 "e:\x-sense_svn\xp02\xp02\src\RF.c"
 418  008D  0F0F        	mov a,15
 418  008E  0200     R  	sub a,_UartService_2[9]
 418  008F  3C0A        	sz c
 418  0090  2800     R  	jmp _L77
 420  0091              #line 420 "e:\x-sense_svn\xp02\xp02\src\RF.c"
 420  0091  0F02        	mov a,2
 420  0092  0380     R  	addm a,_UartService_2[8]
 420  0093              _L77:
 424  0093              #line 424 "e:\x-sense_svn\xp02\xp02\src\RF.c"
文件：RF.c         编译器版本 HGASM 0202 页次21

 424  0093  0700     R  	mov a,_UartService_2[8]
 424  0094  0080     E  	mov rd,a
 424  0095  1F00     E  	clr re
 424  0096  0700     E  	mov a,rb
 424  0097  0200     E  	sub a,rd
 424  0098  0080     E  	mov rf,a
 424  0099  0700     E  	mov a,rc
 424  009A  1200     E  	sbc a,re
 424  009B  0080     E  	mov rg,a
 424  009C  0700     E  	mov a,rf
 424  009D  0080     R  	mov _UartService_2[6],a
 424  009E  0700     E  	mov a,rg
 424  009F  0080     R  	mov _UartService_2[7],a
 424  00A0  0700     R  	mov a,_UartService_2[9]
 424  00A1  0080     E  	mov rf,a
 424  00A2  1F00     E  	clr rg
 424  00A3  0700     R  	mov a,_UartService_2[6]
 424  00A4  0200     E  	sub a,rf
 424  00A5  0700     R  	mov a,_UartService_2[7]
 424  00A6  1200     E  	sbc a,rg
 424  00A7  380A        	snz c
 424  00A8  2800     R  	jmp _L78
 430  00A9              #line 430 "e:\x-sense_svn\xp02\xp02\src\RF.c"
 430  00A9  1500     R  	deca _UartService_2[9]
 430  00AA  0080     E  	mov rh,a
 430  00AB  0F00     R  	mov a,low offset _UartReadBuf
 430  00AC  0300     E  	add a,rd
 430  00AD  0080     E  	mov rf,a
 430  00AE  0F00     R  	mov a,high offset _UartReadBuf
 430  00AF  1300     E  	adc a,re
 430  00B0  0080     E  	mov rg,a
 430  00B1              #pragma debug scope 29 20
 430  00B1              ;begin block, line: 430.-1
 430  00B1              #pragma debug scope 30 29
 430  00B1              ;begin block, line: 430.-1
  78  00B1              #line 78 "e:\x-sense_svn\xp02\xp02\src\RF.c"
  78  00B1  1F00     E  	clr ra
  78  00B2              _L79:
  79  00B2              #line 79 "e:\x-sense_svn\xp02\xp02\src\RF.c"
  79  00B2  1580     E  	dec rh
  79  00B3  1600     E  	siza rh
  79  00B4  2800     R  	jmp _LI1
  79  00B5  2800     R  	jmp _L84
  79  00B6              _LI1:
  90  00B6              #line 90 "e:\x-sense_svn\xp02\xp02\src\RF.c"
  90  00B6  0700     E  	mov a,rf
  90  00B7  0083        	mov mp,a
  90  00B8  0700     E  	mov a,rg
  90  00B9  0084        	mov sbp,a
  90  00BA              	fcall _Crom2Prom
  90  00C1  0080     E  	mov rb,a
  90  00C2  0700     E  	mov a,rb
  90  00C3  0080     R  	mov _UartService_2[6],a
  90  00C4  1F00     R  	clr _UartService_2[7]
  90  00C5  1F00     R  	clr _UartService_2[4]
  90  00C6  0F80        	mov a,-128
  90  00C7  0080     E  	mov rb,a
  90  00C8  1F00     E  	clr rc
  90  00C9              _L85:
  82  00C9              #line 82 "e:\x-sense_svn\xp02\xp02\src\RF.c"
文件：RF.c         编译器版本 HGASM 0202 页次22

  82  00C9  3800     E  	snz ra.7
  82  00CA  2800     R  	jmp _L80
  83  00CB              #line 83 "e:\x-sense_svn\xp02\xp02\src\RF.c"
  83  00CB  0700     E  	mov a,ra
  83  00CC  0380     E  	addm a,ra
  84  00CD              #line 84 "e:\x-sense_svn\xp02\xp02\src\RF.c"
  84  00CD  0F07        	mov a,7
  84  00CE  0480     E  	xorm a,ra
  84  00CF  2800     R  	jmp _L81
  84  00D0              _L80:
  87  00D0              #line 87 "e:\x-sense_svn\xp02\xp02\src\RF.c"
  87  00D0  0700     E  	mov a,ra
  87  00D1  0380     E  	addm a,ra
  87  00D2              _L81:
  90  00D2              #line 90 "e:\x-sense_svn\xp02\xp02\src\RF.c"
  90  00D2  0700     R  	mov a,_UartService_2[6]
  90  00D3  0080     E  	mov rd,a
  90  00D4  0700     R  	mov a,_UartService_2[7]
  90  00D5  0080     E  	mov re,a
  90  00D6  0700     E  	mov a,rb  
  90  00D7  0680     E  	andm a,rd  
  90  00D8  0700     E  	mov a,rc  
  90  00D9  0680     E  	andm a,re
  90  00DA  0700     E  	mov a,rd
  90  00DB  0500     E  	or a,re
  90  00DC  3D0A        	sz z
  90  00DD  2800     R  	jmp _L82
  91  00DE              #line 91 "e:\x-sense_svn\xp02\xp02\src\RF.c"
  91  00DE  0F07        	mov a,7
  91  00DF  0480     E  	xorm a,ra
  91  00E0              _L82:
  81  00E0              #line 81 "e:\x-sense_svn\xp02\xp02\src\RF.c"
  81  00E0  0700     E  	mov a,rb
  81  00E1  0080     E  	mov rd,a
  81  00E2  0700     E  	mov a,rc
  81  00E3  0080     E  	mov re,a
  81  00E4  1A80     E  	rlc re
  81  00E5  1F00     E  	clr rd
  81  00E6  1A80     E  	rlc rd
  81  00E7  1F00     E  	clr re
  81  00E8  0700     E  	mov a,rd
  81  00E9  0380     E  	addm a,rb
  81  00EA  0700     E  	mov a,re
  81  00EB  1380     E  	adcm a,rc
  81  00EC  1A00     E  	rlca rc
  81  00ED  1B80     E  	rrc rc
  81  00EE  1B80     E  	rrc rb
  81  00EF  1480     R  	inc _UartService_2[4]
  81  00F0  0700     R  	mov a,_UartService_2[4]
  81  00F1  0A08        	sub a,8
  81  00F2  390A        	snz z
  81  00F3  2800     R  	jmp _L85
  94  00F4              #line 94 "e:\x-sense_svn\xp02\xp02\src\RF.c"
  94  00F4  1480     E  	inc rf
  94  00F5  3D0A        	sz z
  94  00F6  1480     E  	inc rg
  94  00F7  2800     R  	jmp _L79
  94  00F8              _L84:
  94  00F8              #pragma debug scope 29 20
  94  00F8              #pragma debug scope 20 1
文件：RF.c         编译器版本 HGASM 0202 页次23

 430  00F8              #line 430 "e:\x-sense_svn\xp02\xp02\src\RF.c"
 430  00F8  0700     R  	mov a,_UartService_2[8]
 430  00F9  0080     R  	mov _UartService_2[4],a
 430  00FA  1F00     R  	clr _UartService_2[5]
 430  00FB  0700     R  	mov a,_UartService_2[9]
 430  00FC  0300     R  	add a,_UartService_2[4]
 430  00FD  0080     E  	mov rb,a
 430  00FE  1F05        	clr acc
 430  00FF  1300     R  	adc a,_UartService_2[5]
 430  0100  0080     E  	mov rc,a
 430  0101  0F00     R  	mov a,low (offset _UartReadBuf-1)
 430  0102  0300     E  	add a,rb
 430  0103  0083        	mov mp,a
 430  0104  0F00     R  	mov a,high (offset _UartReadBuf-1)
 430  0105  1300     E  	adc a,rc
 430  0106  0084        	mov sbp,a
 430  0107              	fcall _Crom2Prom
 430  010E  0080     E  	mov rb,a
 430  010F  0700     E  	mov a,ra
 430  0110  0200     E  	sub a,rb
 430  0111  390A        	snz z
 430  0112  2800     R  	jmp _L86
 432  0113              #line 432 "e:\x-sense_svn\xp02\xp02\src\RF.c"
 432  0113  0F00     R  	mov a,low offset _LC1
 432  0114  0080     E  	mov _printf_2[0],a
 432  0115  0F00     R  	mov a,high offset _LC1
 432  0116  0080     E  	mov _printf_2[1],a
 432  0117              	fcall _printf
 432  011E              #pragma debug scope 31 20
 432  011E              ;begin block, line: 432.-1
 432  011E              #pragma debug scope 32 31
 432  011E              ;begin block, line: 432.-1
 432  011E              #pragma debug array 46 8 4 32
 432  011E              #pragma debug array 46 8 4 32
 432  011E              #pragma debug variable 46 32 _UartService_2+0 "DataBuf"
 646  011E              #line 646 "e:\x-sense_svn\xp02\xp02\src\RF.c"
 646  011E  1F00     R  	clr _UartService_2[0]
 646  011F  1F00     R  	clr _UartService_2[1]
 646  0120  1F00     R  	clr _UartService_2[2]
 646  0121  1F00     R  	clr _UartService_2[3]
 647  0122              #line 647 "e:\x-sense_svn\xp02\xp02\src\RF.c"
 647  0122  0F00     R  	mov a,low (offset _UartReadBuf+1)
 647  0123  0300     R  	add a,_UartService_2[4]
 647  0124  0083        	mov mp,a
 647  0125  0F00     R  	mov a,high (offset _UartReadBuf+1)
 647  0126  1300     R  	adc a,_UartService_2[5]
 647  0127  0084        	mov sbp,a
 647  0128              	fcall _Crom2Prom
 647  012F  0080     R  	mov _UartService_2[6],a
 650  0130              #line 650 "e:\x-sense_svn\xp02\xp02\src\RF.c"
 650  0130  0F00     R  	mov a,low (offset _UartReadBuf+2)
 650  0131  0300     R  	add a,_UartService_2[4]
 650  0132  0083        	mov mp,a
 650  0133  0F00     R  	mov a,high (offset _UartReadBuf+2)
 650  0134  1300     R  	adc a,_UartService_2[5]
 650  0135  0084        	mov sbp,a
 650  0136              	fcall _Crom2Prom
 650  013D  0080     R  	mov _Memcpy_2[4],a
 650  013E  0F00     R  	mov a,low (offset _UartReadBuf+3)
 650  013F  0300     R  	add a,_UartService_2[4]
文件：RF.c         编译器版本 HGASM 0202 页次24

 650  0140  0080     R  	mov _Memcpy_2[2],a
 650  0141  0F00     R  	mov a,high (offset _UartReadBuf+3)
 650  0142  1300     R  	adc a,_UartService_2[5]
 650  0143  0080     R  	mov _Memcpy_2[3],a
 650  0144  0F00     R  	mov a,low offset _UartService_2
 650  0145  0080     R  	mov _Memcpy_2[0],a
 650  0146  0F00     R  	mov a,high offset _UartService_2
 650  0147  0080     R  	mov _Memcpy_2[1],a
 650  0148              	fcall _Memcpy
 667  014F              #line 667 "e:\x-sense_svn\xp02\xp02\src\RF.c"
 667  014F  1700     R  	sdza _UartService_2[6]
 667  0150  2800     R  	jmp _LI2
 667  0151  2800     R  	jmp _L88
 667  0152              _LI2:
 667  0152  0700     R  	mov a,_UartService_2[6]
 667  0153  0A03        	sub a,3
 667  0154  390A        	snz z
 667  0155  2800     R  	jmp _L102
 667  0156  2800     R  	jmp _L120
 667  0157              _L88:
 670  0157              #line 670 "e:\x-sense_svn\xp02\xp02\src\RF.c"
 670  0157  0700     R  	mov a,_UartService_2[1]
 670  0158  0080     E  	mov ra,a
 670  0159  0700     R  	mov a,_UartService_2[0]
 670  015A  0080     R  	mov _UartService_2[4],a
 670  015B              #pragma debug scope 33 32
 670  015B              ;begin block, line: 670.-1
 670  015B              #pragma debug scope 34 33
 670  015B              ;begin block, line: 670.-1
 532  015B              #line 532 "e:\x-sense_svn\xp02\xp02\src\RF.c"
 532  015B  1700     R  	sdza _UartService_2[4]
 532  015C  2800     R  	jmp _L90
 534  015D              #line 534 "e:\x-sense_svn\xp02\xp02\src\RF.c"
 534  015D  0700     R  	mov a,_RfAO[2]
 534  015E  0080     R  	mov _UartService_2[4],a
 534  015F  0700     R  	mov a,_UartService_2[4]
 534  0160  0200     E  	sub a,ra
 534  0161  390A        	snz z
 534  0162  2800     R  	jmp _L102
 536  0163              #line 536 "e:\x-sense_svn\xp02\xp02\src\RF.c"
 536  0163  0F0A        	mov a,10
 536  0164  0080     E  	mov _TmrDeleteTimer_2[0],a
 536  0165  1F00     E  	clr _TmrDeleteTimer_2[1]
 536  0166              	fcall _TmrDeleteTimer
 537  016D              #line 537 "e:\x-sense_svn\xp02\xp02\src\RF.c"
 537  016D  0700     R  	mov a,_UartService_2[4]
 537  016E  0A02        	sub a,2
 537  016F  390A        	snz z
 537  0170  2800     R  	jmp _L102
 539  0171              #line 539 "e:\x-sense_svn\xp02\xp02\src\RF.c"
 539  0171  0F35        	mov a,53
 539  0172  0080     E  	mov _SysteSetSig_2[0],a
 539  0173  1F00     E  	clr _SysteSetSig_2[1]
 539  0174  2800     R  	jmp _L118
 539  0175              _L90:
 545  0175              #line 545 "e:\x-sense_svn\xp02\xp02\src\RF.c"
 545  0175  0700     R  	mov a,_UartService_2[4]
 545  0176  0080     R  	mov _UartSendAck_2[1],a
 545  0177  0F01        	mov a,1
 545  0178  0080     R  	mov _UartSendAck_2[0],a
文件：RF.c         编译器版本 HGASM 0202 页次25

 545  0179  0F01        	mov a,1
 545  017A              	fcall _UartSendAck
 547  0181              #line 547 "e:\x-sense_svn\xp02\xp02\src\RF.c"
 547  0181  0700     R  	mov a,_UartService_2[4]
 547  0182  0A07        	sub a,7
 547  0183  3D0A        	sz z
 547  0184  2800     R  	jmp _L93
 547  0185  0700     R  	mov a,_UartService_2[4]
 547  0186  0A08        	sub a,8
 547  0187  390A        	snz z
 547  0188  2800     R  	jmp _L102
 554  0189              #line 554 "e:\x-sense_svn\xp02\xp02\src\RF.c"
 554  0189  0F34        	mov a,52
 554  018A  0080     E  	mov _SysteSetSig_2[0],a
 554  018B  1F00     E  	clr _SysteSetSig_2[1]
 554  018C  2800     R  	jmp _L118
 554  018D              _L93:
 550  018D              #line 550 "e:\x-sense_svn\xp02\xp02\src\RF.c"
 550  018D  0F33        	mov a,51
 550  018E  0080     E  	mov _SysteSetSig_2[0],a
 550  018F  1F00     E  	clr _SysteSetSig_2[1]
 550  0190  2800     R  	jmp _L118
 550  0191              _L120:
 550  0191              #pragma debug scope 33 32
 550  0191              #pragma debug scope 32 31
 674  0191              #line 674 "e:\x-sense_svn\xp02\xp02\src\RF.c"
 674  0191  0700     R  	mov a,_UartService_2[1]
 674  0192  0080     R  	mov _UartService_2[6],a
 674  0193  0700     R  	mov a,_UartService_2[0]
 674  0194  0080     R  	mov _UartService_2[4],a
 674  0195              #pragma debug scope 35 32
 674  0195              ;begin block, line: 674.-1
 674  0195              #pragma debug scope 36 35
 674  0195              ;begin block, line: 674.-1
 573  0195              #line 573 "e:\x-sense_svn\xp02\xp02\src\RF.c"
 573  0195  1700     R  	sdza _UartService_2[4]
 573  0196  2800     R  	jmp _L95
 575  0197              #line 575 "e:\x-sense_svn\xp02\xp02\src\RF.c"
 575  0197  0700     R  	mov a,_RfAO[2]
 575  0198  0200     R  	sub a,_UartService_2[6]
 575  0199  390A        	snz z
 575  019A  2800     R  	jmp _L102
 577  019B              #line 577 "e:\x-sense_svn\xp02\xp02\src\RF.c"
 577  019B  0F0A        	mov a,10
 577  019C  0080     E  	mov _TmrDeleteTimer_2[0],a
 577  019D  1F00     E  	clr _TmrDeleteTimer_2[1]
 577  019E              	fcall _TmrDeleteTimer
 577  01A5  2800     R  	jmp _L102
 577  01A6              _L95:
 582  01A6              #line 582 "e:\x-sense_svn\xp02\xp02\src\RF.c"
 582  01A6  0700     R  	mov a,_UartService_2[4]
 582  01A7  0080     R  	mov _UartSendAck_2[1],a
 582  01A8  0F01        	mov a,1
 582  01A9  0080     R  	mov _UartSendAck_2[0],a
 582  01AA  0F03        	mov a,3
 582  01AB              	fcall _UartSendAck
 584  01B2              #line 584 "e:\x-sense_svn\xp02\xp02\src\RF.c"
 584  01B2  0700     R  	mov a,_UartService_2[6]
 584  01B3  0080     E  	mov _printf_2[2],a
 584  01B4  1F00     E  	clr _printf_2[3]
文件：RF.c         编译器版本 HGASM 0202 页次26

 584  01B5  0F00     R  	mov a,low offset _LC2
 584  01B6  0080     E  	mov _printf_2[0],a
 584  01B7  0F00     R  	mov a,high offset _LC2
 584  01B8  0080     E  	mov _printf_2[1],a
 584  01B9              	fcall _printf
 585  01C0              #line 585 "e:\x-sense_svn\xp02\xp02\src\RF.c"
 585  01C0  0700     R  	mov a,_UartService_2[4]
 585  01C1  0A04        	sub a,4
 585  01C2  3D0A        	sz z
 585  01C3  2800     R  	jmp _L96
 585  01C4  0A03        	sub a,(7)-(4)
 585  01C5  3D0A        	sz z
 585  01C6  2800     R  	jmp _L97
 585  01C7  0700     R  	mov a,_UartService_2[4]
 585  01C8  0A08        	sub a,8
 585  01C9  3D0A        	sz z
 585  01CA  2800     R  	jmp _L98
 585  01CB  0A01        	sub a,(9)-(8)
 585  01CC  3D0A        	sz z
 585  01CD  2800     R  	jmp _L97
 585  01CE  0700     R  	mov a,_UartService_2[4]
 585  01CF  0A0B        	sub a,11
 585  01D0  390A        	snz z
 585  01D1  2800     R  	jmp _L102
 623  01D2              #line 623 "e:\x-sense_svn\xp02\xp02\src\RF.c"
 623  01D2  0F3E        	mov a,62
 623  01D3  0080     E  	mov _SysteSetSig_2[0],a
 623  01D4  1F00     E  	clr _SysteSetSig_2[1]
 623  01D5  2800     R  	jmp _L118
 623  01D6              _L96:
 591  01D6              #line 591 "e:\x-sense_svn\xp02\xp02\src\RF.c"
 591  01D6  1700     R  	sdza _UartService_2[6]
 591  01D7  2800     R  	jmp _L100
 593  01D8              #line 593 "e:\x-sense_svn\xp02\xp02\src\RF.c"
 593  01D8  0700     R  	mov a,_RfAO[9]
 593  01D9  0C01        	xor a,1
 593  01DA  0500     R  	or a,_RfAO[10]
 593  01DB  390A        	snz z
 593  01DC  2800     R  	jmp _L101
 595  01DD              #line 595 "e:\x-sense_svn\xp02\xp02\src\RF.c"
 595  01DD  0F36        	mov a,54
 595  01DE  0080     E  	mov _SysteSetSig_2[0],a
 595  01DF  1F00     E  	clr _SysteSetSig_2[1]
 595  01E0  2800     R  	jmp _L118
 595  01E1              _L101:
 599  01E1              #line 599 "e:\x-sense_svn\xp02\xp02\src\RF.c"
 599  01E1  0F38        	mov a,56
 599  01E2  0080     E  	mov _SysteSetSig_2[0],a
 599  01E3  1F00     E  	clr _SysteSetSig_2[1]
 599  01E4  2800     R  	jmp _L118
 599  01E5              _L100:
 602  01E5              #line 602 "e:\x-sense_svn\xp02\xp02\src\RF.c"
 602  01E5  0700     R  	mov a,_UartService_2[6]
 602  01E6  0A02        	sub a,2
 602  01E7  390A        	snz z
 602  01E8  2800     R  	jmp _L102
 604  01E9              #line 604 "e:\x-sense_svn\xp02\xp02\src\RF.c"
 604  01E9  0F39        	mov a,57
 604  01EA  0080     E  	mov _SysteSetSig_2[0],a
 604  01EB  1F00     E  	clr _SysteSetSig_2[1]
文件：RF.c         编译器版本 HGASM 0202 页次27

 604  01EC  2800     R  	jmp _L118
 604  01ED              _L97:
 613  01ED              #line 613 "e:\x-sense_svn\xp02\xp02\src\RF.c"
 613  01ED  0F3A        	mov a,58
 613  01EE  0080     E  	mov _SysteSetSig_2[0],a
 613  01EF  1F00     E  	clr _SysteSetSig_2[1]
 613  01F0  2800     R  	jmp _L117
 613  01F1              _L98:
 618  01F1              #line 618 "e:\x-sense_svn\xp02\xp02\src\RF.c"
 618  01F1  0F3C        	mov a,60
 618  01F2  0080     E  	mov _SysteSetSig_2[0],a
 618  01F3  1F00     E  	clr _SysteSetSig_2[1]
 618  01F4              _L117:
 618  01F4              	fcall _SysteSetSig
 619  01FB              #line 619 "e:\x-sense_svn\xp02\xp02\src\RF.c"
 619  01FB  0700     R  	mov a,_UartService_2[6]
 619  01FC  0080     R  	mov _RfAO[11],a
 619  01FD  2800     R  	jmp _L102
 619  01FE              _L118:
 623  01FE              #line 623 "e:\x-sense_svn\xp02\xp02\src\RF.c"
 623  01FE              	fcall _SysteSetSig
 623  0205  2800     R  	jmp _L102
 623  0206              _L86:
 623  0206              #pragma debug scope 35 32
 623  0206              #pragma debug scope 32 31
 623  0206              #pragma debug scope 31 20
 623  0206              #pragma debug scope 20 1
 437  0206              #line 437 "e:\x-sense_svn\xp02\xp02\src\RF.c"
 437  0206  0F00     R  	mov a,low offset _LC3
 437  0207  0080     E  	mov _printf_2[0],a
 437  0208  0F00     R  	mov a,high offset _LC3
 437  0209  0080     E  	mov _printf_2[1],a
 437  020A              	fcall _printf
 437  0211              _L102:
 441  0211              #line 441 "e:\x-sense_svn\xp02\xp02\src\RF.c"
 441  0211  0700     R  	mov a,_UartService_2[9]
 441  0212  0380     R  	addm a,_UartService_2[8]
 441  0213  2800     R  	jmp _L71
 441  0214              _L78:
 444  0214              #line 444 "e:\x-sense_svn\xp02\xp02\src\RF.c"
 444  0214  0700     R  	mov a,_UartService_2[8]
 444  0215  0080     E  	mov rd,a
 444  0216  1F00     E  	clr re
 444  0217  0700     E  	mov a,rb
 444  0218  0200     E  	sub a,rd
 444  0219  0080     E  	mov rb,a
 444  021A  0700     E  	mov a,rc
 444  021B  1200     E  	sbc a,re
 444  021C  0080     E  	mov rc,a
 444  021D  0700     E  	mov a,rb
 444  021E  0080     R  	mov ___rx_in_3256[0],a
 444  021F  0700     E  	mov a,rc
 444  0220  0080     R  	mov ___rx_in_3256[1],a
 446  0221              #line 446 "e:\x-sense_svn\xp02\xp02\src\RF.c"
 446  0221  0700     E  	mov a,rb
 446  0222  0500     E  	or a,rc
 446  0223  3D0A        	sz z
 446  0224  2800     R  	jmp _L67
 448  0225              #line 448 "e:\x-sense_svn\xp02\xp02\src\RF.c"
 448  0225  0700     E  	mov a,rb
文件：RF.c         编译器版本 HGASM 0202 页次28

 448  0226  0080     R  	mov _Memcpy_2[4],a
 448  0227  0F00     R  	mov a,low offset _UartReadBuf
 448  0228  0300     E  	add a,rd
 448  0229  0080     R  	mov _Memcpy_2[2],a
 448  022A  0F00     R  	mov a,high offset _UartReadBuf
 448  022B  1300     E  	adc a,re
 448  022C  0080     R  	mov _Memcpy_2[3],a
 448  022D  0F00     R  	mov a,low offset _UartReadBuf
 448  022E  0080     R  	mov _Memcpy_2[0],a
 448  022F  0F00     R  	mov a,high offset _UartReadBuf
 448  0230  0080     R  	mov _Memcpy_2[1],a
 448  0231              	fcall _Memcpy
 448  0238              _L67:
 448  0238  0003        	ret
 448  0239              _UartService endp
 448  0239              #line 448 "e:\x-sense_svn\xp02\xp02\src\RF.c"
 448  0239              #pragma debug scope 1 1
 448  0018              @crom	.section 'crom'
 448  0018              _LC4:
 448  0018              	db 070h,061h,069h,072h,020h,06dh,06fh,064h,065h,02ch
 448  001D              	db 020h,073h,069h,067h,03dh,025h,064h,0ah,00h
 448  0022              public _RfPairMain
 448  0022              #pragma debug scope 37 1
 690  0022              #line 690 "e:\x-sense_svn\xp02\xp02\src\RF.c"
 690  0000              _RfPairMain .section 'code'
 690  0000              _RfPairMain proc
 690  0000  00              local _RfPairMain_2 db 1 dup(?)	; 0,1
 690  0000  0080     R  	mov _RfPairMain_2[0],a
 690  0001              #pragma debug variable 8 37 _RfPairMain_2+0 "PairMode"
 691  0001              #line 691 "e:\x-sense_svn\xp02\xp02\src\RF.c"
 691  0001  0700     E  	mov a,_SysAO[4]
 691  0002  0080     E  	mov _printf_2[2],a
 691  0003  0700     E  	mov a,_SysAO[5]
 691  0004  0080     E  	mov _printf_2[3],a
 691  0005  0F00     R  	mov a,low offset _LC4
 691  0006  0080     E  	mov _printf_2[0],a
 691  0007  0F00     R  	mov a,high offset _LC4
 691  0008  0080     E  	mov _printf_2[1],a
 691  0009              	fcall _printf
 692  0010              #line 692 "e:\x-sense_svn\xp02\xp02\src\RF.c"
 692  0010  0700     E  	mov a,_SysAO[4]
 692  0011  0C01        	xor a,1
 692  0012  0500     E  	or a,_SysAO[5]
 692  0013  3D0A        	sz z
 692  0014  2800     R  	jmp _L123
 692  0015              #line 692 "e:\x-sense_svn\xp02\xp02\src\RF.c"
 692  0015  0700     E  	mov a,_SysAO[4]
 692  0016  0C06        	xor a,6
 692  0017  0500     E  	or a,_SysAO[5]
 692  0018  3D0A        	sz z
 692  0019  2800     R  	jmp _L124
 692  001A  0700     E  	mov a,_SysAO[4]
 692  001B  0C0A        	xor a,10
 692  001C  0500     E  	or a,_SysAO[5]
 692  001D  3D0A        	sz z
 692  001E  2800     R  	jmp _L125
 692  001F  0700     E  	mov a,_SysAO[4]
 692  0020  0C32        	xor a,50
 692  0021  0500     E  	or a,_SysAO[5]
 692  0022  3D0A        	sz z
文件：RF.c         编译器版本 HGASM 0202 页次29

 692  0023  2800     R  	jmp _L126
 692  0024  0700     E  	mov a,_SysAO[4]
 692  0025  0C33        	xor a,51
 692  0026  0500     E  	or a,_SysAO[5]
 692  0027  3D0A        	sz z
 692  0028  2800     R  	jmp _L127
 692  0029  0700     E  	mov a,_SysAO[4]
 692  002A  0C35        	xor a,53
 692  002B  0500     E  	or a,_SysAO[5]
 692  002C  390A        	snz z
 692  002D  2800     R  	jmp _L121
 760  002E              #line 760 "e:\x-sense_svn\xp02\xp02\src\RF.c"
 760  002E  0F1E        	mov a,30
 760  002F  0080     E  	mov _SpeakerSendCmd_2[0],a
 760  0030  1F00     E  	clr _SpeakerSendCmd_2[1]
 760  0031  1F00     E  	clr _SpeakerSendCmd_2[2]
 760  0032  1F00     E  	clr _SpeakerSendCmd_2[3]
 760  0033              	fcall _SpeakerSendCmd
 762  003A              #line 762 "e:\x-sense_svn\xp02\xp02\src\RF.c"
 762  003A  0FF4        	mov a,-12
 762  003B  0080     E  	mov _PollingBeep_2[0],a
 762  003C  0F01        	mov a,1
 762  003D  0080     E  	mov _PollingBeep_2[1],a
 762  003E              	fcall _PollingBeep
 763  0045              #line 763 "e:\x-sense_svn\xp02\xp02\src\RF.c"
 763  0045  0FF4        	mov a,-12
 763  0046  0080     E  	mov _PollingLED_2[0],a
 763  0047  0F01        	mov a,1
 763  0048  0080     E  	mov _PollingLED_2[1],a
 763  0049              	fcall _PollingLED
 764  0050              #line 764 "e:\x-sense_svn\xp02\xp02\src\RF.c"
 764  0050  1F00     E  	clr _SysAO[0]
 764  0051  1F00     E  	clr _SysAO[1]
 765  0052              #line 765 "e:\x-sense_svn\xp02\xp02\src\RF.c"
 765  0052  1F00     R  	clr _RfAO[9]
 765  0053  1F00     R  	clr _RfAO[10]
 766  0054              #line 766 "e:\x-sense_svn\xp02\xp02\src\RF.c"
 766  0054  1F00     E  	clr _E2promWrite_2[0]
 766  0055  0F02        	mov a,2
 766  0056              	fcall _E2promWrite
 766  005D  2800     R  	jmp _L138
 766  005E              _L123:
 695  005E              #line 695 "e:\x-sense_svn\xp02\xp02\src\RF.c"
 695  005E  0700     R  	mov a,_RfPairMain_2[0]
 695  005F  0A0B        	sub a,11
 695  0060  3D0A        	sz z
 695  0061  2800     R  	jmp _L129
 695  0062  0A01        	sub a,(12)-(11)
 695  0063  3D0A        	sz z
 695  0064  2800     R  	jmp _L130
 695  0065  0700     R  	mov a,_RfPairMain_2[0]
 695  0066  0A0D        	sub a,13
 695  0067  3D0A        	sz z
 695  0068  2800     R  	jmp _L131
 695  0069  0700     R  	mov a,_RfPairMain_2[0]
 695  006A  0A0E        	sub a,14
 695  006B  390A        	snz z
 695  006C  2800     R  	jmp _L121
 716  006D              #line 716 "e:\x-sense_svn\xp02\xp02\src\RF.c"
 716  006D  0F1A        	mov a,26
文件：RF.c         编译器版本 HGASM 0202 页次30

 716  006E  0080     E  	mov _SpeakerSendCmd_2[0],a
 716  006F  1F00     E  	clr _SpeakerSendCmd_2[1]
 716  0070  1F00     E  	clr _SpeakerSendCmd_2[2]
 716  0071  1F00     E  	clr _SpeakerSendCmd_2[3]
 716  0072              	fcall _SpeakerSendCmd
 718  0079              #line 718 "e:\x-sense_svn\xp02\xp02\src\RF.c"
 718  0079  0FC8        	mov a,-56
 718  007A  0080     E  	mov _PollingBeep_2[0],a
 718  007B  1F00     E  	clr _PollingBeep_2[1]
 718  007C              	fcall _PollingBeep
 719  0083              #line 719 "e:\x-sense_svn\xp02\xp02\src\RF.c"
 719  0083  1F00     R  	clr _UartSendMsg_2[3]
 719  0084  0F06        	mov a,6
 719  0085  0080     R  	mov _UartSendMsg_2[2],a
 719  0086  2800     R  	jmp _L139
 719  0087              _L129:
 698  0087              #line 698 "e:\x-sense_svn\xp02\xp02\src\RF.c"
 698  0087  1F00     R  	clr _UartSend_2[3]
 698  0088  0F03        	mov a,3
 698  0089  0080     R  	mov _UartSend_2[2],a
 698  008A  0F01        	mov a,1
 698  008B  0080     R  	mov _UartSend_2[0],a
 698  008C  1F00     R  	clr _UartSend_2[1]
 698  008D              	fcall _UartSend
 700  0094              #line 700 "e:\x-sense_svn\xp02\xp02\src\RF.c"
 700  0094  0F0B        	mov a,11
 700  0095  0080     E  	mov _TmrInsertTimer_2[4],a
 700  0096  1F00     E  	clr _TmrInsertTimer_2[5]
 700  0097  0F32        	mov a,50
 700  0098  0080     E  	mov _TmrInsertTimer_2[2],a
 700  0099  1F00     E  	clr _TmrInsertTimer_2[3]
 700  009A  0F08        	mov a,8
 700  009B  0080     E  	mov _TmrInsertTimer_2[0],a
 700  009C  1F00     E  	clr _TmrInsertTimer_2[1]
 700  009D              	fcall _TmrInsertTimer
 701  00A4              #line 701 "e:\x-sense_svn\xp02\xp02\src\RF.c"
 701  00A4  1F00     E  	clr _TmrInsertTimer_2[4]
 701  00A5  1F00     E  	clr _TmrInsertTimer_2[5]
 701  00A6  0FE8        	mov a,-24
 701  00A7  0080     E  	mov _TmrInsertTimer_2[2],a
 701  00A8  0F03        	mov a,3
 701  00A9  0080     E  	mov _TmrInsertTimer_2[3],a
 701  00AA  2800     R  	jmp _L136
 701  00AB              _L131:
 706  00AB              #line 706 "e:\x-sense_svn\xp02\xp02\src\RF.c"
 706  00AB  0F1B        	mov a,27
 706  00AC  0080     E  	mov _SpeakerSendCmd_2[0],a
 706  00AD  1F00     E  	clr _SpeakerSendCmd_2[1]
 706  00AE  1F00     E  	clr _SpeakerSendCmd_2[2]
 706  00AF  1F00     E  	clr _SpeakerSendCmd_2[3]
 706  00B0              	fcall _SpeakerSendCmd
 708  00B7              #line 708 "e:\x-sense_svn\xp02\xp02\src\RF.c"
 708  00B7  0FC8        	mov a,-56
 708  00B8  0080     E  	mov _PollingBeep_2[0],a
 708  00B9  1F00     E  	clr _PollingBeep_2[1]
 708  00BA              	fcall _PollingBeep
 709  00C1              #line 709 "e:\x-sense_svn\xp02\xp02\src\RF.c"
 709  00C1  1F00     R  	clr _UartSendMsg_2[3]
 709  00C2  0F05        	mov a,5
 709  00C3  0080     R  	mov _UartSendMsg_2[2],a
文件：RF.c         编译器版本 HGASM 0202 页次31

 709  00C4  0F01        	mov a,1
 709  00C5  0080     R  	mov _UartSendMsg_2[0],a
 709  00C6  1F00     R  	clr _UartSendMsg_2[1]
 709  00C7              	fcall _UartSendMsg
 710  00CE              #line 710 "e:\x-sense_svn\xp02\xp02\src\RF.c"
 710  00CE  0F0D        	mov a,13
 710  00CF  0080     E  	mov _TmrInsertTimer_2[4],a
 710  00D0  1F00     E  	clr _TmrInsertTimer_2[5]
 710  00D1  0F32        	mov a,50
 710  00D2  0080     E  	mov _TmrInsertTimer_2[2],a
 710  00D3  1F00     E  	clr _TmrInsertTimer_2[3]
 710  00D4              _L137:
 710  00D4  0F08        	mov a,8
 710  00D5  0080     E  	mov _TmrInsertTimer_2[0],a
 710  00D6  1F00     E  	clr _TmrInsertTimer_2[1]
 710  00D7              	fcall _TmrInsertTimer
 711  00DE              #line 711 "e:\x-sense_svn\xp02\xp02\src\RF.c"
 711  00DE  1F00     E  	clr _TmrInsertTimer_2[4]
 711  00DF  1F00     E  	clr _TmrInsertTimer_2[5]
 711  00E0  0F70        	mov a,112
 711  00E1  0080     E  	mov _TmrInsertTimer_2[2],a
 711  00E2  0F17        	mov a,23
 711  00E3  0080     E  	mov _TmrInsertTimer_2[3],a
 711  00E4              _L136:
 711  00E4  0F09        	mov a,9
 711  00E5  0080     E  	mov _TmrInsertTimer_2[0],a
 711  00E6  1F00     E  	clr _TmrInsertTimer_2[1]
 711  00E7              	fcall _TmrInsertTimer
 712  00EE              #line 712 "e:\x-sense_svn\xp02\xp02\src\RF.c"
 712  00EE  2800     R  	jmp _L121
 712  00EF              _L130:
 726  00EF              #line 726 "e:\x-sense_svn\xp02\xp02\src\RF.c"
 726  00EF  0F1B        	mov a,27
 726  00F0  0080     E  	mov _SpeakerSendCmd_2[0],a
 726  00F1  1F00     E  	clr _SpeakerSendCmd_2[1]
 726  00F2  1F00     E  	clr _SpeakerSendCmd_2[2]
 726  00F3  1F00     E  	clr _SpeakerSendCmd_2[3]
 726  00F4              	fcall _SpeakerSendCmd
 728  00FB              #line 728 "e:\x-sense_svn\xp02\xp02\src\RF.c"
 728  00FB  0FC8        	mov a,-56
 728  00FC  0080     E  	mov _PollingBeep_2[0],a
 728  00FD  1F00     E  	clr _PollingBeep_2[1]
 728  00FE              	fcall _PollingBeep
 729  0105              #line 729 "e:\x-sense_svn\xp02\xp02\src\RF.c"
 729  0105  1F00     R  	clr _UartSendMsg_2[3]
 729  0106  0F04        	mov a,4
 729  0107  0080     R  	mov _UartSendMsg_2[2],a
 729  0108              _L139:
 729  0108  0F01        	mov a,1
 729  0109  0080     R  	mov _UartSendMsg_2[0],a
 729  010A  1F00     R  	clr _UartSendMsg_2[1]
 729  010B              	fcall _UartSendMsg
 730  0112              #line 730 "e:\x-sense_svn\xp02\xp02\src\RF.c"
 730  0112  0F0E        	mov a,14
 730  0113  0080     E  	mov _TmrInsertTimer_2[4],a
 730  0114  1F00     E  	clr _TmrInsertTimer_2[5]
 730  0115  0F64        	mov a,100
 730  0116  0080     E  	mov _TmrInsertTimer_2[2],a
 730  0117  1F00     E  	clr _TmrInsertTimer_2[3]
 730  0118  2800     R  	jmp _L137
文件：RF.c         编译器版本 HGASM 0202 页次32

 730  0119              _L127:
 737  0119              #line 737 "e:\x-sense_svn\xp02\xp02\src\RF.c"
 737  0119  0700     R  	mov a,_RfPairMain_2[0]
 737  011A  0A0C        	sub a,12
 737  011B  390A        	snz z
 737  011C  2800     R  	jmp _L133
 739  011D              #line 739 "e:\x-sense_svn\xp02\xp02\src\RF.c"
 739  011D  0F01        	mov a,1
 739  011E  0080     R  	mov _RfAO[9],a
 739  011F  1F00     R  	clr _RfAO[10]
 740  0120              #line 740 "e:\x-sense_svn\xp02\xp02\src\RF.c"
 740  0120  1F00     E  	clr _PwrAO[6]
 740  0121  2800     R  	jmp _L134
 740  0122              _L133:
 744  0122              #line 744 "e:\x-sense_svn\xp02\xp02\src\RF.c"
 744  0122  0F02        	mov a,2
 744  0123  0080     R  	mov _RfAO[9],a
 744  0124  1F00     R  	clr _RfAO[10]
 744  0125              _L134:
 746  0125              #line 746 "e:\x-sense_svn\xp02\xp02\src\RF.c"
 746  0125  0700     R  	mov a,_RfAO[9]
 746  0126  0080     E  	mov _E2promWrite_2[0],a
 746  0127  0F02        	mov a,2
 746  0128              	fcall _E2promWrite
 748  012F              #line 748 "e:\x-sense_svn\xp02\xp02\src\RF.c"
 748  012F  1F00     E  	clr _SysAO[0]
 748  0130  1F00     E  	clr _SysAO[1]
 749  0131              #line 749 "e:\x-sense_svn\xp02\xp02\src\RF.c"
 749  0131  0F08        	mov a,8
 749  0132  0080     E  	mov _TmrDeleteTimer_2[0],a
 749  0133  1F00     E  	clr _TmrDeleteTimer_2[1]
 749  0134              	fcall _TmrDeleteTimer
 750  013B              #line 750 "e:\x-sense_svn\xp02\xp02\src\RF.c"
 750  013B  0F09        	mov a,9
 750  013C  0080     E  	mov _TmrDeleteTimer_2[0],a
 750  013D  1F00     E  	clr _TmrDeleteTimer_2[1]
 750  013E              	fcall _TmrDeleteTimer
 752  0145              #line 752 "e:\x-sense_svn\xp02\xp02\src\RF.c"
 752  0145  0F1C        	mov a,28
 752  0146  0080     E  	mov _SpeakerSendCmd_2[0],a
 752  0147  1F00     E  	clr _SpeakerSendCmd_2[1]
 752  0148  1F00     E  	clr _SpeakerSendCmd_2[2]
 752  0149  1F00     E  	clr _SpeakerSendCmd_2[3]
 752  014A              	fcall _SpeakerSendCmd
 754  0151              #line 754 "e:\x-sense_svn\xp02\xp02\src\RF.c"
 754  0151  0FC8        	mov a,-56
 754  0152  0080     E  	mov _PollingBeep_2[0],a
 754  0153  1F00     E  	clr _PollingBeep_2[1]
 754  0154              	fcall _PollingBeep
 755  015B              #line 755 "e:\x-sense_svn\xp02\xp02\src\RF.c"
 755  015B  0FC8        	mov a,-56
 755  015C  0080     E  	mov _PollingLED_2[0],a
 755  015D  1F00     E  	clr _PollingLED_2[1]
 755  015E              	fcall _PollingLED
 756  0165              #line 756 "e:\x-sense_svn\xp02\xp02\src\RF.c"
 756  0165  2800     R  	jmp _L121
 756  0166              _L124:
 773  0166              #line 773 "e:\x-sense_svn\xp02\xp02\src\RF.c"
 773  0166  0F1D        	mov a,29
 773  0167  0080     E  	mov _SpeakerSendCmd_2[0],a
文件：RF.c         编译器版本 HGASM 0202 页次33

 773  0168  1F00     E  	clr _SpeakerSendCmd_2[1]
 773  0169  1F00     E  	clr _SpeakerSendCmd_2[2]
 773  016A  1F00     E  	clr _SpeakerSendCmd_2[3]
 773  016B              	fcall _SpeakerSendCmd
 775  0172              #line 775 "e:\x-sense_svn\xp02\xp02\src\RF.c"
 775  0172  1F00     E  	clr _SysAO[0]
 775  0173  1F00     E  	clr _SysAO[1]
 776  0174              #line 776 "e:\x-sense_svn\xp02\xp02\src\RF.c"
 776  0174  0F08        	mov a,8
 776  0175  0080     E  	mov _TmrDeleteTimer_2[0],a
 776  0176  1F00     E  	clr _TmrDeleteTimer_2[1]
 776  0177              	fcall _TmrDeleteTimer
 777  017E              #line 777 "e:\x-sense_svn\xp02\xp02\src\RF.c"
 777  017E  0F09        	mov a,9
 777  017F  0080     E  	mov _TmrDeleteTimer_2[0],a
 777  0180  1F00     E  	clr _TmrDeleteTimer_2[1]
 777  0181              	fcall _TmrDeleteTimer
 778  0188              #line 778 "e:\x-sense_svn\xp02\xp02\src\RF.c"
 778  0188  1F00     R  	clr _UartSendMsg_2[3]
 778  0189  0F09        	mov a,9
 778  018A  0080     R  	mov _UartSendMsg_2[2],a
 778  018B  2800     R  	jmp _L135
 778  018C              _L125:
 782  018C              #line 782 "e:\x-sense_svn\xp02\xp02\src\RF.c"
 782  018C  0700     E  	mov a,_SysAO[0]
 782  018D  0C0E        	xor a,14
 782  018E  0500     E  	or a,_SysAO[1]
 782  018F  390A        	snz z
 782  0190  2800     R  	jmp _L121
 784  0191              #line 784 "e:\x-sense_svn\xp02\xp02\src\RF.c"
 784  0191  1F00     R  	clr _UartSendMsg_2[3]
 784  0192  0F02        	mov a,2
 784  0193  0080     R  	mov _UartSendMsg_2[2],a
 784  0194              _L135:
 784  0194  0F01        	mov a,1
 784  0195  0080     R  	mov _UartSendMsg_2[0],a
 784  0196  1F00     R  	clr _UartSendMsg_2[1]
 784  0197              	fcall _UartSendMsg
 784  019E  2800     R  	jmp _L121
 784  019F              _L126:
 790  019F              #line 790 "e:\x-sense_svn\xp02\xp02\src\RF.c"
 790  019F  0F1D        	mov a,29
 790  01A0  0080     E  	mov _SpeakerSendCmd_2[0],a
 790  01A1  1F00     E  	clr _SpeakerSendCmd_2[1]
 790  01A2  1F00     E  	clr _SpeakerSendCmd_2[2]
 790  01A3  1F00     E  	clr _SpeakerSendCmd_2[3]
 790  01A4              	fcall _SpeakerSendCmd
 792  01AB              #line 792 "e:\x-sense_svn\xp02\xp02\src\RF.c"
 792  01AB  1F00     E  	clr _SysAO[0]
 792  01AC  1F00     E  	clr _SysAO[1]
 792  01AD              _L138:
 793  01AD              #line 793 "e:\x-sense_svn\xp02\xp02\src\RF.c"
 793  01AD  0F08        	mov a,8
 793  01AE  0080     E  	mov _TmrDeleteTimer_2[0],a
 793  01AF  1F00     E  	clr _TmrDeleteTimer_2[1]
 793  01B0              	fcall _TmrDeleteTimer
 794  01B7              #line 794 "e:\x-sense_svn\xp02\xp02\src\RF.c"
 794  01B7  0F09        	mov a,9
 794  01B8  0080     E  	mov _TmrDeleteTimer_2[0],a
 794  01B9  1F00     E  	clr _TmrDeleteTimer_2[1]
文件：RF.c         编译器版本 HGASM 0202 页次34

 794  01BA              	fcall _TmrDeleteTimer
 794  01C1              _L121:
 794  01C1  0003        	ret
 794  01C2              _RfPairMain endp
 794  01C2              #line 794 "e:\x-sense_svn\xp02\xp02\src\RF.c"
 794  01C2              #pragma debug scope 1 1
 794  01C2              public _RfIntranetTestMain
 794  01C2              #pragma debug scope 38 1
 811  01C2              #line 811 "e:\x-sense_svn\xp02\xp02\src\RF.c"
 811  0000              _RfIntranetTestMain .section 'code'
 811  0000              _RfIntranetTestMain proc
 811  0000  00              local _RfIntranetTestMain_2 db 1 dup(?)	; 0,1
 811  0000  0080     R  	mov _RfIntranetTestMain_2[0],a
 811  0001              #pragma debug variable 8 38 _RfIntranetTestMain_2+0 "TestMode"
 813  0001              #line 813 "e:\x-sense_svn\xp02\xp02\src\RF.c"
 813  0001  0700     E  	mov a,_SysAO[4]
 813  0002  0C01        	xor a,1
 813  0003  0500     E  	or a,_SysAO[5]
 813  0004  3D0A        	sz z
 813  0005  2800     R  	jmp _L142
 813  0006              #line 813 "e:\x-sense_svn\xp02\xp02\src\RF.c"
 813  0006  0700     E  	mov a,_SysAO[4]
 813  0007  0C06        	xor a,6
 813  0008  0500     E  	or a,_SysAO[5]
 813  0009  3D0A        	sz z
 813  000A  2800     R  	jmp _L143
 813  000B  0700     E  	mov a,_SysAO[4]
 813  000C  0C32        	xor a,50
 813  000D  0500     E  	or a,_SysAO[5]
 813  000E  3D0A        	sz z
 813  000F  2800     R  	jmp _L144
 813  0010  0700     E  	mov a,_SysAO[4]
 813  0011  0C37        	xor a,55
 813  0012  0500     E  	or a,_SysAO[5]
 813  0013  3D0A        	sz z
 813  0014  2800     R  	jmp _L145
 813  0015  0700     E  	mov a,_SysAO[4]
 813  0016  0C39        	xor a,57
 813  0017  0500     E  	or a,_SysAO[5]
 813  0018  390A        	snz z
 813  0019  2800     R  	jmp _L140
 813  001A  2800     R  	jmp _L143
 813  001B              _L142:
 816  001B              #line 816 "e:\x-sense_svn\xp02\xp02\src\RF.c"
 816  001B  0700     R  	mov a,_RfIntranetTestMain_2[0]
 816  001C  0A13        	sub a,19
 816  001D  390A        	snz z
 816  001E  2800     R  	jmp _L146
 818  001F              #line 818 "e:\x-sense_svn\xp02\xp02\src\RF.c"
 818  001F  0F13        	mov a,19
 818  0020  0080     E  	mov _TmrInsertTimer_2[4],a
 818  0021  1F00     E  	clr _TmrInsertTimer_2[5]
 818  0022  2800     R  	jmp _L154
 818  0023              _L146:
 822  0023              #line 822 "e:\x-sense_svn\xp02\xp02\src\RF.c"
 822  0023  0F01        	mov a,1
 822  0024  0080     R  	mov _UartSendMsg_2[3],a
 822  0025  0F04        	mov a,4
 822  0026  0080     R  	mov _UartSendMsg_2[2],a
 822  0027  0F03        	mov a,3
文件：RF.c         编译器版本 HGASM 0202 页次35

 822  0028  0080     R  	mov _UartSendMsg_2[0],a
 822  0029  1F00     R  	clr _UartSendMsg_2[1]
 822  002A              	fcall _UartSendMsg
 823  0031              #line 823 "e:\x-sense_svn\xp02\xp02\src\RF.c"
 823  0031  0F12        	mov a,18
 823  0032  0080     E  	mov _TmrInsertTimer_2[4],a
 823  0033  1F00     E  	clr _TmrInsertTimer_2[5]
 823  0034              _L154:
 823  0034  0F64        	mov a,100
 823  0035  0080     E  	mov _TmrInsertTimer_2[2],a
 823  0036  1F00     E  	clr _TmrInsertTimer_2[3]
 823  0037  0F08        	mov a,8
 823  0038  0080     E  	mov _TmrInsertTimer_2[0],a
 823  0039  1F00     E  	clr _TmrInsertTimer_2[1]
 823  003A              	fcall _TmrInsertTimer
 825  0041              #line 825 "e:\x-sense_svn\xp02\xp02\src\RF.c"
 825  0041  1F00     R  	clr ___TimeCnt_3339[0]
 826  0042              #line 826 "e:\x-sense_svn\xp02\xp02\src\RF.c"
 826  0042  1F00     E  	clr _TmrInsertTimer_2[4]
 826  0043  1F00     E  	clr _TmrInsertTimer_2[5]
 826  0044  0F70        	mov a,112
 826  0045  0080     E  	mov _TmrInsertTimer_2[2],a
 826  0046  0F17        	mov a,23
 826  0047  0080     E  	mov _TmrInsertTimer_2[3],a
 826  0048  0F09        	mov a,9
 826  0049  0080     E  	mov _TmrInsertTimer_2[0],a
 826  004A  1F00     E  	clr _TmrInsertTimer_2[1]
 826  004B              	fcall _TmrInsertTimer
 827  0052              #line 827 "e:\x-sense_svn\xp02\xp02\src\RF.c"
 827  0052  2800     R  	jmp _L140
 827  0053              _L143:
 831  0053              #line 831 "e:\x-sense_svn\xp02\xp02\src\RF.c"
 831  0053  0700     R  	mov a,_RfIntranetTestMain_2[0]
 831  0054  0A13        	sub a,19
 831  0055  390A        	snz z
 831  0056  2800     R  	jmp _L140
 831  0057  2800     R  	jmp _L155
 831  0058              _L145:
 841  0058              #line 841 "e:\x-sense_svn\xp02\xp02\src\RF.c"
 841  0058  0700     R  	mov a,_RfIntranetTestMain_2[0]
 841  0059  0A12        	sub a,18
 841  005A  390A        	snz z
 841  005B  2800     R  	jmp _L149
 843  005C              #line 843 "e:\x-sense_svn\xp02\xp02\src\RF.c"
 843  005C  0F02        	mov a,2
 843  005D  0080     R  	mov _UartSendMsg_2[3],a
 843  005E  0F04        	mov a,4
 843  005F  0080     R  	mov _UartSendMsg_2[2],a
 843  0060  0F03        	mov a,3
 843  0061  0080     R  	mov _UartSendMsg_2[0],a
 843  0062  1F00     R  	clr _UartSendMsg_2[1]
 843  0063              	fcall _UartSendMsg
 843  006A              _L149:
 845  006A              #line 845 "e:\x-sense_svn\xp02\xp02\src\RF.c"
 845  006A  1F00     E  	clr _SysAO[0]
 845  006B  1F00     E  	clr _SysAO[1]
 846  006C              #line 846 "e:\x-sense_svn\xp02\xp02\src\RF.c"
 846  006C  0F08        	mov a,8
 846  006D  0080     E  	mov _TmrDeleteTimer_2[0],a
 846  006E  1F00     E  	clr _TmrDeleteTimer_2[1]
文件：RF.c         编译器版本 HGASM 0202 页次36

 846  006F              	fcall _TmrDeleteTimer
 847  0076              #line 847 "e:\x-sense_svn\xp02\xp02\src\RF.c"
 847  0076  0F09        	mov a,9
 847  0077  0080     E  	mov _TmrDeleteTimer_2[0],a
 847  0078  1F00     E  	clr _TmrDeleteTimer_2[1]
 847  0079  2800     R  	jmp _L156
 847  007A              _L144:
 851  007A              #line 851 "e:\x-sense_svn\xp02\xp02\src\RF.c"
 851  007A  0700     R  	mov a,___TimeCnt_3339[0]
 851  007B  0080     E  	mov ra,a
 851  007C  1400     E  	inca ra
 851  007D  0080     R  	mov ___TimeCnt_3339[0],a
 851  007E  1E00     E  	snz ra
 851  007F  2800     R  	jmp _L140
 851  0080              _L155:
 853  0080              #line 853 "e:\x-sense_svn\xp02\xp02\src\RF.c"
 853  0080  1F00     E  	clr _SysAO[0]
 853  0081  1F00     E  	clr _SysAO[1]
 854  0082              #line 854 "e:\x-sense_svn\xp02\xp02\src\RF.c"
 854  0082  0F08        	mov a,8
 854  0083  0080     E  	mov _TmrDeleteTimer_2[0],a
 854  0084  1F00     E  	clr _TmrDeleteTimer_2[1]
 854  0085              	fcall _TmrDeleteTimer
 855  008C              #line 855 "e:\x-sense_svn\xp02\xp02\src\RF.c"
 855  008C  0F09        	mov a,9
 855  008D  0080     E  	mov _TmrDeleteTimer_2[0],a
 855  008E  1F00     E  	clr _TmrDeleteTimer_2[1]
 855  008F              	fcall _TmrDeleteTimer
 856  0096              #line 856 "e:\x-sense_svn\xp02\xp02\src\RF.c"
 856  0096  0F0B        	mov a,11
 856  0097  0080     E  	mov _TmrDeleteTimer_2[0],a
 856  0098  1F00     E  	clr _TmrDeleteTimer_2[1]
 856  0099              _L156:
 856  0099              	fcall _TmrDeleteTimer
 856  00A0              _L140:
 856  00A0  0003        	ret
 856  00A1              _RfIntranetTestMain endp
 856  00A1              #line 856 "e:\x-sense_svn\xp02\xp02\src\RF.c"
 856  00A1              #pragma debug scope 1 1
 856  0000              @HCCINIT	.section 'data'
 812  0000              #line 812 "e:\x-sense_svn\xp02\xp02\src\RF.c"
 812  0000              @HCCINIT___TimeCnt_3339 .section 'data'
 812  0000              ___TimeCnt_3339 label byte
 812  0000              #pragma debug variable 8 38 ___TimeCnt_3339 "TimeCnt"
 812  0000              	db 0
 812  0000              @ROMDATA_BASE .section inpage 'code'
 812  0000              	db 0
 812  0001              @HCCINIT___TimeCnt_3339 .section 'data'
 389  0001              #line 389 "e:\x-sense_svn\xp02\xp02\src\RF.c"
 389  0000              @HCCINIT___rx_in_3256 .section 'data'
 389  0000              ___rx_in_3256 label byte
 389  0000              #pragma debug variable 10 20 ___rx_in_3256 "rx_in"
 389  0000              	db 0
 389  0001              @ROMDATA_BASE .section inpage 'code'
 389  0001              	db 0
 389  0001              @HCCINIT___rx_in_3256 .section 'data'
 389  0001              	db 0
 389  0001              @ROMDATA_BASE .section inpage 'code'
 389  0001              	db 0
 389  0002              @HCCINIT___rx_in_3256 .section 'data'
文件：RF.c         编译器版本 HGASM 0202 页次37

  34  0002              #line 34 "e:\x-sense_svn\xp02\xp02\src\RF.c"
  34  0002              public _RfAO
  34  0000              @HCCINIT0_RfAO .section 'data'
  34  0000  000D[       _RfAO	db 13 dup(0)
            00
            ]
  34  000D              #pragma debug struct_end
  34  000D              #pragma debug struct_end
  34  000D              #pragma debug variable 47 1 _RfAO "RfAO"
  34  000D              
  34  0000              @HCCINIT .section 'data'
  34  0000              public _UartQueueOut
  26  0000              #line 26 "e:\x-sense_svn\xp02\xp02\src\RF.c"
  26  0000              @HCCINIT_UartQueueOut .section 'data'
  26  0000              _UartQueueOut label byte
  26  0000              #pragma debug pointer 48 8 1
  26  0000              #pragma debug pointer 48 8 1
  26  0000              #pragma debug variable 48 1 _UartQueueOut "UartQueueOut"
  26  0000              	dw offset _UartQueueBuf
  26  0002              @ROMDATA_BASE .section inpage 'code'
  26  0002  0000     R  	dc offset _UartQueueBuf
  26  0002              @HCCINIT_UartQueueOut .section 'data'
  26  0002              public _UartQueueIn
  25  0002              #line 25 "e:\x-sense_svn\xp02\xp02\src\RF.c"
  25  0000              @HCCINIT_UartQueueIn .section 'data'
  25  0000              _UartQueueIn label byte
  25  0000              #pragma debug variable 48 1 _UartQueueIn "UartQueueIn"
  25  0000              	dw offset _UartQueueBuf
  25  0003              @ROMDATA_BASE .section inpage 'code'
  25  0003  0000     R  	dc offset _UartQueueBuf
  25  0002              @HCCINIT_UartQueueIn .section 'data'
  25  0002              public _UartSendBuf
  24  0002              #line 24 "e:\x-sense_svn\xp02\xp02\src\RF.c"
  24  0000              @HCCINIT_UartSendBuf .section 'data'
  24  0000              _UartSendBuf label byte
  24  0000              #pragma debug array 49 8 96 1
  24  0000              #pragma debug array 49 8 96 1
  24  0000              #pragma debug variable 49 1 _UartSendBuf "UartSendBuf"
  24  0000              	db 0
  24  0004              @ROMDATA_BASE .section inpage 'code'
  24  0004              	db 0
  24  0001              @HCCINIT_UartSendBuf .section 'data'
  24  0001              	db 0
  24  0004              @ROMDATA_BASE .section inpage 'code'
  24  0004              	db 0
  24  0002              @HCCINIT_UartSendBuf .section 'data'
  24  0002              	db 0
  24  0005              @ROMDATA_BASE .section inpage 'code'
  24  0005              	db 0
  24  0003              @HCCINIT_UartSendBuf .section 'data'
  24  0003              	db 0
  24  0005              @ROMDATA_BASE .section inpage 'code'
  24  0005              	db 0
  24  0004              @HCCINIT_UartSendBuf .section 'data'
  24  0004              	db 0
  24  0006              @ROMDATA_BASE .section inpage 'code'
  24  0006              	db 0
  24  0005              @HCCINIT_UartSendBuf .section 'data'
  24  0005              	db 0
  24  0006              @ROMDATA_BASE .section inpage 'code'
文件：RF.c         编译器版本 HGASM 0202 页次38

  24  0006              	db 0
  24  0006              @HCCINIT_UartSendBuf .section 'data'
  24  0006              	db 0
  24  0007              @ROMDATA_BASE .section inpage 'code'
  24  0007              	db 0
  24  0007              @HCCINIT_UartSendBuf .section 'data'
  24  0007              	db 0
  24  0007              @ROMDATA_BASE .section inpage 'code'
  24  0007              	db 0
  24  0008              @HCCINIT_UartSendBuf .section 'data'
  24  0008              	db 0
  24  0008              @ROMDATA_BASE .section inpage 'code'
  24  0008              	db 0
  24  0009              @HCCINIT_UartSendBuf .section 'data'
  24  0009              	db 0
  24  0008              @ROMDATA_BASE .section inpage 'code'
  24  0008              	db 0
  24  000A              @HCCINIT_UartSendBuf .section 'data'
  24  000A              	db 0
  24  0009              @ROMDATA_BASE .section inpage 'code'
  24  0009              	db 0
  24  000B              @HCCINIT_UartSendBuf .section 'data'
  24  000B              	db 0
  24  0009              @ROMDATA_BASE .section inpage 'code'
  24  0009              	db 0
  24  000C              @HCCINIT_UartSendBuf .section 'data'
  24  000C              	db 0
  24  000A              @ROMDATA_BASE .section inpage 'code'
  24  000A              	db 0
  24  000D              @HCCINIT_UartSendBuf .section 'data'
  24  000D              	db 0
  24  000A              @ROMDATA_BASE .section inpage 'code'
  24  000A              	db 0
  24  000E              @HCCINIT_UartSendBuf .section 'data'
  24  000E              	db 0
  24  000B              @ROMDATA_BASE .section inpage 'code'
  24  000B              	db 0
  24  000F              @HCCINIT_UartSendBuf .section 'data'
  24  000F              	db 0
  24  000B              @ROMDATA_BASE .section inpage 'code'
  24  000B              	db 0
  24  0010              @HCCINIT_UartSendBuf .section 'data'
  24  0010              	db 0
  24  000C              @ROMDATA_BASE .section inpage 'code'
  24  000C              	db 0
  24  0011              @HCCINIT_UartSendBuf .section 'data'
  24  0011              	db 0
  24  000C              @ROMDATA_BASE .section inpage 'code'
  24  000C              	db 0
  24  0012              @HCCINIT_UartSendBuf .section 'data'
  24  0012              	db 0
  24  000D              @ROMDATA_BASE .section inpage 'code'
  24  000D              	db 0
  24  0013              @HCCINIT_UartSendBuf .section 'data'
  24  0013              	db 0
  24  000D              @ROMDATA_BASE .section inpage 'code'
  24  000D              	db 0
  24  0014              @HCCINIT_UartSendBuf .section 'data'
  24  0014              	db 0
  24  000E              @ROMDATA_BASE .section inpage 'code'
文件：RF.c         编译器版本 HGASM 0202 页次39

  24  000E              	db 0
  24  0015              @HCCINIT_UartSendBuf .section 'data'
  24  0015              	db 0
  24  000E              @ROMDATA_BASE .section inpage 'code'
  24  000E              	db 0
  24  0016              @HCCINIT_UartSendBuf .section 'data'
  24  0016              	db 0
  24  000F              @ROMDATA_BASE .section inpage 'code'
  24  000F              	db 0
  24  0017              @HCCINIT_UartSendBuf .section 'data'
  24  0017              	db 0
  24  000F              @ROMDATA_BASE .section inpage 'code'
  24  000F              	db 0
  24  0018              @HCCINIT_UartSendBuf .section 'data'
  24  0018              	db 0
  24  0010              @ROMDATA_BASE .section inpage 'code'
  24  0010              	db 0
  24  0019              @HCCINIT_UartSendBuf .section 'data'
  24  0019              	db 0
  24  0010              @ROMDATA_BASE .section inpage 'code'
  24  0010              	db 0
  24  001A              @HCCINIT_UartSendBuf .section 'data'
  24  001A              	db 0
  24  0011              @ROMDATA_BASE .section inpage 'code'
  24  0011              	db 0
  24  001B              @HCCINIT_UartSendBuf .section 'data'
  24  001B              	db 0
  24  0011              @ROMDATA_BASE .section inpage 'code'
  24  0011              	db 0
  24  001C              @HCCINIT_UartSendBuf .section 'data'
  24  001C              	db 0
  24  0012              @ROMDATA_BASE .section inpage 'code'
  24  0012              	db 0
  24  001D              @HCCINIT_UartSendBuf .section 'data'
  24  001D              	db 0
  24  0012              @ROMDATA_BASE .section inpage 'code'
  24  0012              	db 0
  24  001E              @HCCINIT_UartSendBuf .section 'data'
  24  001E              	db 0
  24  0013              @ROMDATA_BASE .section inpage 'code'
  24  0013              	db 0
  24  001F              @HCCINIT_UartSendBuf .section 'data'
  24  001F              	db 0
  24  0013              @ROMDATA_BASE .section inpage 'code'
  24  0013              	db 0
  24  0020              @HCCINIT_UartSendBuf .section 'data'
  24  0020              	db 0
  24  0014              @ROMDATA_BASE .section inpage 'code'
  24  0014              	db 0
  24  0021              @HCCINIT_UartSendBuf .section 'data'
  24  0021              	db 0
  24  0014              @ROMDATA_BASE .section inpage 'code'
  24  0014              	db 0
  24  0022              @HCCINIT_UartSendBuf .section 'data'
  24  0022              	db 0
  24  0015              @ROMDATA_BASE .section inpage 'code'
  24  0015              	db 0
  24  0023              @HCCINIT_UartSendBuf .section 'data'
  24  0023              	db 0
  24  0015              @ROMDATA_BASE .section inpage 'code'
文件：RF.c         编译器版本 HGASM 0202 页次40

  24  0015              	db 0
  24  0024              @HCCINIT_UartSendBuf .section 'data'
  24  0024              	db 0
  24  0016              @ROMDATA_BASE .section inpage 'code'
  24  0016              	db 0
  24  0025              @HCCINIT_UartSendBuf .section 'data'
  24  0025              	db 0
  24  0016              @ROMDATA_BASE .section inpage 'code'
  24  0016              	db 0
  24  0026              @HCCINIT_UartSendBuf .section 'data'
  24  0026              	db 0
  24  0017              @ROMDATA_BASE .section inpage 'code'
  24  0017              	db 0
  24  0027              @HCCINIT_UartSendBuf .section 'data'
  24  0027              	db 0
  24  0017              @ROMDATA_BASE .section inpage 'code'
  24  0017              	db 0
  24  0028              @HCCINIT_UartSendBuf .section 'data'
  24  0028              	db 0
  24  0018              @ROMDATA_BASE .section inpage 'code'
  24  0018              	db 0
  24  0029              @HCCINIT_UartSendBuf .section 'data'
  24  0029              	db 0
  24  0018              @ROMDATA_BASE .section inpage 'code'
  24  0018              	db 0
  24  002A              @HCCINIT_UartSendBuf .section 'data'
  24  002A              	db 0
  24  0019              @ROMDATA_BASE .section inpage 'code'
  24  0019              	db 0
  24  002B              @HCCINIT_UartSendBuf .section 'data'
  24  002B              	db 0
  24  0019              @ROMDATA_BASE .section inpage 'code'
  24  0019              	db 0
  24  002C              @HCCINIT_UartSendBuf .section 'data'
  24  002C              	db 0
  24  001A              @ROMDATA_BASE .section inpage 'code'
  24  001A              	db 0
  24  002D              @HCCINIT_UartSendBuf .section 'data'
  24  002D              	db 0
  24  001A              @ROMDATA_BASE .section inpage 'code'
  24  001A              	db 0
  24  002E              @HCCINIT_UartSendBuf .section 'data'
  24  002E              	db 0
  24  001B              @ROMDATA_BASE .section inpage 'code'
  24  001B              	db 0
  24  002F              @HCCINIT_UartSendBuf .section 'data'
  24  002F              	db 0
  24  001B              @ROMDATA_BASE .section inpage 'code'
  24  001B              	db 0
  24  0030              @HCCINIT_UartSendBuf .section 'data'
  24  0030              	db 0
  24  001C              @ROMDATA_BASE .section inpage 'code'
  24  001C              	db 0
  24  0031              @HCCINIT_UartSendBuf .section 'data'
  24  0031              	db 0
  24  001C              @ROMDATA_BASE .section inpage 'code'
  24  001C              	db 0
  24  0032              @HCCINIT_UartSendBuf .section 'data'
  24  0032              	db 0
  24  001D              @ROMDATA_BASE .section inpage 'code'
文件：RF.c         编译器版本 HGASM 0202 页次41

  24  001D              	db 0
  24  0033              @HCCINIT_UartSendBuf .section 'data'
  24  0033              	db 0
  24  001D              @ROMDATA_BASE .section inpage 'code'
  24  001D              	db 0
  24  0034              @HCCINIT_UartSendBuf .section 'data'
  24  0034              	db 0
  24  001E              @ROMDATA_BASE .section inpage 'code'
  24  001E              	db 0
  24  0035              @HCCINIT_UartSendBuf .section 'data'
  24  0035              	db 0
  24  001E              @ROMDATA_BASE .section inpage 'code'
  24  001E              	db 0
  24  0036              @HCCINIT_UartSendBuf .section 'data'
  24  0036              	db 0
  24  001F              @ROMDATA_BASE .section inpage 'code'
  24  001F              	db 0
  24  0037              @HCCINIT_UartSendBuf .section 'data'
  24  0037              	db 0
  24  001F              @ROMDATA_BASE .section inpage 'code'
  24  001F              	db 0
  24  0038              @HCCINIT_UartSendBuf .section 'data'
  24  0038              	db 0
  24  0020              @ROMDATA_BASE .section inpage 'code'
  24  0020              	db 0
  24  0039              @HCCINIT_UartSendBuf .section 'data'
  24  0039              	db 0
  24  0020              @ROMDATA_BASE .section inpage 'code'
  24  0020              	db 0
  24  003A              @HCCINIT_UartSendBuf .section 'data'
  24  003A              	db 0
  24  0021              @ROMDATA_BASE .section inpage 'code'
  24  0021              	db 0
  24  003B              @HCCINIT_UartSendBuf .section 'data'
  24  003B              	db 0
  24  0021              @ROMDATA_BASE .section inpage 'code'
  24  0021              	db 0
  24  003C              @HCCINIT_UartSendBuf .section 'data'
  24  003C              	db 0
  24  0022              @ROMDATA_BASE .section inpage 'code'
  24  0022              	db 0
  24  003D              @HCCINIT_UartSendBuf .section 'data'
  24  003D              	db 0
  24  0022              @ROMDATA_BASE .section inpage 'code'
  24  0022              	db 0
  24  003E              @HCCINIT_UartSendBuf .section 'data'
  24  003E              	db 0
  24  0023              @ROMDATA_BASE .section inpage 'code'
  24  0023              	db 0
  24  003F              @HCCINIT_UartSendBuf .section 'data'
  24  003F              	db 0
  24  0023              @ROMDATA_BASE .section inpage 'code'
  24  0023              	db 0
  24  0040              @HCCINIT_UartSendBuf .section 'data'
  24  0040              	db 0
  24  0024              @ROMDATA_BASE .section inpage 'code'
  24  0024              	db 0
  24  0041              @HCCINIT_UartSendBuf .section 'data'
  24  0041              	db 0
  24  0024              @ROMDATA_BASE .section inpage 'code'
文件：RF.c         编译器版本 HGASM 0202 页次42

  24  0024              	db 0
  24  0042              @HCCINIT_UartSendBuf .section 'data'
  24  0042              	db 0
  24  0025              @ROMDATA_BASE .section inpage 'code'
  24  0025              	db 0
  24  0043              @HCCINIT_UartSendBuf .section 'data'
  24  0043              	db 0
  24  0025              @ROMDATA_BASE .section inpage 'code'
  24  0025              	db 0
  24  0044              @HCCINIT_UartSendBuf .section 'data'
  24  0044              	db 0
  24  0026              @ROMDATA_BASE .section inpage 'code'
  24  0026              	db 0
  24  0045              @HCCINIT_UartSendBuf .section 'data'
  24  0045              	db 0
  24  0026              @ROMDATA_BASE .section inpage 'code'
  24  0026              	db 0
  24  0046              @HCCINIT_UartSendBuf .section 'data'
  24  0046              	db 0
  24  0027              @ROMDATA_BASE .section inpage 'code'
  24  0027              	db 0
  24  0047              @HCCINIT_UartSendBuf .section 'data'
  24  0047              	db 0
  24  0027              @ROMDATA_BASE .section inpage 'code'
  24  0027              	db 0
  24  0048              @HCCINIT_UartSendBuf .section 'data'
  24  0048              	db 0
  24  0028              @ROMDATA_BASE .section inpage 'code'
  24  0028              	db 0
  24  0049              @HCCINIT_UartSendBuf .section 'data'
  24  0049              	db 0
  24  0028              @ROMDATA_BASE .section inpage 'code'
  24  0028              	db 0
  24  004A              @HCCINIT_UartSendBuf .section 'data'
  24  004A              	db 0
  24  0029              @ROMDATA_BASE .section inpage 'code'
  24  0029              	db 0
  24  004B              @HCCINIT_UartSendBuf .section 'data'
  24  004B              	db 0
  24  0029              @ROMDATA_BASE .section inpage 'code'
  24  0029              	db 0
  24  004C              @HCCINIT_UartSendBuf .section 'data'
  24  004C              	db 0
  24  002A              @ROMDATA_BASE .section inpage 'code'
  24  002A              	db 0
  24  004D              @HCCINIT_UartSendBuf .section 'data'
  24  004D              	db 0
  24  002A              @ROMDATA_BASE .section inpage 'code'
  24  002A              	db 0
  24  004E              @HCCINIT_UartSendBuf .section 'data'
  24  004E              	db 0
  24  002B              @ROMDATA_BASE .section inpage 'code'
  24  002B              	db 0
  24  004F              @HCCINIT_UartSendBuf .section 'data'
  24  004F              	db 0
  24  002B              @ROMDATA_BASE .section inpage 'code'
  24  002B              	db 0
  24  0050              @HCCINIT_UartSendBuf .section 'data'
  24  0050              	db 0
  24  002C              @ROMDATA_BASE .section inpage 'code'
文件：RF.c         编译器版本 HGASM 0202 页次43

  24  002C              	db 0
  24  0051              @HCCINIT_UartSendBuf .section 'data'
  24  0051              	db 0
  24  002C              @ROMDATA_BASE .section inpage 'code'
  24  002C              	db 0
  24  0052              @HCCINIT_UartSendBuf .section 'data'
  24  0052              	db 0
  24  002D              @ROMDATA_BASE .section inpage 'code'
  24  002D              	db 0
  24  0053              @HCCINIT_UartSendBuf .section 'data'
  24  0053              	db 0
  24  002D              @ROMDATA_BASE .section inpage 'code'
  24  002D              	db 0
  24  0054              @HCCINIT_UartSendBuf .section 'data'
  24  0054              	db 0
  24  002E              @ROMDATA_BASE .section inpage 'code'
  24  002E              	db 0
  24  0055              @HCCINIT_UartSendBuf .section 'data'
  24  0055              	db 0
  24  002E              @ROMDATA_BASE .section inpage 'code'
  24  002E              	db 0
  24  0056              @HCCINIT_UartSendBuf .section 'data'
  24  0056              	db 0
  24  002F              @ROMDATA_BASE .section inpage 'code'
  24  002F              	db 0
  24  0057              @HCCINIT_UartSendBuf .section 'data'
  24  0057              	db 0
  24  002F              @ROMDATA_BASE .section inpage 'code'
  24  002F              	db 0
  24  0058              @HCCINIT_UartSendBuf .section 'data'
  24  0058              	db 0
  24  0030              @ROMDATA_BASE .section inpage 'code'
  24  0030              	db 0
  24  0059              @HCCINIT_UartSendBuf .section 'data'
  24  0059              	db 0
  24  0030              @ROMDATA_BASE .section inpage 'code'
  24  0030              	db 0
  24  005A              @HCCINIT_UartSendBuf .section 'data'
  24  005A              	db 0
  24  0031              @ROMDATA_BASE .section inpage 'code'
  24  0031              	db 0
  24  005B              @HCCINIT_UartSendBuf .section 'data'
  24  005B              	db 0
  24  0031              @ROMDATA_BASE .section inpage 'code'
  24  0031              	db 0
  24  005C              @HCCINIT_UartSendBuf .section 'data'
  24  005C              	db 0
  24  0032              @ROMDATA_BASE .section inpage 'code'
  24  0032              	db 0
  24  005D              @HCCINIT_UartSendBuf .section 'data'
  24  005D              	db 0
  24  0032              @ROMDATA_BASE .section inpage 'code'
  24  0032              	db 0
  24  005E              @HCCINIT_UartSendBuf .section 'data'
  24  005E              	db 0
  24  0033              @ROMDATA_BASE .section inpage 'code'
  24  0033              	db 0
  24  005F              @HCCINIT_UartSendBuf .section 'data'
  24  005F              	db 0
  24  0033              @ROMDATA_BASE .section inpage 'code'
文件：RF.c         编译器版本 HGASM 0202 页次44

  24  0033              	db 0
  24  0060              @HCCINIT_UartSendBuf .section 'data'
  24  0060              public _UartReadBuf
  23  0060              #line 23 "e:\x-sense_svn\xp02\xp02\src\RF.c"
  23  0000              @HCCINIT_UartReadBuf .section 'data'
  23  0000              _UartReadBuf label byte
  23  0000              #pragma debug variable 49 1 _UartReadBuf "UartReadBuf"
  23  0000              	db 0
  23  0034              @ROMDATA_BASE .section inpage 'code'
  23  0034              	db 0
  23  0001              @HCCINIT_UartReadBuf .section 'data'
  23  0001              	db 0
  23  0034              @ROMDATA_BASE .section inpage 'code'
  23  0034              	db 0
  23  0002              @HCCINIT_UartReadBuf .section 'data'
  23  0002              	db 0
  23  0035              @ROMDATA_BASE .section inpage 'code'
  23  0035              	db 0
  23  0003              @HCCINIT_UartReadBuf .section 'data'
  23  0003              	db 0
  23  0035              @ROMDATA_BASE .section inpage 'code'
  23  0035              	db 0
  23  0004              @HCCINIT_UartReadBuf .section 'data'
  23  0004              	db 0
  23  0036              @ROMDATA_BASE .section inpage 'code'
  23  0036              	db 0
  23  0005              @HCCINIT_UartReadBuf .section 'data'
  23  0005              	db 0
  23  0036              @ROMDATA_BASE .section inpage 'code'
  23  0036              	db 0
  23  0006              @HCCINIT_UartReadBuf .section 'data'
  23  0006              	db 0
  23  0037              @ROMDATA_BASE .section inpage 'code'
  23  0037              	db 0
  23  0007              @HCCINIT_UartReadBuf .section 'data'
  23  0007              	db 0
  23  0037              @ROMDATA_BASE .section inpage 'code'
  23  0037              	db 0
  23  0008              @HCCINIT_UartReadBuf .section 'data'
  23  0008              	db 0
  23  0038              @ROMDATA_BASE .section inpage 'code'
  23  0038              	db 0
  23  0009              @HCCINIT_UartReadBuf .section 'data'
  23  0009              	db 0
  23  0038              @ROMDATA_BASE .section inpage 'code'
  23  0038              	db 0
  23  000A              @HCCINIT_UartReadBuf .section 'data'
  23  000A              	db 0
  23  0039              @ROMDATA_BASE .section inpage 'code'
  23  0039              	db 0
  23  000B              @HCCINIT_UartReadBuf .section 'data'
  23  000B              	db 0
  23  0039              @ROMDATA_BASE .section inpage 'code'
  23  0039              	db 0
  23  000C              @HCCINIT_UartReadBuf .section 'data'
  23  000C              	db 0
  23  003A              @ROMDATA_BASE .section inpage 'code'
  23  003A              	db 0
  23  000D              @HCCINIT_UartReadBuf .section 'data'
  23  000D              	db 0
文件：RF.c         编译器版本 HGASM 0202 页次45

  23  003A              @ROMDATA_BASE .section inpage 'code'
  23  003A              	db 0
  23  000E              @HCCINIT_UartReadBuf .section 'data'
  23  000E              	db 0
  23  003B              @ROMDATA_BASE .section inpage 'code'
  23  003B              	db 0
  23  000F              @HCCINIT_UartReadBuf .section 'data'
  23  000F              	db 0
  23  003B              @ROMDATA_BASE .section inpage 'code'
  23  003B              	db 0
  23  0010              @HCCINIT_UartReadBuf .section 'data'
  23  0010              	db 0
  23  003C              @ROMDATA_BASE .section inpage 'code'
  23  003C              	db 0
  23  0011              @HCCINIT_UartReadBuf .section 'data'
  23  0011              	db 0
  23  003C              @ROMDATA_BASE .section inpage 'code'
  23  003C              	db 0
  23  0012              @HCCINIT_UartReadBuf .section 'data'
  23  0012              	db 0
  23  003D              @ROMDATA_BASE .section inpage 'code'
  23  003D              	db 0
  23  0013              @HCCINIT_UartReadBuf .section 'data'
  23  0013              	db 0
  23  003D              @ROMDATA_BASE .section inpage 'code'
  23  003D              	db 0
  23  0014              @HCCINIT_UartReadBuf .section 'data'
  23  0014              	db 0
  23  003E              @ROMDATA_BASE .section inpage 'code'
  23  003E              	db 0
  23  0015              @HCCINIT_UartReadBuf .section 'data'
  23  0015              	db 0
  23  003E              @ROMDATA_BASE .section inpage 'code'
  23  003E              	db 0
  23  0016              @HCCINIT_UartReadBuf .section 'data'
  23  0016              	db 0
  23  003F              @ROMDATA_BASE .section inpage 'code'
  23  003F              	db 0
  23  0017              @HCCINIT_UartReadBuf .section 'data'
  23  0017              	db 0
  23  003F              @ROMDATA_BASE .section inpage 'code'
  23  003F              	db 0
  23  0018              @HCCINIT_UartReadBuf .section 'data'
  23  0018              	db 0
  23  0040              @ROMDATA_BASE .section inpage 'code'
  23  0040              	db 0
  23  0019              @HCCINIT_UartReadBuf .section 'data'
  23  0019              	db 0
  23  0040              @ROMDATA_BASE .section inpage 'code'
  23  0040              	db 0
  23  001A              @HCCINIT_UartReadBuf .section 'data'
  23  001A              	db 0
  23  0041              @ROMDATA_BASE .section inpage 'code'
  23  0041              	db 0
  23  001B              @HCCINIT_UartReadBuf .section 'data'
  23  001B              	db 0
  23  0041              @ROMDATA_BASE .section inpage 'code'
  23  0041              	db 0
  23  001C              @HCCINIT_UartReadBuf .section 'data'
  23  001C              	db 0
文件：RF.c         编译器版本 HGASM 0202 页次46

  23  0042              @ROMDATA_BASE .section inpage 'code'
  23  0042              	db 0
  23  001D              @HCCINIT_UartReadBuf .section 'data'
  23  001D              	db 0
  23  0042              @ROMDATA_BASE .section inpage 'code'
  23  0042              	db 0
  23  001E              @HCCINIT_UartReadBuf .section 'data'
  23  001E              	db 0
  23  0043              @ROMDATA_BASE .section inpage 'code'
  23  0043              	db 0
  23  001F              @HCCINIT_UartReadBuf .section 'data'
  23  001F              	db 0
  23  0043              @ROMDATA_BASE .section inpage 'code'
  23  0043              	db 0
  23  0020              @HCCINIT_UartReadBuf .section 'data'
  23  0020              	db 0
  23  0044              @ROMDATA_BASE .section inpage 'code'
  23  0044              	db 0
  23  0021              @HCCINIT_UartReadBuf .section 'data'
  23  0021              	db 0
  23  0044              @ROMDATA_BASE .section inpage 'code'
  23  0044              	db 0
  23  0022              @HCCINIT_UartReadBuf .section 'data'
  23  0022              	db 0
  23  0045              @ROMDATA_BASE .section inpage 'code'
  23  0045              	db 0
  23  0023              @HCCINIT_UartReadBuf .section 'data'
  23  0023              	db 0
  23  0045              @ROMDATA_BASE .section inpage 'code'
  23  0045              	db 0
  23  0024              @HCCINIT_UartReadBuf .section 'data'
  23  0024              	db 0
  23  0046              @ROMDATA_BASE .section inpage 'code'
  23  0046              	db 0
  23  0025              @HCCINIT_UartReadBuf .section 'data'
  23  0025              	db 0
  23  0046              @ROMDATA_BASE .section inpage 'code'
  23  0046              	db 0
  23  0026              @HCCINIT_UartReadBuf .section 'data'
  23  0026              	db 0
  23  0047              @ROMDATA_BASE .section inpage 'code'
  23  0047              	db 0
  23  0027              @HCCINIT_UartReadBuf .section 'data'
  23  0027              	db 0
  23  0047              @ROMDATA_BASE .section inpage 'code'
  23  0047              	db 0
  23  0028              @HCCINIT_UartReadBuf .section 'data'
  23  0028              	db 0
  23  0048              @ROMDATA_BASE .section inpage 'code'
  23  0048              	db 0
  23  0029              @HCCINIT_UartReadBuf .section 'data'
  23  0029              	db 0
  23  0048              @ROMDATA_BASE .section inpage 'code'
  23  0048              	db 0
  23  002A              @HCCINIT_UartReadBuf .section 'data'
  23  002A              	db 0
  23  0049              @ROMDATA_BASE .section inpage 'code'
  23  0049              	db 0
  23  002B              @HCCINIT_UartReadBuf .section 'data'
  23  002B              	db 0
文件：RF.c         编译器版本 HGASM 0202 页次47

  23  0049              @ROMDATA_BASE .section inpage 'code'
  23  0049              	db 0
  23  002C              @HCCINIT_UartReadBuf .section 'data'
  23  002C              	db 0
  23  004A              @ROMDATA_BASE .section inpage 'code'
  23  004A              	db 0
  23  002D              @HCCINIT_UartReadBuf .section 'data'
  23  002D              	db 0
  23  004A              @ROMDATA_BASE .section inpage 'code'
  23  004A              	db 0
  23  002E              @HCCINIT_UartReadBuf .section 'data'
  23  002E              	db 0
  23  004B              @ROMDATA_BASE .section inpage 'code'
  23  004B              	db 0
  23  002F              @HCCINIT_UartReadBuf .section 'data'
  23  002F              	db 0
  23  004B              @ROMDATA_BASE .section inpage 'code'
  23  004B              	db 0
  23  0030              @HCCINIT_UartReadBuf .section 'data'
  23  0030              	db 0
  23  004C              @ROMDATA_BASE .section inpage 'code'
  23  004C              	db 0
  23  0031              @HCCINIT_UartReadBuf .section 'data'
  23  0031              	db 0
  23  004C              @ROMDATA_BASE .section inpage 'code'
  23  004C              	db 0
  23  0032              @HCCINIT_UartReadBuf .section 'data'
  23  0032              	db 0
  23  004D              @ROMDATA_BASE .section inpage 'code'
  23  004D              	db 0
  23  0033              @HCCINIT_UartReadBuf .section 'data'
  23  0033              	db 0
  23  004D              @ROMDATA_BASE .section inpage 'code'
  23  004D              	db 0
  23  0034              @HCCINIT_UartReadBuf .section 'data'
  23  0034              	db 0
  23  004E              @ROMDATA_BASE .section inpage 'code'
  23  004E              	db 0
  23  0035              @HCCINIT_UartReadBuf .section 'data'
  23  0035              	db 0
  23  004E              @ROMDATA_BASE .section inpage 'code'
  23  004E              	db 0
  23  0036              @HCCINIT_UartReadBuf .section 'data'
  23  0036              	db 0
  23  004F              @ROMDATA_BASE .section inpage 'code'
  23  004F              	db 0
  23  0037              @HCCINIT_UartReadBuf .section 'data'
  23  0037              	db 0
  23  004F              @ROMDATA_BASE .section inpage 'code'
  23  004F              	db 0
  23  0038              @HCCINIT_UartReadBuf .section 'data'
  23  0038              	db 0
  23  0050              @ROMDATA_BASE .section inpage 'code'
  23  0050              	db 0
  23  0039              @HCCINIT_UartReadBuf .section 'data'
  23  0039              	db 0
  23  0050              @ROMDATA_BASE .section inpage 'code'
  23  0050              	db 0
  23  003A              @HCCINIT_UartReadBuf .section 'data'
  23  003A              	db 0
文件：RF.c         编译器版本 HGASM 0202 页次48

  23  0051              @ROMDATA_BASE .section inpage 'code'
  23  0051              	db 0
  23  003B              @HCCINIT_UartReadBuf .section 'data'
  23  003B              	db 0
  23  0051              @ROMDATA_BASE .section inpage 'code'
  23  0051              	db 0
  23  003C              @HCCINIT_UartReadBuf .section 'data'
  23  003C              	db 0
  23  0052              @ROMDATA_BASE .section inpage 'code'
  23  0052              	db 0
  23  003D              @HCCINIT_UartReadBuf .section 'data'
  23  003D              	db 0
  23  0052              @ROMDATA_BASE .section inpage 'code'
  23  0052              	db 0
  23  003E              @HCCINIT_UartReadBuf .section 'data'
  23  003E              	db 0
  23  0053              @ROMDATA_BASE .section inpage 'code'
  23  0053              	db 0
  23  003F              @HCCINIT_UartReadBuf .section 'data'
  23  003F              	db 0
  23  0053              @ROMDATA_BASE .section inpage 'code'
  23  0053              	db 0
  23  0040              @HCCINIT_UartReadBuf .section 'data'
  23  0040              	db 0
  23  0054              @ROMDATA_BASE .section inpage 'code'
  23  0054              	db 0
  23  0041              @HCCINIT_UartReadBuf .section 'data'
  23  0041              	db 0
  23  0054              @ROMDATA_BASE .section inpage 'code'
  23  0054              	db 0
  23  0042              @HCCINIT_UartReadBuf .section 'data'
  23  0042              	db 0
  23  0055              @ROMDATA_BASE .section inpage 'code'
  23  0055              	db 0
  23  0043              @HCCINIT_UartReadBuf .section 'data'
  23  0043              	db 0
  23  0055              @ROMDATA_BASE .section inpage 'code'
  23  0055              	db 0
  23  0044              @HCCINIT_UartReadBuf .section 'data'
  23  0044              	db 0
  23  0056              @ROMDATA_BASE .section inpage 'code'
  23  0056              	db 0
  23  0045              @HCCINIT_UartReadBuf .section 'data'
  23  0045              	db 0
  23  0056              @ROMDATA_BASE .section inpage 'code'
  23  0056              	db 0
  23  0046              @HCCINIT_UartReadBuf .section 'data'
  23  0046              	db 0
  23  0057              @ROMDATA_BASE .section inpage 'code'
  23  0057              	db 0
  23  0047              @HCCINIT_UartReadBuf .section 'data'
  23  0047              	db 0
  23  0057              @ROMDATA_BASE .section inpage 'code'
  23  0057              	db 0
  23  0048              @HCCINIT_UartReadBuf .section 'data'
  23  0048              	db 0
  23  0058              @ROMDATA_BASE .section inpage 'code'
  23  0058              	db 0
  23  0049              @HCCINIT_UartReadBuf .section 'data'
  23  0049              	db 0
文件：RF.c         编译器版本 HGASM 0202 页次49

  23  0058              @ROMDATA_BASE .section inpage 'code'
  23  0058              	db 0
  23  004A              @HCCINIT_UartReadBuf .section 'data'
  23  004A              	db 0
  23  0059              @ROMDATA_BASE .section inpage 'code'
  23  0059              	db 0
  23  004B              @HCCINIT_UartReadBuf .section 'data'
  23  004B              	db 0
  23  0059              @ROMDATA_BASE .section inpage 'code'
  23  0059              	db 0
  23  004C              @HCCINIT_UartReadBuf .section 'data'
  23  004C              	db 0
  23  005A              @ROMDATA_BASE .section inpage 'code'
  23  005A              	db 0
  23  004D              @HCCINIT_UartReadBuf .section 'data'
  23  004D              	db 0
  23  005A              @ROMDATA_BASE .section inpage 'code'
  23  005A              	db 0
  23  004E              @HCCINIT_UartReadBuf .section 'data'
  23  004E              	db 0
  23  005B              @ROMDATA_BASE .section inpage 'code'
  23  005B              	db 0
  23  004F              @HCCINIT_UartReadBuf .section 'data'
  23  004F              	db 0
  23  005B              @ROMDATA_BASE .section inpage 'code'
  23  005B              	db 0
  23  0050              @HCCINIT_UartReadBuf .section 'data'
  23  0050              	db 0
  23  005C              @ROMDATA_BASE .section inpage 'code'
  23  005C              	db 0
  23  0051              @HCCINIT_UartReadBuf .section 'data'
  23  0051              	db 0
  23  005C              @ROMDATA_BASE .section inpage 'code'
  23  005C              	db 0
  23  0052              @HCCINIT_UartReadBuf .section 'data'
  23  0052              	db 0
  23  005D              @ROMDATA_BASE .section inpage 'code'
  23  005D              	db 0
  23  0053              @HCCINIT_UartReadBuf .section 'data'
  23  0053              	db 0
  23  005D              @ROMDATA_BASE .section inpage 'code'
  23  005D              	db 0
  23  0054              @HCCINIT_UartReadBuf .section 'data'
  23  0054              	db 0
  23  005E              @ROMDATA_BASE .section inpage 'code'
  23  005E              	db 0
  23  0055              @HCCINIT_UartReadBuf .section 'data'
  23  0055              	db 0
  23  005E              @ROMDATA_BASE .section inpage 'code'
  23  005E              	db 0
  23  0056              @HCCINIT_UartReadBuf .section 'data'
  23  0056              	db 0
  23  005F              @ROMDATA_BASE .section inpage 'code'
  23  005F              	db 0
  23  0057              @HCCINIT_UartReadBuf .section 'data'
  23  0057              	db 0
  23  005F              @ROMDATA_BASE .section inpage 'code'
  23  005F              	db 0
  23  0058              @HCCINIT_UartReadBuf .section 'data'
  23  0058              	db 0
文件：RF.c         编译器版本 HGASM 0202 页次50

  23  0060              @ROMDATA_BASE .section inpage 'code'
  23  0060              	db 0
  23  0059              @HCCINIT_UartReadBuf .section 'data'
  23  0059              	db 0
  23  0060              @ROMDATA_BASE .section inpage 'code'
  23  0060              	db 0
  23  005A              @HCCINIT_UartReadBuf .section 'data'
  23  005A              	db 0
  23  0061              @ROMDATA_BASE .section inpage 'code'
  23  0061              	db 0
  23  005B              @HCCINIT_UartReadBuf .section 'data'
  23  005B              	db 0
  23  0061              @ROMDATA_BASE .section inpage 'code'
  23  0061              	db 0
  23  005C              @HCCINIT_UartReadBuf .section 'data'
  23  005C              	db 0
  23  0062              @ROMDATA_BASE .section inpage 'code'
  23  0062              	db 0
  23  005D              @HCCINIT_UartReadBuf .section 'data'
  23  005D              	db 0
  23  0062              @ROMDATA_BASE .section inpage 'code'
  23  0062              	db 0
  23  005E              @HCCINIT_UartReadBuf .section 'data'
  23  005E              	db 0
  23  0063              @ROMDATA_BASE .section inpage 'code'
  23  0063              	db 0
  23  005F              @HCCINIT_UartReadBuf .section 'data'
  23  005F              	db 0
  23  0063              @ROMDATA_BASE .section inpage 'code'
  23  0063              	db 0
  23  0060              @HCCINIT_UartReadBuf .section 'data'
  23  0060              public _UartQueueBuf
  22  0060              #line 22 "e:\x-sense_svn\xp02\xp02\src\RF.c"
  22  0000              @HCCINIT_UartQueueBuf .section 'data'
  22  0000              _UartQueueBuf label byte
  22  0000              #pragma debug array 50 8 64 1
  22  0000              #pragma debug array 50 8 64 1
  22  0000              #pragma debug variable 50 1 _UartQueueBuf "UartQueueBuf"
  22  0000              	db 0
  22  0064              @ROMDATA_BASE .section inpage 'code'
  22  0064              	db 0
  22  0001              @HCCINIT_UartQueueBuf .section 'data'
  22  0001              	db 0
  22  0064              @ROMDATA_BASE .section inpage 'code'
  22  0064              	db 0
  22  0002              @HCCINIT_UartQueueBuf .section 'data'
  22  0002              	db 0
  22  0065              @ROMDATA_BASE .section inpage 'code'
  22  0065              	db 0
  22  0003              @HCCINIT_UartQueueBuf .section 'data'
  22  0003              	db 0
  22  0065              @ROMDATA_BASE .section inpage 'code'
  22  0065              	db 0
  22  0004              @HCCINIT_UartQueueBuf .section 'data'
  22  0004              	db 0
  22  0066              @ROMDATA_BASE .section inpage 'code'
  22  0066              	db 0
  22  0005              @HCCINIT_UartQueueBuf .section 'data'
  22  0005              	db 0
  22  0066              @ROMDATA_BASE .section inpage 'code'
文件：RF.c         编译器版本 HGASM 0202 页次51

  22  0066              	db 0
  22  0006              @HCCINIT_UartQueueBuf .section 'data'
  22  0006              	db 0
  22  0067              @ROMDATA_BASE .section inpage 'code'
  22  0067              	db 0
  22  0007              @HCCINIT_UartQueueBuf .section 'data'
  22  0007              	db 0
  22  0067              @ROMDATA_BASE .section inpage 'code'
  22  0067              	db 0
  22  0008              @HCCINIT_UartQueueBuf .section 'data'
  22  0008              	db 0
  22  0068              @ROMDATA_BASE .section inpage 'code'
  22  0068              	db 0
  22  0009              @HCCINIT_UartQueueBuf .section 'data'
  22  0009              	db 0
  22  0068              @ROMDATA_BASE .section inpage 'code'
  22  0068              	db 0
  22  000A              @HCCINIT_UartQueueBuf .section 'data'
  22  000A              	db 0
  22  0069              @ROMDATA_BASE .section inpage 'code'
  22  0069              	db 0
  22  000B              @HCCINIT_UartQueueBuf .section 'data'
  22  000B              	db 0
  22  0069              @ROMDATA_BASE .section inpage 'code'
  22  0069              	db 0
  22  000C              @HCCINIT_UartQueueBuf .section 'data'
  22  000C              	db 0
  22  006A              @ROMDATA_BASE .section inpage 'code'
  22  006A              	db 0
  22  000D              @HCCINIT_UartQueueBuf .section 'data'
  22  000D              	db 0
  22  006A              @ROMDATA_BASE .section inpage 'code'
  22  006A              	db 0
  22  000E              @HCCINIT_UartQueueBuf .section 'data'
  22  000E              	db 0
  22  006B              @ROMDATA_BASE .section inpage 'code'
  22  006B              	db 0
  22  000F              @HCCINIT_UartQueueBuf .section 'data'
  22  000F              	db 0
  22  006B              @ROMDATA_BASE .section inpage 'code'
  22  006B              	db 0
  22  0010              @HCCINIT_UartQueueBuf .section 'data'
  22  0010              	db 0
  22  006C              @ROMDATA_BASE .section inpage 'code'
  22  006C              	db 0
  22  0011              @HCCINIT_UartQueueBuf .section 'data'
  22  0011              	db 0
  22  006C              @ROMDATA_BASE .section inpage 'code'
  22  006C              	db 0
  22  0012              @HCCINIT_UartQueueBuf .section 'data'
  22  0012              	db 0
  22  006D              @ROMDATA_BASE .section inpage 'code'
  22  006D              	db 0
  22  0013              @HCCINIT_UartQueueBuf .section 'data'
  22  0013              	db 0
  22  006D              @ROMDATA_BASE .section inpage 'code'
  22  006D              	db 0
  22  0014              @HCCINIT_UartQueueBuf .section 'data'
  22  0014              	db 0
  22  006E              @ROMDATA_BASE .section inpage 'code'
文件：RF.c         编译器版本 HGASM 0202 页次52

  22  006E              	db 0
  22  0015              @HCCINIT_UartQueueBuf .section 'data'
  22  0015              	db 0
  22  006E              @ROMDATA_BASE .section inpage 'code'
  22  006E              	db 0
  22  0016              @HCCINIT_UartQueueBuf .section 'data'
  22  0016              	db 0
  22  006F              @ROMDATA_BASE .section inpage 'code'
  22  006F              	db 0
  22  0017              @HCCINIT_UartQueueBuf .section 'data'
  22  0017              	db 0
  22  006F              @ROMDATA_BASE .section inpage 'code'
  22  006F              	db 0
  22  0018              @HCCINIT_UartQueueBuf .section 'data'
  22  0018              	db 0
  22  0070              @ROMDATA_BASE .section inpage 'code'
  22  0070              	db 0
  22  0019              @HCCINIT_UartQueueBuf .section 'data'
  22  0019              	db 0
  22  0070              @ROMDATA_BASE .section inpage 'code'
  22  0070              	db 0
  22  001A              @HCCINIT_UartQueueBuf .section 'data'
  22  001A              	db 0
  22  0071              @ROMDATA_BASE .section inpage 'code'
  22  0071              	db 0
  22  001B              @HCCINIT_UartQueueBuf .section 'data'
  22  001B              	db 0
  22  0071              @ROMDATA_BASE .section inpage 'code'
  22  0071              	db 0
  22  001C              @HCCINIT_UartQueueBuf .section 'data'
  22  001C              	db 0
  22  0072              @ROMDATA_BASE .section inpage 'code'
  22  0072              	db 0
  22  001D              @HCCINIT_UartQueueBuf .section 'data'
  22  001D              	db 0
  22  0072              @ROMDATA_BASE .section inpage 'code'
  22  0072              	db 0
  22  001E              @HCCINIT_UartQueueBuf .section 'data'
  22  001E              	db 0
  22  0073              @ROMDATA_BASE .section inpage 'code'
  22  0073              	db 0
  22  001F              @HCCINIT_UartQueueBuf .section 'data'
  22  001F              	db 0
  22  0073              @ROMDATA_BASE .section inpage 'code'
  22  0073              	db 0
  22  0020              @HCCINIT_UartQueueBuf .section 'data'
  22  0020              	db 0
  22  0074              @ROMDATA_BASE .section inpage 'code'
  22  0074              	db 0
  22  0021              @HCCINIT_UartQueueBuf .section 'data'
  22  0021              	db 0
  22  0074              @ROMDATA_BASE .section inpage 'code'
  22  0074              	db 0
  22  0022              @HCCINIT_UartQueueBuf .section 'data'
  22  0022              	db 0
  22  0075              @ROMDATA_BASE .section inpage 'code'
  22  0075              	db 0
  22  0023              @HCCINIT_UartQueueBuf .section 'data'
  22  0023              	db 0
  22  0075              @ROMDATA_BASE .section inpage 'code'
文件：RF.c         编译器版本 HGASM 0202 页次53

  22  0075              	db 0
  22  0024              @HCCINIT_UartQueueBuf .section 'data'
  22  0024              	db 0
  22  0076              @ROMDATA_BASE .section inpage 'code'
  22  0076              	db 0
  22  0025              @HCCINIT_UartQueueBuf .section 'data'
  22  0025              	db 0
  22  0076              @ROMDATA_BASE .section inpage 'code'
  22  0076              	db 0
  22  0026              @HCCINIT_UartQueueBuf .section 'data'
  22  0026              	db 0
  22  0077              @ROMDATA_BASE .section inpage 'code'
  22  0077              	db 0
  22  0027              @HCCINIT_UartQueueBuf .section 'data'
  22  0027              	db 0
  22  0077              @ROMDATA_BASE .section inpage 'code'
  22  0077              	db 0
  22  0028              @HCCINIT_UartQueueBuf .section 'data'
  22  0028              	db 0
  22  0078              @ROMDATA_BASE .section inpage 'code'
  22  0078              	db 0
  22  0029              @HCCINIT_UartQueueBuf .section 'data'
  22  0029              	db 0
  22  0078              @ROMDATA_BASE .section inpage 'code'
  22  0078              	db 0
  22  002A              @HCCINIT_UartQueueBuf .section 'data'
  22  002A              	db 0
  22  0079              @ROMDATA_BASE .section inpage 'code'
  22  0079              	db 0
  22  002B              @HCCINIT_UartQueueBuf .section 'data'
  22  002B              	db 0
  22  0079              @ROMDATA_BASE .section inpage 'code'
  22  0079              	db 0
  22  002C              @HCCINIT_UartQueueBuf .section 'data'
  22  002C              	db 0
  22  007A              @ROMDATA_BASE .section inpage 'code'
  22  007A              	db 0
  22  002D              @HCCINIT_UartQueueBuf .section 'data'
  22  002D              	db 0
  22  007A              @ROMDATA_BASE .section inpage 'code'
  22  007A              	db 0
  22  002E              @HCCINIT_UartQueueBuf .section 'data'
  22  002E              	db 0
  22  007B              @ROMDATA_BASE .section inpage 'code'
  22  007B              	db 0
  22  002F              @HCCINIT_UartQueueBuf .section 'data'
  22  002F              	db 0
  22  007B              @ROMDATA_BASE .section inpage 'code'
  22  007B              	db 0
  22  0030              @HCCINIT_UartQueueBuf .section 'data'
  22  0030              	db 0
  22  007C              @ROMDATA_BASE .section inpage 'code'
  22  007C              	db 0
  22  0031              @HCCINIT_UartQueueBuf .section 'data'
  22  0031              	db 0
  22  007C              @ROMDATA_BASE .section inpage 'code'
  22  007C              	db 0
  22  0032              @HCCINIT_UartQueueBuf .section 'data'
  22  0032              	db 0
  22  007D              @ROMDATA_BASE .section inpage 'code'
文件：RF.c         编译器版本 HGASM 0202 页次54

  22  007D              	db 0
  22  0033              @HCCINIT_UartQueueBuf .section 'data'
  22  0033              	db 0
  22  007D              @ROMDATA_BASE .section inpage 'code'
  22  007D              	db 0
  22  0034              @HCCINIT_UartQueueBuf .section 'data'
  22  0034              	db 0
  22  007E              @ROMDATA_BASE .section inpage 'code'
  22  007E              	db 0
  22  0035              @HCCINIT_UartQueueBuf .section 'data'
  22  0035              	db 0
  22  007E              @ROMDATA_BASE .section inpage 'code'
  22  007E              	db 0
  22  0036              @HCCINIT_UartQueueBuf .section 'data'
  22  0036              	db 0
  22  007F              @ROMDATA_BASE .section inpage 'code'
  22  007F              	db 0
  22  0037              @HCCINIT_UartQueueBuf .section 'data'
  22  0037              	db 0
  22  007F              @ROMDATA_BASE .section inpage 'code'
  22  007F              	db 0
  22  0038              @HCCINIT_UartQueueBuf .section 'data'
  22  0038              	db 0
  22  0080              @ROMDATA_BASE .section inpage 'code'
  22  0080              	db 0
  22  0039              @HCCINIT_UartQueueBuf .section 'data'
  22  0039              	db 0
  22  0080              @ROMDATA_BASE .section inpage 'code'
  22  0080              	db 0
  22  003A              @HCCINIT_UartQueueBuf .section 'data'
  22  003A              	db 0
  22  0081              @ROMDATA_BASE .section inpage 'code'
  22  0081              	db 0
  22  003B              @HCCINIT_UartQueueBuf .section 'data'
  22  003B              	db 0
  22  0081              @ROMDATA_BASE .section inpage 'code'
  22  0081              	db 0
  22  003C              @HCCINIT_UartQueueBuf .section 'data'
  22  003C              	db 0
  22  0082              @ROMDATA_BASE .section inpage 'code'
  22  0082              	db 0
  22  003D              @HCCINIT_UartQueueBuf .section 'data'
  22  003D              	db 0
  22  0082              @ROMDATA_BASE .section inpage 'code'
  22  0082              	db 0
  22  003E              @HCCINIT_UartQueueBuf .section 'data'
  22  003E              	db 0
  22  0083              @ROMDATA_BASE .section inpage 'code'
  22  0083              	db 0
  22  003F              @HCCINIT_UartQueueBuf .section 'data'
  22  003F              	db 0
  22  0083              @ROMDATA_BASE .section inpage 'code'
  22  0083              	db 0
  22  0040              @HCCINIT_UartQueueBuf .section 'data'
  22  0040              #pragma debug struct_end
  22  0040              #pragma debug struct_end
  22  0040              #pragma debug union_end
  22  0040              #pragma debug union_end
  22  0040              #pragma debug variable 52 1 ___pa "__pa" 1
  22  0040              #pragma debug struct_end
文件：RF.c         编译器版本 HGASM 0202 页次55

  22  0040              #pragma debug struct_end
  22  0040              #pragma debug union_end
  22  0040              #pragma debug union_end
  22  0040              #pragma debug variable 54 1 ___pac "__pac" 1
  22  0040              #pragma debug struct_end
  22  0040              #pragma debug struct_end
  22  0040              #pragma debug union_end
  22  0040              #pragma debug union_end
  22  0040              #pragma debug variable 56 1 ___mfi3 "__mfi3" 1
  22  0040              #pragma debug struct_end
  22  0040              #pragma debug struct_end
  22  0040              #pragma debug union_end
  22  0040              #pragma debug union_end
  22  0040              #pragma debug variable 58 1 ___u0sr "__u0sr" 1
  22  0040              #pragma debug variable 8 1 ___txr_rxr0 "__txr_rxr0" 1
  22  0040              
  22  0040              ; output external variables
  22  0040              extern _SysAO:byte
  22  0040              extern _PwrAO:byte
  22  0040              extern r1:byte
  22  0040              extern r2:byte
  22  0040              extern r3:byte
  22  0040              extern r4:byte
  22  0040              extern r5:byte
  22  0040              extern _E2promRead:near
  22  0040              extern _printf_2:byte
  22  0040              extern _printf:near
  22  0040              extern _SysteSetSig_2:byte
  22  0040              extern _SysteSetSig:near
  22  0040              extern _PollingRFLED_2:byte
  22  0040              extern _PollingRFLED:near
  22  0040              extern _PollingLED_2:byte
  22  0040              extern _PollingLED:near
  22  0040              extern _PollingBeep_2:byte
  22  0040              extern _PollingBeep:near
  22  0040              extern _TmrDeleteTimer_2:byte
  22  0040              extern _TmrDeleteTimer:near
  22  0040              extern _TmrInsertTimer_2:byte
  22  0040              extern _TmrInsertTimer:near
  22  0040              extern _SpeakerSendCmd_2:byte
  22  0040              extern _SpeakerSendCmd:near
  22  0040              extern _E2promWrite_2:byte
  22  0040              extern _E2promWrite:near
  22  0040              
  22  0040              ; 
  22  0040              ; Generated by holtek-gcc v3.19, Fri Nov 11 18:10:34 2022
  22  0040              ; Rebuild 718
  22  0040              ; end of file


        0 Errors, 0