文件：Adc.c        编译器版本 HGASM 0202 页次1


   1  0000              ; Generated by holtek-gcc v3.19, Fri Nov 11 18:10:30 2022
   2  0000              ; 
   3  0000              ; Configuration:
   4  0000              ;       with long instruction
   5  0000              ;       Multi-ROM, Multi-RAM
   6  0000              ;       bits_per_rom_unit:16
   7  0000              ;       with mp1
   8  0000              ;       with tbhp, address(0x9)
   9  0000              ;          Use tabrd-const
  10  0000              ;       
  11  0000              ; SFR address of long-instruction arch:
  12  0000              ;    mp0 = -1,1,0
  13  0000              ;    mp1 = 4,3,2
  14  0000              ;    mp2 = 14,13,12
  15  0000              ;    tbp = 9,7,8
  16  0000              ;    acc = 5
  17  0000              ;    pcl = 6
  18  0000              ;    status = 10
  19  0000              ;    bp = 11
  20  0000              ;    intc = 67
  21  0000              ;       
  22  0000              ;       
  23  0000              ; use 'tabrdc' instead of 'tabrd'
  24  0000              ;       
  25  0000              
  26  0000              #pragma translator "holtek-gcc 4.6.4" "3.19" "build 20130711"
  27  0000              ; Rebuild 718
  28  0000              
  29  0000              ir equ [2]
  30  0000              mp equ [3]
  31  0000              sbp equ [4]
  32  0000              acc equ [5]
  33  0000              bp equ [11]
  34  0000              tblp equ [7]
  35  0000              tbhp equ [9]
  36  0000              status equ [10]
  37  0000              c equ [10].0
  38  0000              ac equ [10].1
  39  0000              z equ [10].2
  40  0000              ov equ [10].3
  41  0000              cz equ [10].6
  42  0000              sc equ [10].7
  43  0000              intc equ [67]
  44  0000              
  45  0000              extern ra:byte
  46  0000              extern rb:byte
  47  0000              extern rc:byte
  48  0000              extern rd:byte
  49  0000              extern re:byte
  50  0000              extern rf:byte
  51  0000              extern rg:byte
  52  0000              extern rh:byte
  53  0000              extern _Crom2Prom:near
  54  0000              extern _Crom2PromNext:near
  55  0000              
  56  0000              RAMBANK 0 @BITDATASEC, @BITDATASEC1
  57  0000              @HCCINIT	.section 'data'
  58  0000              @HCCINIT0	.section 'data'
  59  0000              @BITDATASEC	 .section 'data'
文件：Adc.ASM      编译器版本 HGASM 0202 页次2

  60  0000              @BITDATASEC1	 .section 'data'
  61  0000              
  62  0000              #pragma debug scope 1 1
  63  0000              	extern __DELAY3:near
  64  0000              	extern __DELAYX3:near
  65  0000              	extern __DELAYX6:near
  66  0000              	extern __DELAYY5:near
  67  0000              	extern __DELAYY3:near
  68  0000              	extern _builtin_holtek_delay_2:byte
  69  0000              ___sadc1 equ [43]
  70  0000              ___sadc0 equ [42]
  71  0000              ___lvdc equ [79]
  72  0000              ___pb equ [24]
  73  0000              ___pc equ [27]
  74  0000              ___sadoh equ [45]
  75  0000              ___sadol equ [46]
  76  0000              public _GetAdcSample
  77  0000              #pragma debug scope 2 1

  25  0000              #line 25 "e:\x-sense_svn\xp02\xp02\src\Adc.c"
  25  0000              _GetAdcSample .section 'code'
  25  0000              _GetAdcSample proc
  25  0000              public _GetAdcSample_2
  25  0000  0004[           local _GetAdcSample_2 db 4 dup(?)	; 4,0
            00
            ]
  25  0004              #pragma debug variable 12 2 _GetAdcSample_2+0 "Channel"
  25  0004              #pragma debug variable 12 2 _GetAdcSample_2+2 "CoFualtCheckFlag"
  31  0004              #line 31 "e:\x-sense_svn\xp02\xp02\src\Adc.c"
  31  0000  352B        	clr [43].2
  32  0001              #line 32 "e:\x-sense_svn\xp02\xp02\src\Adc.c"
  32  0001  30AB        	set [43].1
  33  0002              #line 33 "e:\x-sense_svn\xp02\xp02\src\Adc.c"
  33  0002  342B        	clr [43].0
  36  0003              #line 36 "e:\x-sense_svn\xp02\xp02\src\Adc.c"
  36  0003  32AA        	set [42].5
  39  0004              #line 39 "e:\x-sense_svn\xp02\xp02\src\Adc.c"
  39  0004  37AB        	clr [43].7
  40  0005              #line 40 "e:\x-sense_svn\xp02\xp02\src\Adc.c"
  40  0005  372B        	clr [43].6
  41  0006              #line 41 "e:\x-sense_svn\xp02\xp02\src\Adc.c"
  41  0006  36AB        	clr [43].5
  44  0007              #line 44 "e:\x-sense_svn\xp02\xp02\src\Adc.c"
  44  0007  0700     R  	mov a,_GetAdcSample_2[0]
  44  0008  0500     R  	or a,_GetAdcSample_2[1]
  44  0009  390A        	snz z
  44  000A  2800     R  	jmp _L2
  46  000B              #line 46 "e:\x-sense_svn\xp02\xp02\src\Adc.c"
  46  000B  35AA        	clr [42].3
  47  000C              #line 47 "e:\x-sense_svn\xp02\xp02\src\Adc.c"
  47  000C  352A        	clr [42].2
  48  000D              #line 48 "e:\x-sense_svn\xp02\xp02\src\Adc.c"
  48  000D  34AA        	clr [42].1
  48  000E  2800     R  	jmp _L19
  48  000F              _L2:
  51  000F              #line 51 "e:\x-sense_svn\xp02\xp02\src\Adc.c"
  51  000F  0700     R  	mov a,_GetAdcSample_2[0]
  51  0010  0C01        	xor a,1
  51  0011  0500     R  	or a,_GetAdcSample_2[1]
  51  0012  390A        	snz z
文件：Adc.c        编译器版本 HGASM 0202 页次3

  51  0013  2800     R  	jmp _L4
  53  0014              #line 53 "e:\x-sense_svn\xp02\xp02\src\Adc.c"
  53  0014  35AA        	clr [42].3
  54  0015              #line 54 "e:\x-sense_svn\xp02\xp02\src\Adc.c"
  54  0015  312A        	set [42].2
  55  0016              #line 55 "e:\x-sense_svn\xp02\xp02\src\Adc.c"
  55  0016  30AA        	set [42].1
  56  0017              #line 56 "e:\x-sense_svn\xp02\xp02\src\Adc.c"
  56  0017  342A        	clr [42].0
  56  0018  2800     R  	jmp _L3
  56  0019              _L4:
  58  0019              #line 58 "e:\x-sense_svn\xp02\xp02\src\Adc.c"
  58  0019  0700     R  	mov a,_GetAdcSample_2[0]
  58  001A  0C02        	xor a,2
  58  001B  0500     R  	or a,_GetAdcSample_2[1]
  58  001C  390A        	snz z
  58  001D  2800     R  	jmp _L3
  60  001E              #line 60 "e:\x-sense_svn\xp02\xp02\src\Adc.c"
  60  001E  35AA        	clr [42].3
  61  001F              #line 61 "e:\x-sense_svn\xp02\xp02\src\Adc.c"
  61  001F  312A        	set [42].2
  62  0020              #line 62 "e:\x-sense_svn\xp02\xp02\src\Adc.c"
  62  0020  30AA        	set [42].1
  62  0021              _L19:
  63  0021              #line 63 "e:\x-sense_svn\xp02\xp02\src\Adc.c"
  63  0021  302A        	set [42].0
  63  0022              _L3:
  71  0022              #line 71 "e:\x-sense_svn\xp02\xp02\src\Adc.c"
  71  0022  362B        	clr [43].4
  72  0023              #line 72 "e:\x-sense_svn\xp02\xp02\src\Adc.c"
  72  0023  31AB        	set [43].3
  75  0024              #line 75 "e:\x-sense_svn\xp02\xp02\src\Adc.c"
  75  0024  322A        	set [42].4
  77  0025              #line 77 "e:\x-sense_svn\xp02\xp02\src\Adc.c"
  77  0025  35CF        	clr [79].3
  79  0026              #line 79 "e:\x-sense_svn\xp02\xp02\src\Adc.c"
  79  0026  0700     R  	mov a,_GetAdcSample_2[0]
  79  0027  0500     R  	or a,_GetAdcSample_2[1]
  79  0028  390A        	snz z
  79  0029  2800     R  	jmp _L5
  81  002A              #line 81 "e:\x-sense_svn\xp02\xp02\src\Adc.c"
  81  002A  3218        	set [24].4
  81  002B  2800     R  	jmp _L6
  81  002C              _L5:
  83  002C              #line 83 "e:\x-sense_svn\xp02\xp02\src\Adc.c"
  83  002C  0700     R  	mov a,_GetAdcSample_2[0]
  83  002D  0C01        	xor a,1
  83  002E  0500     R  	or a,_GetAdcSample_2[1]
  83  002F  390A        	snz z
  83  0030  2800     R  	jmp _L7
  86  0031              #line 86 "e:\x-sense_svn\xp02\xp02\src\Adc.c"
  86  0031  3318        	set [24].6
  86  0032  2800     R  	jmp _L6
  86  0033              _L7:
  89  0033              #line 89 "e:\x-sense_svn\xp02\xp02\src\Adc.c"
  89  0033  0700     R  	mov a,_GetAdcSample_2[0]
  89  0034  0C02        	xor a,2
  89  0035  0500     R  	or a,_GetAdcSample_2[1]
  89  0036  390A        	snz z
  89  0037  2800     R  	jmp _L6
文件：Adc.c        编译器版本 HGASM 0202 页次4

  89  0038  0700     R  	mov a,_GetAdcSample_2[2]
  89  0039  0C01        	xor a,1
  89  003A  0500     R  	or a,_GetAdcSample_2[3]
  89  003B  390A        	snz z
  89  003C  2800     R  	jmp _L6
  91  003D              #line 91 "e:\x-sense_svn\xp02\xp02\src\Adc.c"
  91  003D  309B        	set [27].1
  92  003E              #line 92 "e:\x-sense_svn\xp02\xp02\src\Adc.c"
  92  003E              ;# 92 "e:\x-sense_svn\xp02\xp02\src\Adc.c" 1
  92  003E              	IF 10000>263690
  92  003E              ;# 92 "e:\x-sense_svn\xp02\xp02\src\Adc.c" 1
  92  003E              	ERRMESSAGE 'the value 10000of the argument exceeds the maxinum 263690'
  92  003E              	ENDIF
  92  003E              ;# 92 "e:\x-sense_svn\xp02\xp02\src\Adc.c" 1
  92  003E              	IF 10000<0
  92  003E              ;# 92 "e:\x-sense_svn\xp02\xp02\src\Adc.c" 1
  92  003E              	ERRMESSAGE 'the value 10000 of the argument exceeds the mininum 0'
  92  003E              	ENDIF
  92  003E              ;# 92 "e:\x-sense_svn\xp02\xp02\src\Adc.c" 1
  92  003E              	IF 10000==0
  92  003E              ;# 92 "e:\x-sense_svn\xp02\xp02\src\Adc.c" 1
  92  003E              	JMP $
  92  003E              	ENDIF
  92  003E              ;# 92 "e:\x-sense_svn\xp02\xp02\src\Adc.c" 1
  92  003E              	IF (10000>=1) AND (10000<( 4 + __PBP__ * 2))
  92  003E              ;# 92 "e:\x-sense_svn\xp02\xp02\src\Adc.c" 1
  92  003E              	NOP
  92  003E              	ENDIF
  92  003E              ;# 92 "e:\x-sense_svn\xp02\xp02\src\Adc.c" 1
  92  003E              	IF (10000>=2) AND (10000<( 4 + __PBP__ * 2))
  92  003E              ;# 92 "e:\x-sense_svn\xp02\xp02\src\Adc.c" 1
  92  003E              	NOP
  92  003E              	ENDIF
  92  003E              ;# 92 "e:\x-sense_svn\xp02\xp02\src\Adc.c" 1
  92  003E              	IF (10000>=3) AND (10000<( 4 + __PBP__ * 2))
  92  003E              ;# 92 "e:\x-sense_svn\xp02\xp02\src\Adc.c" 1
  92  003E              	NOP
  92  003E              	ENDIF
  92  003E              ;# 92 "e:\x-sense_svn\xp02\xp02\src\Adc.c" 1
  92  003E              	IF (10000>=4) AND (10000<( 4 + __PBP__ * 2)) AND ( __PBP__ > 0 )
  92  003E              ;# 92 "e:\x-sense_svn\xp02\xp02\src\Adc.c" 1
  92  003E              	NOP
  92  003E              	ENDIF
  92  003E              ;# 92 "e:\x-sense_svn\xp02\xp02\src\Adc.c" 1
  92  003E              	IF (10000>=5) AND (10000<( 4 + __PBP__ * 2)) AND ( __PBP__ > 0 )
  92  003E              ;# 92 "e:\x-sense_svn\xp02\xp02\src\Adc.c" 1
  92  003E              	NOP
  92  003E              	ENDIF
  92  003E              ;# 92 "e:\x-sense_svn\xp02\xp02\src\Adc.c" 1
  92  003E              	IF (10000>=6) AND (10000<( 4 + __PBP__ * 2))  AND ( __PBP__ > 1 )
  92  003E              ;# 92 "e:\x-sense_svn\xp02\xp02\src\Adc.c" 1
  92  003E              	NOP
  92  003E              	ENDIF
  92  003E              ;# 92 "e:\x-sense_svn\xp02\xp02\src\Adc.c" 1
  92  003E              	IF (10000>=7) AND (10000<( 4 + __PBP__ * 2))  AND ( __PBP__ > 1 )
  92  003E              ;# 92 "e:\x-sense_svn\xp02\xp02\src\Adc.c" 1
  92  003E              	NOP
  92  003E              	ENDIF
  92  003E              ;# 92 "e:\x-sense_svn\xp02\xp02\src\Adc.c" 1
  92  003E              	IF (10000>=8) AND (10000<( 4 + __PBP__ * 2))  AND ( __PBP__ > 2 )
文件：Adc.c        编译器版本 HGASM 0202 页次5

  92  003E              ;# 92 "e:\x-sense_svn\xp02\xp02\src\Adc.c" 1
  92  003E              	NOP
  92  003E              	ENDIF
  92  003E              ;# 92 "e:\x-sense_svn\xp02\xp02\src\Adc.c" 1
  92  003E              	IF (10000==9)  AND ( __PBP__ > 2 )
  92  003E              ;# 92 "e:\x-sense_svn\xp02\xp02\src\Adc.c" 1
  92  003E              	NOP
  92  003E              	ENDIF
  92  003E              ;# 92 "e:\x-sense_svn\xp02\xp02\src\Adc.c" 1
  92  003E              	IF (10000< ( 8 + __PBP__ * 2)) AND (10000>( 3 + __PBP__ * 2))
  92  003E              ;# 92 "e:\x-sense_svn\xp02\xp02\src\Adc.c" 1
  92  003E              	fcall __DELAY3 + ( 7 + __PBP__ * 2) -10000
  92  003E              	ENDIF
  92  003E              ;# 92 "e:\x-sense_svn\xp02\xp02\src\Adc.c" 1
  92  003E              	IF (10000< ( 0404h + __PBP__ * 2)) AND (10000>( 7 + __PBP__ * 2))
  92  003E              ;# 92 "e:\x-sense_svn\xp02\xp02\src\Adc.c" 1
  92  003E              	MOV A,(10000-( 4 + __PBP__ * 2))/4
  92  003E              ;# 92 "e:\x-sense_svn\xp02\xp02\src\Adc.c" 1
  92  003E              	fcall __DELAYX3 + 3 -((10000-( 4 + __PBP__ * 2)) MOD 4) 
  92  003E              	ENDIF
  92  003E              ;# 92 "e:\x-sense_svn\xp02\xp02\src\Adc.c" 1
  92  003E              	IF (10000< ( 040bh + __PBP__ * 2)) AND (10000> ( 0403h + __PBP__ * 2))
  92  003E              ;# 92 "e:\x-sense_svn\xp02\xp02\src\Adc.c" 1
  92  003E              	MOV A,0 
  92  003E              ;# 92 "e:\x-sense_svn\xp02\xp02\src\Adc.c" 1
  92  003E              	fcall __DELAYX6 + ( 040ah + __PBP__ * 2) -10000
  92  003E              	ENDIF
  92  003E              ;# 92 "e:\x-sense_svn\xp02\xp02\src\Adc.c" 1
  92  003E              	IF (10000 >= ( 040bh + __PBP__ * 2)) AND ((((10000-( 9 + __PBP__ * 2))%0402h)/4+1)>256)
  92  003E              ;# 92 "e:\x-sense_svn\xp02\xp02\src\Adc.c" 1
  92  003E              	MOV A,(10000-( 9 + __PBP__ * 2))/0402h
  92  003E              ;# 92 "e:\x-sense_svn\xp02\xp02\src\Adc.c" 1
  92  003E              	MOV _builtin_holtek_delay_2,A
  92  003E              ;# 92 "e:\x-sense_svn\xp02\xp02\src\Adc.c" 1
  92  003E              	MOV A,0
  92  003E              ;# 92 "e:\x-sense_svn\xp02\xp02\src\Adc.c" 1
  92  003E              	fcall __DELAYY5 +5- (((10000-( 9 + __PBP__ * 2))%0402h)%6) 
  92  003E              	ENDIF
  92  003E              ;# 92 "e:\x-sense_svn\xp02\xp02\src\Adc.c" 1
  92  003E              	IF (10000 >= ( 040bh + __PBP__ * 2)) AND ((((10000-( 9 + __PBP__ * 2))%0402h)/4+1)<=256)
  92  003E              ;# 92 "e:\x-sense_svn\xp02\xp02\src\Adc.c" 1
  92  003E  0F09        	MOV A,(10000-( 9 + __PBP__ * 2))/0402h
  92  003F              ;# 92 "e:\x-sense_svn\xp02\xp02\src\Adc.c" 1
  92  003F  0080     E  	MOV _builtin_holtek_delay_2,A
  92  0040              ;# 92 "e:\x-sense_svn\xp02\xp02\src\Adc.c" 1
  92  0040  0FBD        	MOV A,((10000-( 9 + __PBP__ * 2))%0402h)/4+1
  92  0041              ;# 92 "e:\x-sense_svn\xp02\xp02\src\Adc.c" 1
  92  0041              	fcall __DELAYY3 +3-(((10000-( 9 + __PBP__ * 2))%0402h)%4) 
  92  0048              	ENDIF
  93  0048              #line 93 "e:\x-sense_svn\xp02\xp02\src\Adc.c"
  93  0048  349B        	clr [27].1
  93  0049              _L6:
  97  0049              #line 97 "e:\x-sense_svn\xp02\xp02\src\Adc.c"
  97  0049              ;# 97 "e:\x-sense_svn\xp02\xp02\src\Adc.c" 1
  97  0049              	IF 100>263690
  97  0049              ;# 97 "e:\x-sense_svn\xp02\xp02\src\Adc.c" 1
  97  0049              	ERRMESSAGE 'the value 100of the argument exceeds the maxinum 263690'
  97  0049              	ENDIF
  97  0049              ;# 97 "e:\x-sense_svn\xp02\xp02\src\Adc.c" 1
  97  0049              	IF 100<0
文件：Adc.c        编译器版本 HGASM 0202 页次6

  97  0049              ;# 97 "e:\x-sense_svn\xp02\xp02\src\Adc.c" 1
  97  0049              	ERRMESSAGE 'the value 100 of the argument exceeds the mininum 0'
  97  0049              	ENDIF
  97  0049              ;# 97 "e:\x-sense_svn\xp02\xp02\src\Adc.c" 1
  97  0049              	IF 100==0
  97  0049              ;# 97 "e:\x-sense_svn\xp02\xp02\src\Adc.c" 1
  97  0049              	JMP $
  97  0049              	ENDIF
  97  0049              ;# 97 "e:\x-sense_svn\xp02\xp02\src\Adc.c" 1
  97  0049              	IF (100>=1) AND (100<( 4 + __PBP__ * 2))
  97  0049              ;# 97 "e:\x-sense_svn\xp02\xp02\src\Adc.c" 1
  97  0049              	NOP
  97  0049              	ENDIF
  97  0049              ;# 97 "e:\x-sense_svn\xp02\xp02\src\Adc.c" 1
  97  0049              	IF (100>=2) AND (100<( 4 + __PBP__ * 2))
  97  0049              ;# 97 "e:\x-sense_svn\xp02\xp02\src\Adc.c" 1
  97  0049              	NOP
  97  0049              	ENDIF
  97  0049              ;# 97 "e:\x-sense_svn\xp02\xp02\src\Adc.c" 1
  97  0049              	IF (100>=3) AND (100<( 4 + __PBP__ * 2))
  97  0049              ;# 97 "e:\x-sense_svn\xp02\xp02\src\Adc.c" 1
  97  0049              	NOP
  97  0049              	ENDIF
  97  0049              ;# 97 "e:\x-sense_svn\xp02\xp02\src\Adc.c" 1
  97  0049              	IF (100>=4) AND (100<( 4 + __PBP__ * 2)) AND ( __PBP__ > 0 )
  97  0049              ;# 97 "e:\x-sense_svn\xp02\xp02\src\Adc.c" 1
  97  0049              	NOP
  97  0049              	ENDIF
  97  0049              ;# 97 "e:\x-sense_svn\xp02\xp02\src\Adc.c" 1
  97  0049              	IF (100>=5) AND (100<( 4 + __PBP__ * 2)) AND ( __PBP__ > 0 )
  97  0049              ;# 97 "e:\x-sense_svn\xp02\xp02\src\Adc.c" 1
  97  0049              	NOP
  97  0049              	ENDIF
  97  0049              ;# 97 "e:\x-sense_svn\xp02\xp02\src\Adc.c" 1
  97  0049              	IF (100>=6) AND (100<( 4 + __PBP__ * 2))  AND ( __PBP__ > 1 )
  97  0049              ;# 97 "e:\x-sense_svn\xp02\xp02\src\Adc.c" 1
  97  0049              	NOP
  97  0049              	ENDIF
  97  0049              ;# 97 "e:\x-sense_svn\xp02\xp02\src\Adc.c" 1
  97  0049              	IF (100>=7) AND (100<( 4 + __PBP__ * 2))  AND ( __PBP__ > 1 )
  97  0049              ;# 97 "e:\x-sense_svn\xp02\xp02\src\Adc.c" 1
  97  0049              	NOP
  97  0049              	ENDIF
  97  0049              ;# 97 "e:\x-sense_svn\xp02\xp02\src\Adc.c" 1
  97  0049              	IF (100>=8) AND (100<( 4 + __PBP__ * 2))  AND ( __PBP__ > 2 )
  97  0049              ;# 97 "e:\x-sense_svn\xp02\xp02\src\Adc.c" 1
  97  0049              	NOP
  97  0049              	ENDIF
  97  0049              ;# 97 "e:\x-sense_svn\xp02\xp02\src\Adc.c" 1
  97  0049              	IF (100==9)  AND ( __PBP__ > 2 )
  97  0049              ;# 97 "e:\x-sense_svn\xp02\xp02\src\Adc.c" 1
  97  0049              	NOP
  97  0049              	ENDIF
  97  0049              ;# 97 "e:\x-sense_svn\xp02\xp02\src\Adc.c" 1
  97  0049              	IF (100< ( 8 + __PBP__ * 2)) AND (100>( 3 + __PBP__ * 2))
  97  0049              ;# 97 "e:\x-sense_svn\xp02\xp02\src\Adc.c" 1
  97  0049              	fcall __DELAY3 + ( 7 + __PBP__ * 2) -100
  97  0049              	ENDIF
  97  0049              ;# 97 "e:\x-sense_svn\xp02\xp02\src\Adc.c" 1
  97  0049              	IF (100< ( 0404h + __PBP__ * 2)) AND (100>( 7 + __PBP__ * 2))
文件：Adc.c        编译器版本 HGASM 0202 页次7

  97  0049              ;# 97 "e:\x-sense_svn\xp02\xp02\src\Adc.c" 1
  97  0049  0F17        	MOV A,(100-( 4 + __PBP__ * 2))/4
  97  004A              ;# 97 "e:\x-sense_svn\xp02\xp02\src\Adc.c" 1
  97  004A              	fcall __DELAYX3 + 3 -((100-( 4 + __PBP__ * 2)) MOD 4) 
  97  0051              	ENDIF
  97  0051              ;# 97 "e:\x-sense_svn\xp02\xp02\src\Adc.c" 1
  97  0051              	IF (100< ( 040bh + __PBP__ * 2)) AND (100> ( 0403h + __PBP__ * 2))
  97  0051              ;# 97 "e:\x-sense_svn\xp02\xp02\src\Adc.c" 1
  97  0051              	MOV A,0 
  97  0051              ;# 97 "e:\x-sense_svn\xp02\xp02\src\Adc.c" 1
  97  0051              	fcall __DELAYX6 + ( 040ah + __PBP__ * 2) -100
  97  0051              	ENDIF
  97  0051              ;# 97 "e:\x-sense_svn\xp02\xp02\src\Adc.c" 1
  97  0051              	IF (100 >= ( 040bh + __PBP__ * 2)) AND ((((100-( 9 + __PBP__ * 2))%0402h)/4+1)>256)
  97  0051              ;# 97 "e:\x-sense_svn\xp02\xp02\src\Adc.c" 1
  97  0051              	MOV A,(100-( 9 + __PBP__ * 2))/0402h
  97  0051              ;# 97 "e:\x-sense_svn\xp02\xp02\src\Adc.c" 1
  97  0051              	MOV _builtin_holtek_delay_2,A
  97  0051              ;# 97 "e:\x-sense_svn\xp02\xp02\src\Adc.c" 1
  97  0051              	MOV A,0
  97  0051              ;# 97 "e:\x-sense_svn\xp02\xp02\src\Adc.c" 1
  97  0051              	fcall __DELAYY5 +5- (((100-( 9 + __PBP__ * 2))%0402h)%6) 
  97  0051              	ENDIF
  97  0051              ;# 97 "e:\x-sense_svn\xp02\xp02\src\Adc.c" 1
  97  0051              	IF (100 >= ( 040bh + __PBP__ * 2)) AND ((((100-( 9 + __PBP__ * 2))%0402h)/4+1)<=256)
  97  0051              ;# 97 "e:\x-sense_svn\xp02\xp02\src\Adc.c" 1
  97  0051              	MOV A,(100-( 9 + __PBP__ * 2))/0402h
  97  0051              ;# 97 "e:\x-sense_svn\xp02\xp02\src\Adc.c" 1
  97  0051              	MOV _builtin_holtek_delay_2,A
  97  0051              ;# 97 "e:\x-sense_svn\xp02\xp02\src\Adc.c" 1
  97  0051              	MOV A,((100-( 9 + __PBP__ * 2))%0402h)/4+1
  97  0051              ;# 97 "e:\x-sense_svn\xp02\xp02\src\Adc.c" 1
  97  0051              	fcall __DELAYY3 +3-(((100-( 9 + __PBP__ * 2))%0402h)%4) 
  97  0051              	ENDIF
  28  0051              #line 28 "e:\x-sense_svn\xp02\xp02\src\Adc.c"
  28  0051  1F00     E  	clr rb
  28  0052  1F00     E  	clr rc
  98  0053              #line 98 "e:\x-sense_svn\xp02\xp02\src\Adc.c"
  98  0053  1F00     E  	clr ra
  98  0054              _L12:
 101  0054              #line 101 "e:\x-sense_svn\xp02\xp02\src\Adc.c"
 101  0054  37AA        	clr [42].7
 102  0055              #line 102 "e:\x-sense_svn\xp02\xp02\src\Adc.c"
 102  0055  33AA        	set [42].7
 103  0056              #line 103 "e:\x-sense_svn\xp02\xp02\src\Adc.c"
 103  0056  37AA        	clr [42].7
 103  0057              _L9:
 106  0057              #line 106 "e:\x-sense_svn\xp02\xp02\src\Adc.c"
 106  0057  3F2A        	sz [42].6
 106  0058  2800     R  	jmp _L9
 109  0059              #line 109 "e:\x-sense_svn\xp02\xp02\src\Adc.c"
 109  0059  072D        	mov a,[45]
 109  005A  0080     E  	mov re,a
 109  005B  1F00     E  	clr rd
 109  005C  0700     E  	mov a,re
 109  005D  0080     E  	mov rg,a
 109  005E  072E        	mov a,[46]
 109  005F  0500     E  	or a,rd
 109  0060  0080     E  	mov rf,a
 110  0061              #line 110 "e:\x-sense_svn\xp02\xp02\src\Adc.c"
文件：Adc.c        编译器版本 HGASM 0202 页次8

 110  0061  1E00     E  	snz ra
 110  0062  2800     R  	jmp _L10
 112  0063              #line 112 "e:\x-sense_svn\xp02\xp02\src\Adc.c"
 112  0063  0700     E  	mov a,rf
 112  0064  0380     E  	addm a,rb
 112  0065  0700     E  	mov a,rg
 112  0066  1380     E  	adcm a,rc
 112  0067              _L10:
  98  0067              #line 98 "e:\x-sense_svn\xp02\xp02\src\Adc.c"
  98  0067  1480     E  	inc ra
  98  0068  0700     E  	mov a,ra
  98  0069  0A05        	sub a,5
  98  006A  390A        	snz z
  98  006B  2800     R  	jmp _L12
 115  006C              #line 115 "e:\x-sense_svn\xp02\xp02\src\Adc.c"
 115  006C  0700     E  	mov a,rb
 115  006D  0080     E  	mov ra,a
 115  006E  0700     E  	mov a,rc
 115  006F  0080     E  	mov rb,a
 115  0070  340A        	clr c
 115  0071  1B80     E  	rrc rb
 115  0072  1B80     E  	rrc ra
 115  0073  340A        	clr c
 115  0074  1B80     E  	rrc rb
 115  0075  1B80     E  	rrc ra
 117  0076              #line 117 "e:\x-sense_svn\xp02\xp02\src\Adc.c"
 117  0076  0700     R  	mov a,_GetAdcSample_2[0]
 117  0077  0500     R  	or a,_GetAdcSample_2[1]
 117  0078  390A        	snz z
 117  0079  2800     R  	jmp _L13
 119  007A              #line 119 "e:\x-sense_svn\xp02\xp02\src\Adc.c"
 119  007A  3618        	clr [24].4
 119  007B  2800     R  	jmp _L14
 119  007C              _L13:
 121  007C              #line 121 "e:\x-sense_svn\xp02\xp02\src\Adc.c"
 121  007C  0700     R  	mov a,_GetAdcSample_2[0]
 121  007D  0C01        	xor a,1
 121  007E  0500     R  	or a,_GetAdcSample_2[1]
 121  007F  390A        	snz z
 121  0080  2800     R  	jmp _L15
 124  0081              #line 124 "e:\x-sense_svn\xp02\xp02\src\Adc.c"
 124  0081  3718        	clr [24].6
 124  0082  2800     R  	jmp _L14
 124  0083              _L15:
 127  0083              #line 127 "e:\x-sense_svn\xp02\xp02\src\Adc.c"
 127  0083  0700     R  	mov a,_GetAdcSample_2[0]
 127  0084  0C02        	xor a,2
 127  0085  0500     R  	or a,_GetAdcSample_2[1]
 127  0086  390A        	snz z
 127  0087  2800     R  	jmp _L14
 127  0088  0700     R  	mov a,_GetAdcSample_2[2]
 127  0089  0C01        	xor a,1
 127  008A  0500     R  	or a,_GetAdcSample_2[3]
 127  008B  390A        	snz z
 127  008C  2800     R  	jmp _L14
 129  008D              #line 129 "e:\x-sense_svn\xp02\xp02\src\Adc.c"
 129  008D  349B        	clr [27].1
 129  008E              _L14:
 133  008E              #line 133 "e:\x-sense_svn\xp02\xp02\src\Adc.c"
 133  008E  36AA        	clr [42].5
文件：Adc.c        编译器版本 HGASM 0202 页次9

 133  008F  0003        	ret
 133  0090              _GetAdcSample endp
 133  0090              #line 133 "e:\x-sense_svn\xp02\xp02\src\Adc.c"
 133  0090              #pragma debug scope 1 1
 133  0090              ___vbgrc equ [77]
 133  0090              ___isgdata1 equ [65]
 133  0090              ___isgenc equ [63]
 133  0090              public _GetVddSample
 133  0090              #pragma debug scope 3 1
 148  0090              #line 148 "e:\x-sense_svn\xp02\xp02\src\Adc.c"
 148  0000              _GetVddSample .section 'code'
 148  0000              _GetVddSample proc
 148  0000              public _GetVddSample_2
 148  0000  0002[           local _GetVddSample_2 db 2 dup(?)	; 2,0
            00
            ]
 148  0002              #pragma debug variable 12 3 _GetVddSample_2+0 "Type"
 174  0002              #line 174 "e:\x-sense_svn\xp02\xp02\src\Adc.c"
 174  0000  0FFA        	mov a,250
 174  0001  06AB        	andm a,[43]
 175  0002              #line 175 "e:\x-sense_svn\xp02\xp02\src\Adc.c"
 175  0002  30AB        	set [43].1
 178  0003              #line 178 "e:\x-sense_svn\xp02\xp02\src\Adc.c"
 178  0003  304D        	set [77].0
 180  0004              #line 180 "e:\x-sense_svn\xp02\xp02\src\Adc.c"
 180  0004  31CF        	set [79].3
 181  0005              #line 181 "e:\x-sense_svn\xp02\xp02\src\Adc.c"
 181  0005              ;# 181 "e:\x-sense_svn\xp02\xp02\src\Adc.c" 1
 181  0005              	IF 300>263690
 181  0005              ;# 181 "e:\x-sense_svn\xp02\xp02\src\Adc.c" 1
 181  0005              	ERRMESSAGE 'the value 300of the argument exceeds the maxinum 263690'
 181  0005              	ENDIF
 181  0005              ;# 181 "e:\x-sense_svn\xp02\xp02\src\Adc.c" 1
 181  0005              	IF 300<0
 181  0005              ;# 181 "e:\x-sense_svn\xp02\xp02\src\Adc.c" 1
 181  0005              	ERRMESSAGE 'the value 300 of the argument exceeds the mininum 0'
 181  0005              	ENDIF
 181  0005              ;# 181 "e:\x-sense_svn\xp02\xp02\src\Adc.c" 1
 181  0005              	IF 300==0
 181  0005              ;# 181 "e:\x-sense_svn\xp02\xp02\src\Adc.c" 1
 181  0005              	JMP $
 181  0005              	ENDIF
 181  0005              ;# 181 "e:\x-sense_svn\xp02\xp02\src\Adc.c" 1
 181  0005              	IF (300>=1) AND (300<( 4 + __PBP__ * 2))
 181  0005              ;# 181 "e:\x-sense_svn\xp02\xp02\src\Adc.c" 1
 181  0005              	NOP
 181  0005              	ENDIF
 181  0005              ;# 181 "e:\x-sense_svn\xp02\xp02\src\Adc.c" 1
 181  0005              	IF (300>=2) AND (300<( 4 + __PBP__ * 2))
 181  0005              ;# 181 "e:\x-sense_svn\xp02\xp02\src\Adc.c" 1
 181  0005              	NOP
 181  0005              	ENDIF
 181  0005              ;# 181 "e:\x-sense_svn\xp02\xp02\src\Adc.c" 1
 181  0005              	IF (300>=3) AND (300<( 4 + __PBP__ * 2))
 181  0005              ;# 181 "e:\x-sense_svn\xp02\xp02\src\Adc.c" 1
 181  0005              	NOP
 181  0005              	ENDIF
 181  0005              ;# 181 "e:\x-sense_svn\xp02\xp02\src\Adc.c" 1
 181  0005              	IF (300>=4) AND (300<( 4 + __PBP__ * 2)) AND ( __PBP__ > 0 )
 181  0005              ;# 181 "e:\x-sense_svn\xp02\xp02\src\Adc.c" 1
文件：Adc.c        编译器版本 HGASM 0202 页次10

 181  0005              	NOP
 181  0005              	ENDIF
 181  0005              ;# 181 "e:\x-sense_svn\xp02\xp02\src\Adc.c" 1
 181  0005              	IF (300>=5) AND (300<( 4 + __PBP__ * 2)) AND ( __PBP__ > 0 )
 181  0005              ;# 181 "e:\x-sense_svn\xp02\xp02\src\Adc.c" 1
 181  0005              	NOP
 181  0005              	ENDIF
 181  0005              ;# 181 "e:\x-sense_svn\xp02\xp02\src\Adc.c" 1
 181  0005              	IF (300>=6) AND (300<( 4 + __PBP__ * 2))  AND ( __PBP__ > 1 )
 181  0005              ;# 181 "e:\x-sense_svn\xp02\xp02\src\Adc.c" 1
 181  0005              	NOP
 181  0005              	ENDIF
 181  0005              ;# 181 "e:\x-sense_svn\xp02\xp02\src\Adc.c" 1
 181  0005              	IF (300>=7) AND (300<( 4 + __PBP__ * 2))  AND ( __PBP__ > 1 )
 181  0005              ;# 181 "e:\x-sense_svn\xp02\xp02\src\Adc.c" 1
 181  0005              	NOP
 181  0005              	ENDIF
 181  0005              ;# 181 "e:\x-sense_svn\xp02\xp02\src\Adc.c" 1
 181  0005              	IF (300>=8) AND (300<( 4 + __PBP__ * 2))  AND ( __PBP__ > 2 )
 181  0005              ;# 181 "e:\x-sense_svn\xp02\xp02\src\Adc.c" 1
 181  0005              	NOP
 181  0005              	ENDIF
 181  0005              ;# 181 "e:\x-sense_svn\xp02\xp02\src\Adc.c" 1
 181  0005              	IF (300==9)  AND ( __PBP__ > 2 )
 181  0005              ;# 181 "e:\x-sense_svn\xp02\xp02\src\Adc.c" 1
 181  0005              	NOP
 181  0005              	ENDIF
 181  0005              ;# 181 "e:\x-sense_svn\xp02\xp02\src\Adc.c" 1
 181  0005              	IF (300< ( 8 + __PBP__ * 2)) AND (300>( 3 + __PBP__ * 2))
 181  0005              ;# 181 "e:\x-sense_svn\xp02\xp02\src\Adc.c" 1
 181  0005              	fcall __DELAY3 + ( 7 + __PBP__ * 2) -300
 181  0005              	ENDIF
 181  0005              ;# 181 "e:\x-sense_svn\xp02\xp02\src\Adc.c" 1
 181  0005              	IF (300< ( 0404h + __PBP__ * 2)) AND (300>( 7 + __PBP__ * 2))
 181  0005              ;# 181 "e:\x-sense_svn\xp02\xp02\src\Adc.c" 1
 181  0005  0F49        	MOV A,(300-( 4 + __PBP__ * 2))/4
 181  0006              ;# 181 "e:\x-sense_svn\xp02\xp02\src\Adc.c" 1
 181  0006              	fcall __DELAYX3 + 3 -((300-( 4 + __PBP__ * 2)) MOD 4) 
 181  000D              	ENDIF
 181  000D              ;# 181 "e:\x-sense_svn\xp02\xp02\src\Adc.c" 1
 181  000D              	IF (300< ( 040bh + __PBP__ * 2)) AND (300> ( 0403h + __PBP__ * 2))
 181  000D              ;# 181 "e:\x-sense_svn\xp02\xp02\src\Adc.c" 1
 181  000D              	MOV A,0 
 181  000D              ;# 181 "e:\x-sense_svn\xp02\xp02\src\Adc.c" 1
 181  000D              	fcall __DELAYX6 + ( 040ah + __PBP__ * 2) -300
 181  000D              	ENDIF
 181  000D              ;# 181 "e:\x-sense_svn\xp02\xp02\src\Adc.c" 1
 181  000D              	IF (300 >= ( 040bh + __PBP__ * 2)) AND ((((300-( 9 + __PBP__ * 2))%0402h)/4+1)>256)
 181  000D              ;# 181 "e:\x-sense_svn\xp02\xp02\src\Adc.c" 1
 181  000D              	MOV A,(300-( 9 + __PBP__ * 2))/0402h
 181  000D              ;# 181 "e:\x-sense_svn\xp02\xp02\src\Adc.c" 1
 181  000D              	MOV _builtin_holtek_delay_2,A
 181  000D              ;# 181 "e:\x-sense_svn\xp02\xp02\src\Adc.c" 1
 181  000D              	MOV A,0
 181  000D              ;# 181 "e:\x-sense_svn\xp02\xp02\src\Adc.c" 1
 181  000D              	fcall __DELAYY5 +5- (((300-( 9 + __PBP__ * 2))%0402h)%6) 
 181  000D              	ENDIF
 181  000D              ;# 181 "e:\x-sense_svn\xp02\xp02\src\Adc.c" 1
 181  000D              	IF (300 >= ( 040bh + __PBP__ * 2)) AND ((((300-( 9 + __PBP__ * 2))%0402h)/4+1)<=256)
 181  000D              ;# 181 "e:\x-sense_svn\xp02\xp02\src\Adc.c" 1
文件：Adc.c        编译器版本 HGASM 0202 页次11

 181  000D              	MOV A,(300-( 9 + __PBP__ * 2))/0402h
 181  000D              ;# 181 "e:\x-sense_svn\xp02\xp02\src\Adc.c" 1
 181  000D              	MOV _builtin_holtek_delay_2,A
 181  000D              ;# 181 "e:\x-sense_svn\xp02\xp02\src\Adc.c" 1
 181  000D              	MOV A,((300-( 9 + __PBP__ * 2))%0402h)/4+1
 181  000D              ;# 181 "e:\x-sense_svn\xp02\xp02\src\Adc.c" 1
 181  000D              	fcall __DELAYY3 +3-(((300-( 9 + __PBP__ * 2))%0402h)%4) 
 181  000D              	ENDIF
 186  000D              #line 186 "e:\x-sense_svn\xp02\xp02\src\Adc.c"
 186  000D  32AA        	set [42].5
 200  000E              #line 200 "e:\x-sense_svn\xp02\xp02\src\Adc.c"
 200  000E  0F3F        	mov a,63
 200  000F  06AB        	andm a,[43]
 201  0010              #line 201 "e:\x-sense_svn\xp02\xp02\src\Adc.c"
 201  0010  32AB        	set [43].5
 206  0011              #line 206 "e:\x-sense_svn\xp02\xp02\src\Adc.c"
 206  0011  0FF4        	mov a,244
 206  0012  06AA        	andm a,[42]
 207  0013              #line 207 "e:\x-sense_svn\xp02\xp02\src\Adc.c"
 207  0013  312A        	set [42].2
 215  0014              #line 215 "e:\x-sense_svn\xp02\xp02\src\Adc.c"
 215  0014  362B        	clr [43].4
 216  0015              #line 216 "e:\x-sense_svn\xp02\xp02\src\Adc.c"
 216  0015  31AB        	set [43].3
 218  0016              #line 218 "e:\x-sense_svn\xp02\xp02\src\Adc.c"
 218  0016  322A        	set [42].4
 219  0017              #line 219 "e:\x-sense_svn\xp02\xp02\src\Adc.c"
 219  0017  0700     R  	mov a,_GetVddSample_2[0]
 219  0018  0C01        	xor a,1
 219  0019  0500     R  	or a,_GetVddSample_2[1]
 219  001A  390A        	snz z
 219  001B  2800     R  	jmp _L22
 222  001C              #line 222 "e:\x-sense_svn\xp02\xp02\src\Adc.c"
 222  001C  1F41        	clr [65]
 225  001D              #line 225 "e:\x-sense_svn\xp02\xp02\src\Adc.c"
 225  001D  0F82        	mov a,130
 225  001E  05BF        	orm a,[63]
 225  001F              _L22:
 228  001F              #line 228 "e:\x-sense_svn\xp02\xp02\src\Adc.c"
 228  001F              ;# 228 "e:\x-sense_svn\xp02\xp02\src\Adc.c" 1
 228  001F              	IF 100>263690
 228  001F              ;# 228 "e:\x-sense_svn\xp02\xp02\src\Adc.c" 1
 228  001F              	ERRMESSAGE 'the value 100of the argument exceeds the maxinum 263690'
 228  001F              	ENDIF
 228  001F              ;# 228 "e:\x-sense_svn\xp02\xp02\src\Adc.c" 1
 228  001F              	IF 100<0
 228  001F              ;# 228 "e:\x-sense_svn\xp02\xp02\src\Adc.c" 1
 228  001F              	ERRMESSAGE 'the value 100 of the argument exceeds the mininum 0'
 228  001F              	ENDIF
 228  001F              ;# 228 "e:\x-sense_svn\xp02\xp02\src\Adc.c" 1
 228  001F              	IF 100==0
 228  001F              ;# 228 "e:\x-sense_svn\xp02\xp02\src\Adc.c" 1
 228  001F              	JMP $
 228  001F              	ENDIF
 228  001F              ;# 228 "e:\x-sense_svn\xp02\xp02\src\Adc.c" 1
 228  001F              	IF (100>=1) AND (100<( 4 + __PBP__ * 2))
 228  001F              ;# 228 "e:\x-sense_svn\xp02\xp02\src\Adc.c" 1
 228  001F              	NOP
 228  001F              	ENDIF
 228  001F              ;# 228 "e:\x-sense_svn\xp02\xp02\src\Adc.c" 1
文件：Adc.c        编译器版本 HGASM 0202 页次12

 228  001F              	IF (100>=2) AND (100<( 4 + __PBP__ * 2))
 228  001F              ;# 228 "e:\x-sense_svn\xp02\xp02\src\Adc.c" 1
 228  001F              	NOP
 228  001F              	ENDIF
 228  001F              ;# 228 "e:\x-sense_svn\xp02\xp02\src\Adc.c" 1
 228  001F              	IF (100>=3) AND (100<( 4 + __PBP__ * 2))
 228  001F              ;# 228 "e:\x-sense_svn\xp02\xp02\src\Adc.c" 1
 228  001F              	NOP
 228  001F              	ENDIF
 228  001F              ;# 228 "e:\x-sense_svn\xp02\xp02\src\Adc.c" 1
 228  001F              	IF (100>=4) AND (100<( 4 + __PBP__ * 2)) AND ( __PBP__ > 0 )
 228  001F              ;# 228 "e:\x-sense_svn\xp02\xp02\src\Adc.c" 1
 228  001F              	NOP
 228  001F              	ENDIF
 228  001F              ;# 228 "e:\x-sense_svn\xp02\xp02\src\Adc.c" 1
 228  001F              	IF (100>=5) AND (100<( 4 + __PBP__ * 2)) AND ( __PBP__ > 0 )
 228  001F              ;# 228 "e:\x-sense_svn\xp02\xp02\src\Adc.c" 1
 228  001F              	NOP
 228  001F              	ENDIF
 228  001F              ;# 228 "e:\x-sense_svn\xp02\xp02\src\Adc.c" 1
 228  001F              	IF (100>=6) AND (100<( 4 + __PBP__ * 2))  AND ( __PBP__ > 1 )
 228  001F              ;# 228 "e:\x-sense_svn\xp02\xp02\src\Adc.c" 1
 228  001F              	NOP
 228  001F              	ENDIF
 228  001F              ;# 228 "e:\x-sense_svn\xp02\xp02\src\Adc.c" 1
 228  001F              	IF (100>=7) AND (100<( 4 + __PBP__ * 2))  AND ( __PBP__ > 1 )
 228  001F              ;# 228 "e:\x-sense_svn\xp02\xp02\src\Adc.c" 1
 228  001F              	NOP
 228  001F              	ENDIF
 228  001F              ;# 228 "e:\x-sense_svn\xp02\xp02\src\Adc.c" 1
 228  001F              	IF (100>=8) AND (100<( 4 + __PBP__ * 2))  AND ( __PBP__ > 2 )
 228  001F              ;# 228 "e:\x-sense_svn\xp02\xp02\src\Adc.c" 1
 228  001F              	NOP
 228  001F              	ENDIF
 228  001F              ;# 228 "e:\x-sense_svn\xp02\xp02\src\Adc.c" 1
 228  001F              	IF (100==9)  AND ( __PBP__ > 2 )
 228  001F              ;# 228 "e:\x-sense_svn\xp02\xp02\src\Adc.c" 1
 228  001F              	NOP
 228  001F              	ENDIF
 228  001F              ;# 228 "e:\x-sense_svn\xp02\xp02\src\Adc.c" 1
 228  001F              	IF (100< ( 8 + __PBP__ * 2)) AND (100>( 3 + __PBP__ * 2))
 228  001F              ;# 228 "e:\x-sense_svn\xp02\xp02\src\Adc.c" 1
 228  001F              	fcall __DELAY3 + ( 7 + __PBP__ * 2) -100
 228  001F              	ENDIF
 228  001F              ;# 228 "e:\x-sense_svn\xp02\xp02\src\Adc.c" 1
 228  001F              	IF (100< ( 0404h + __PBP__ * 2)) AND (100>( 7 + __PBP__ * 2))
 228  001F              ;# 228 "e:\x-sense_svn\xp02\xp02\src\Adc.c" 1
 228  001F  0F17        	MOV A,(100-( 4 + __PBP__ * 2))/4
 228  0020              ;# 228 "e:\x-sense_svn\xp02\xp02\src\Adc.c" 1
 228  0020              	fcall __DELAYX3 + 3 -((100-( 4 + __PBP__ * 2)) MOD 4) 
 228  0027              	ENDIF
 228  0027              ;# 228 "e:\x-sense_svn\xp02\xp02\src\Adc.c" 1
 228  0027              	IF (100< ( 040bh + __PBP__ * 2)) AND (100> ( 0403h + __PBP__ * 2))
 228  0027              ;# 228 "e:\x-sense_svn\xp02\xp02\src\Adc.c" 1
 228  0027              	MOV A,0 
 228  0027              ;# 228 "e:\x-sense_svn\xp02\xp02\src\Adc.c" 1
 228  0027              	fcall __DELAYX6 + ( 040ah + __PBP__ * 2) -100
 228  0027              	ENDIF
 228  0027              ;# 228 "e:\x-sense_svn\xp02\xp02\src\Adc.c" 1
 228  0027              	IF (100 >= ( 040bh + __PBP__ * 2)) AND ((((100-( 9 + __PBP__ * 2))%0402h)/4+1)>256)
文件：Adc.c        编译器版本 HGASM 0202 页次13

 228  0027              ;# 228 "e:\x-sense_svn\xp02\xp02\src\Adc.c" 1
 228  0027              	MOV A,(100-( 9 + __PBP__ * 2))/0402h
 228  0027              ;# 228 "e:\x-sense_svn\xp02\xp02\src\Adc.c" 1
 228  0027              	MOV _builtin_holtek_delay_2,A
 228  0027              ;# 228 "e:\x-sense_svn\xp02\xp02\src\Adc.c" 1
 228  0027              	MOV A,0
 228  0027              ;# 228 "e:\x-sense_svn\xp02\xp02\src\Adc.c" 1
 228  0027              	fcall __DELAYY5 +5- (((100-( 9 + __PBP__ * 2))%0402h)%6) 
 228  0027              	ENDIF
 228  0027              ;# 228 "e:\x-sense_svn\xp02\xp02\src\Adc.c" 1
 228  0027              	IF (100 >= ( 040bh + __PBP__ * 2)) AND ((((100-( 9 + __PBP__ * 2))%0402h)/4+1)<=256)
 228  0027              ;# 228 "e:\x-sense_svn\xp02\xp02\src\Adc.c" 1
 228  0027              	MOV A,(100-( 9 + __PBP__ * 2))/0402h
 228  0027              ;# 228 "e:\x-sense_svn\xp02\xp02\src\Adc.c" 1
 228  0027              	MOV _builtin_holtek_delay_2,A
 228  0027              ;# 228 "e:\x-sense_svn\xp02\xp02\src\Adc.c" 1
 228  0027              	MOV A,((100-( 9 + __PBP__ * 2))%0402h)/4+1
 228  0027              ;# 228 "e:\x-sense_svn\xp02\xp02\src\Adc.c" 1
 228  0027              	fcall __DELAYY3 +3-(((100-( 9 + __PBP__ * 2))%0402h)%4) 
 228  0027              	ENDIF
 228  0027  0F02        	mov a,2
 228  0028  0080     E  	mov ra,a
 151  0029              #line 151 "e:\x-sense_svn\xp02\xp02\src\Adc.c"
 151  0029  1F00     E  	clr rb
 151  002A  1F00     E  	clr rc
 151  002B              _L26:
 235  002B              #line 235 "e:\x-sense_svn\xp02\xp02\src\Adc.c"
 235  002B  37AA        	clr [42].7
 236  002C              #line 236 "e:\x-sense_svn\xp02\xp02\src\Adc.c"
 236  002C  33AA        	set [42].7
 237  002D              #line 237 "e:\x-sense_svn\xp02\xp02\src\Adc.c"
 237  002D  37AA        	clr [42].7
 237  002E              _L24:
 240  002E              #line 240 "e:\x-sense_svn\xp02\xp02\src\Adc.c"
 240  002E  3F2A        	sz [42].6
 240  002F  2800     R  	jmp _L24
 243  0030              #line 243 "e:\x-sense_svn\xp02\xp02\src\Adc.c"
 243  0030  072D        	mov a,[45]
 243  0031  0080     E  	mov re,a
 243  0032  1F00     E  	clr rd
 243  0033  0700     E  	mov a,re
 243  0034  0080     E  	mov rg,a
 243  0035  072E        	mov a,[46]
 243  0036  0500     E  	or a,rd
 243  0037  0080     E  	mov rf,a
 245  0038              #line 245 "e:\x-sense_svn\xp02\xp02\src\Adc.c"
 245  0038  0700     E  	mov a,rf
 245  0039  0380     E  	addm a,rb
 245  003A  0700     E  	mov a,rg
 245  003B  1380     E  	adcm a,rc
 245  003C  1780     E  	sdz ra
 245  003D  2800     R  	jmp _L26
 248  003E              #line 248 "e:\x-sense_svn\xp02\xp02\src\Adc.c"
 248  003E  0700     E  	mov a,rb
 248  003F  0080     E  	mov ra,a
 248  0040  0700     E  	mov a,rc
 248  0041  0080     E  	mov rb,a
 248  0042  340A        	clr c
 248  0043  1B80     E  	rrc rb
 248  0044  1B80     E  	rrc ra
文件：Adc.c        编译器版本 HGASM 0202 页次14

 249  0045              #line 249 "e:\x-sense_svn\xp02\xp02\src\Adc.c"
 249  0045  0700     R  	mov a,_GetVddSample_2[0]
 249  0046  0C01        	xor a,1
 249  0047  0500     R  	or a,_GetVddSample_2[1]
 249  0048  390A        	snz z
 249  0049  2800     R  	jmp _L27
 253  004A              #line 253 "e:\x-sense_svn\xp02\xp02\src\Adc.c"
 253  004A  0F7D        	mov a,125
 253  004B  06BF        	andm a,[63]
 253  004C              _L27:
 257  004C              #line 257 "e:\x-sense_svn\xp02\xp02\src\Adc.c"
 257  004C  344D        	clr [77].0
 259  004D              #line 259 "e:\x-sense_svn\xp02\xp02\src\Adc.c"
 259  004D  35CF        	clr [79].3
 261  004E              #line 261 "e:\x-sense_svn\xp02\xp02\src\Adc.c"
 261  004E  36AA        	clr [42].5
 261  004F  0003        	ret
 261  0050              _GetVddSample endp
 261  0050              #line 261 "e:\x-sense_svn\xp02\xp02\src\Adc.c"
 261  0050              #pragma debug scope 1 1
 261  0050              #pragma debug struct_end
 261  0050              #pragma debug struct_end
 261  0050              #pragma debug union_end
 261  0050              #pragma debug union_end
 261  0050              #pragma debug variable 43 1 ___pb "__pb" 1
 261  0050              #pragma debug struct_end
 261  0050              #pragma debug struct_end
 261  0050              #pragma debug union_end
 261  0050              #pragma debug union_end
 261  0050              #pragma debug variable 45 1 ___pc "__pc" 1
 261  0050              #pragma debug struct_end
 261  0050              #pragma debug struct_end
 261  0050              #pragma debug union_end
 261  0050              #pragma debug union_end
 261  0050              #pragma debug variable 47 1 ___sadc0 "__sadc0" 1
 261  0050              #pragma debug struct_end
 261  0050              #pragma debug struct_end
 261  0050              #pragma debug union_end
 261  0050              #pragma debug union_end
 261  0050              #pragma debug variable 49 1 ___sadc1 "__sadc1" 1
 261  0050              #pragma debug variable 8 1 ___sadoh "__sadoh" 1
 261  0050              #pragma debug variable 8 1 ___sadol "__sadol" 1
 261  0050              #pragma debug struct_end
 261  0050              #pragma debug struct_end
 261  0050              #pragma debug union_end
 261  0050              #pragma debug union_end
 261  0050              #pragma debug variable 51 1 ___isgenc "__isgenc" 1
 261  0050              #pragma debug variable 8 1 ___isgdata1 "__isgdata1" 1
 261  0050              #pragma debug struct_end
 261  0050              #pragma debug struct_end
 261  0050              #pragma debug union_end
 261  0050              #pragma debug union_end
 261  0050              #pragma debug variable 53 1 ___vbgrc "__vbgrc" 1
 261  0050              #pragma debug struct_end
 261  0050              #pragma debug struct_end
 261  0050              #pragma debug union_end
 261  0050              #pragma debug union_end
 261  0050              #pragma debug variable 55 1 ___lvdc "__lvdc" 1
 261  0050              
 261  0050              ; 
文件：Adc.c        编译器版本 HGASM 0202 页次15

 261  0050              ; Generated by holtek-gcc v3.19, Fri Nov 11 18:10:30 2022
 261  0050              ; Rebuild 718
 261  0050              ; end of file


        0 Errors, 0